	.file	"loop_unroll.cpp"
	.text
	.globl	_Z13record_resultdPKc           # -- Begin function _Z13record_resultdPKc
	.p2align	5
	.type	_Z13record_resultdPKc,@function
_Z13record_resultdPKc:                  # @_Z13record_resultdPKc
# %bb.0:
	addi.d	$sp, $sp, -48
	st.d	$ra, $sp, 40                    # 8-byte Folded Spill
	st.d	$fp, $sp, 32                    # 8-byte Folded Spill
	st.d	$s0, $sp, 24                    # 8-byte Folded Spill
	st.d	$s1, $sp, 16                    # 8-byte Folded Spill
	st.d	$s2, $sp, 8                     # 8-byte Folded Spill
	fst.d	$fs0, $sp, 0                    # 8-byte Folded Spill
	pcalau12i	$s2, %pc_hi20(results)
	ld.d	$a2, $s2, %pc_lo12(results)
	pcalau12i	$s1, %pc_hi20(allocated_results)
	ld.w	$a1, $s1, %pc_lo12(allocated_results)
	move	$fp, $a0
	fmov.d	$fs0, $fa0
	pcalau12i	$s0, %pc_hi20(current_test)
	beqz	$a2, .LBB0_2
# %bb.1:
	ld.w	$a0, $s0, %pc_lo12(current_test)
	blt	$a0, $a1, .LBB0_4
.LBB0_2:
	addi.w	$a0, $a1, 10
	st.w	$a0, $s1, %pc_lo12(allocated_results)
	slli.d	$a1, $a0, 4
	move	$a0, $a2
	pcaddu18i	$ra, %call36(realloc)
	jirl	$ra, $ra, 0
	st.d	$a0, $s2, %pc_lo12(results)
	beqz	$a0, .LBB0_5
# %bb.3:                                # %._crit_edge
	move	$a2, $a0
	ld.w	$a0, $s0, %pc_lo12(current_test)
.LBB0_4:
	alsl.d	$a1, $a0, $a2, 4
	slli.d	$a3, $a0, 4
	fstx.d	$fs0, $a2, $a3
	st.d	$fp, $a1, 8
	addi.d	$a0, $a0, 1
	st.w	$a0, $s0, %pc_lo12(current_test)
	fld.d	$fs0, $sp, 0                    # 8-byte Folded Reload
	ld.d	$s2, $sp, 8                     # 8-byte Folded Reload
	ld.d	$s1, $sp, 16                    # 8-byte Folded Reload
	ld.d	$s0, $sp, 24                    # 8-byte Folded Reload
	ld.d	$fp, $sp, 32                    # 8-byte Folded Reload
	ld.d	$ra, $sp, 40                    # 8-byte Folded Reload
	addi.d	$sp, $sp, 48
	ret
.LBB0_5:
	ld.w	$a1, $s1, %pc_lo12(allocated_results)
	pcalau12i	$a0, %pc_hi20(.L.str)
	addi.d	$a0, $a0, %pc_lo12(.L.str)
	pcaddu18i	$ra, %call36(printf)
	jirl	$ra, $ra, 0
	addi.w	$a0, $zero, -1
	pcaddu18i	$ra, %call36(exit)
	jirl	$ra, $ra, 0
.Lfunc_end0:
	.size	_Z13record_resultdPKc, .Lfunc_end0-_Z13record_resultdPKc
                                        # -- End function
	.section	.rodata.cst8,"aM",@progbits,8
	.p2align	3, 0x0                          # -- Begin function _Z9summarizePKciiii
.LCPI1_0:
	.dword	0x412e848000000000              # double 1.0E+6
	.text
	.globl	_Z9summarizePKciiii
	.p2align	5
	.type	_Z9summarizePKciiii,@function
_Z9summarizePKciiii:                    # @_Z9summarizePKciiii
# %bb.0:
	addi.d	$sp, $sp, -128
	st.d	$ra, $sp, 120                   # 8-byte Folded Spill
	st.d	$fp, $sp, 112                   # 8-byte Folded Spill
	st.d	$s0, $sp, 104                   # 8-byte Folded Spill
	st.d	$s1, $sp, 96                    # 8-byte Folded Spill
	st.d	$s2, $sp, 88                    # 8-byte Folded Spill
	st.d	$s3, $sp, 80                    # 8-byte Folded Spill
	st.d	$s4, $sp, 72                    # 8-byte Folded Spill
	st.d	$s5, $sp, 64                    # 8-byte Folded Spill
	st.d	$s6, $sp, 56                    # 8-byte Folded Spill
	st.d	$s7, $sp, 48                    # 8-byte Folded Spill
	st.d	$s8, $sp, 40                    # 8-byte Folded Spill
	fst.d	$fs0, $sp, 32                   # 8-byte Folded Spill
	fst.d	$fs1, $sp, 24                   # 8-byte Folded Spill
	pcalau12i	$s6, %pc_hi20(current_test)
	ld.w	$fp, $s6, %pc_lo12(current_test)
	move	$s0, $a4
	move	$s2, $a2
	move	$s3, $a1
	move	$s5, $a0
	pcalau12i	$s7, %pc_hi20(results)
	blez	$fp, .LBB1_3
# %bb.1:                                # %.lr.ph
	ld.d	$a0, $s7, %pc_lo12(results)
	addi.d	$s4, $a0, 8
	ori	$s1, $zero, 12
	.p2align	4, , 16
.LBB1_2:                                # =>This Inner Loop Header: Depth=1
	ld.d	$a0, $s4, 0
	pcaddu18i	$ra, %call36(strlen)
	jirl	$ra, $ra, 0
	addi.w	$a0, $a0, 0
	slt	$a1, $a0, $s1
	masknez	$a0, $a0, $a1
	maskeqz	$a1, $s1, $a1
	or	$s1, $a1, $a0
	addi.d	$fp, $fp, -1
	addi.d	$s4, $s4, 16
	bnez	$fp, .LBB1_2
	b	.LBB1_4
.LBB1_3:
	ori	$s1, $zero, 12
.LBB1_4:                                # %._crit_edge
	addi.w	$a1, $s1, -12
	pcalau12i	$a0, %pc_hi20(.L.str.1)
	addi.d	$a0, $a0, %pc_lo12(.L.str.1)
	pcalau12i	$a2, %pc_hi20(.L.str.2)
	addi.d	$s4, $a2, %pc_lo12(.L.str.2)
	move	$a2, $s4
	pcaddu18i	$ra, %call36(printf)
	jirl	$ra, $ra, 0
	pcalau12i	$a0, %pc_hi20(.L.str.3)
	addi.d	$a0, $a0, %pc_lo12(.L.str.3)
	move	$a1, $s1
	move	$a2, $s4
	pcaddu18i	$ra, %call36(printf)
	jirl	$ra, $ra, 0
	ld.w	$a0, $s6, %pc_lo12(current_test)
	movgr2fr.d	$fs0, $zero
	blez	$a0, .LBB1_10
# %bb.5:                                # %.lr.ph45.preheader
	st.d	$s0, $sp, 8                     # 8-byte Folded Spill
	st.d	$s5, $sp, 16                    # 8-byte Folded Spill
	movgr2fr.w	$fa0, $s3
	movgr2fr.w	$fa1, $s2
	pcalau12i	$a0, %pc_hi20(.LCPI1_0)
	fld.d	$fa2, $a0, %pc_lo12(.LCPI1_0)
	ffint.d.w	$fa0, $fa0
	ffint.d.w	$fa1, $fa1
	fmul.d	$fa0, $fa0, $fa1
	fdiv.d	$fs1, $fa0, $fa2
	pcalau12i	$a0, %pc_hi20(.L.str.4)
	addi.d	$s2, $a0, %pc_lo12(.L.str.4)
	pcalau12i	$a0, %pc_hi20(.L.str.5)
	addi.d	$s3, $a0, %pc_lo12(.L.str.5)
	move	$s8, $zero
	move	$s4, $zero
	move	$fp, $zero
	.p2align	4, , 16
.LBB1_6:                                # %.lr.ph45
                                        # =>This Inner Loop Header: Depth=1
	ld.d	$s0, $s7, %pc_lo12(results)
	add.d	$a0, $s0, $s8
	ld.d	$s5, $a0, 8
	move	$a0, $s5
	pcaddu18i	$ra, %call36(strlen)
	jirl	$ra, $ra, 0
	fldx.d	$fa0, $s0, $s8
	fld.d	$fa1, $s0, 0
	sub.w	$a2, $s1, $a0
	fdiv.d	$fa2, $fs1, $fa0
	fdiv.d	$fa1, $fa0, $fa1
	movfr2gr.d	$a5, $fa0
	movfr2gr.d	$a6, $fa2
	movfr2gr.d	$a7, $fa1
	move	$a0, $s2
	move	$a1, $s4
	move	$a3, $s3
	move	$a4, $s5
	pcaddu18i	$ra, %call36(printf)
	jirl	$ra, $ra, 0
	ld.w	$a0, $s6, %pc_lo12(current_test)
	addi.d	$fp, $fp, 1
	addi.w	$s4, $s4, 1
	addi.d	$s8, $s8, 16
	blt	$fp, $a0, .LBB1_6
# %bb.7:                                # %.preheader39
	ld.d	$s5, $sp, 16                    # 8-byte Folded Reload
	ld.d	$s0, $sp, 8                     # 8-byte Folded Reload
	blez	$a0, .LBB1_10
# %bb.8:                                # %.lr.ph49
	ld.d	$a1, $s7, %pc_lo12(results)
	movgr2fr.d	$fs0, $zero
	.p2align	4, , 16
.LBB1_9:                                # =>This Inner Loop Header: Depth=1
	fld.d	$fa0, $a1, 0
	fadd.d	$fs0, $fs0, $fa0
	addi.d	$a0, $a0, -1
	addi.d	$a1, $a1, 16
	bnez	$a0, .LBB1_9
.LBB1_10:                               # %._crit_edge50
	movfr2gr.d	$a2, $fs0
	pcalau12i	$a0, %pc_hi20(.L.str.6)
	addi.d	$a0, $a0, %pc_lo12(.L.str.6)
	move	$a1, $s5
	pcaddu18i	$ra, %call36(printf)
	jirl	$ra, $ra, 0
	beqz	$s0, .LBB1_15
# %bb.11:                               # %._crit_edge50
	ld.w	$a0, $s6, %pc_lo12(current_test)
	ori	$a1, $zero, 2
	blt	$a0, $a1, .LBB1_15
# %bb.12:                               # %.lr.ph54
	ld.d	$a0, $s7, %pc_lo12(results)
	fld.d	$fs1, $a0, 0
	addi.d	$fp, $a0, 16
	movgr2fr.d	$fs0, $zero
	ori	$s0, $zero, 1
	.p2align	4, , 16
.LBB1_13:                               # =>This Inner Loop Header: Depth=1
	fld.d	$fa0, $fp, 0
	fdiv.d	$fa0, $fa0, $fs1
	pcaddu18i	$ra, %call36(log)
	jirl	$ra, $ra, 0
	ld.w	$a0, $s6, %pc_lo12(current_test)
	fadd.d	$fs0, $fs0, $fa0
	addi.d	$s0, $s0, 1
	addi.d	$fp, $fp, 16
	blt	$s0, $a0, .LBB1_13
# %bb.14:                               # %._crit_edge55
	addi.d	$a0, $a0, -1
	movgr2fr.w	$fa0, $a0
	ffint.d.w	$fa0, $fa0
	fdiv.d	$fa0, $fs0, $fa0
	pcaddu18i	$ra, %call36(exp)
	jirl	$ra, $ra, 0
	movfr2gr.d	$a2, $fa0
	pcalau12i	$a0, %pc_hi20(.L.str.7)
	addi.d	$a0, $a0, %pc_lo12(.L.str.7)
	move	$a1, $s5
	pcaddu18i	$ra, %call36(printf)
	jirl	$ra, $ra, 0
.LBB1_15:
	st.w	$zero, $s6, %pc_lo12(current_test)
	fld.d	$fs1, $sp, 24                   # 8-byte Folded Reload
	fld.d	$fs0, $sp, 32                   # 8-byte Folded Reload
	ld.d	$s8, $sp, 40                    # 8-byte Folded Reload
	ld.d	$s7, $sp, 48                    # 8-byte Folded Reload
	ld.d	$s6, $sp, 56                    # 8-byte Folded Reload
	ld.d	$s5, $sp, 64                    # 8-byte Folded Reload
	ld.d	$s4, $sp, 72                    # 8-byte Folded Reload
	ld.d	$s3, $sp, 80                    # 8-byte Folded Reload
	ld.d	$s2, $sp, 88                    # 8-byte Folded Reload
	ld.d	$s1, $sp, 96                    # 8-byte Folded Reload
	ld.d	$s0, $sp, 104                   # 8-byte Folded Reload
	ld.d	$fp, $sp, 112                   # 8-byte Folded Reload
	ld.d	$ra, $sp, 120                   # 8-byte Folded Reload
	addi.d	$sp, $sp, 128
	ret
.Lfunc_end1:
	.size	_Z9summarizePKciiii, .Lfunc_end1-_Z9summarizePKciiii
                                        # -- End function
	.globl	_Z17summarize_simplefP8_IO_FILEPKc # -- Begin function _Z17summarize_simplefP8_IO_FILEPKc
	.p2align	5
	.type	_Z17summarize_simplefP8_IO_FILEPKc,@function
_Z17summarize_simplefP8_IO_FILEPKc:     # @_Z17summarize_simplefP8_IO_FILEPKc
# %bb.0:
	addi.d	$sp, $sp, -128
	st.d	$ra, $sp, 120                   # 8-byte Folded Spill
	st.d	$fp, $sp, 112                   # 8-byte Folded Spill
	st.d	$s0, $sp, 104                   # 8-byte Folded Spill
	st.d	$s1, $sp, 96                    # 8-byte Folded Spill
	st.d	$s2, $sp, 88                    # 8-byte Folded Spill
	st.d	$s3, $sp, 80                    # 8-byte Folded Spill
	st.d	$s4, $sp, 72                    # 8-byte Folded Spill
	st.d	$s5, $sp, 64                    # 8-byte Folded Spill
	st.d	$s6, $sp, 56                    # 8-byte Folded Spill
	st.d	$s7, $sp, 48                    # 8-byte Folded Spill
	st.d	$s8, $sp, 40                    # 8-byte Folded Spill
	fst.d	$fs0, $sp, 32                   # 8-byte Folded Spill
	pcalau12i	$s5, %pc_hi20(current_test)
	ld.w	$fp, $s5, %pc_lo12(current_test)
	move	$s0, $a1
	move	$s7, $a0
	pcalau12i	$s3, %pc_hi20(results)
	blez	$fp, .LBB2_3
# %bb.1:                                # %.lr.ph
	ld.d	$a0, $s3, %pc_lo12(results)
	addi.d	$s2, $a0, 8
	ori	$s1, $zero, 12
	.p2align	4, , 16
.LBB2_2:                                # =>This Inner Loop Header: Depth=1
	ld.d	$a0, $s2, 0
	pcaddu18i	$ra, %call36(strlen)
	jirl	$ra, $ra, 0
	addi.w	$a0, $a0, 0
	slt	$a1, $a0, $s1
	masknez	$a0, $a0, $a1
	maskeqz	$a1, $s1, $a1
	or	$s1, $a1, $a0
	addi.d	$fp, $fp, -1
	addi.d	$s2, $s2, 16
	bnez	$fp, .LBB2_2
	b	.LBB2_4
.LBB2_3:
	ori	$s1, $zero, 12
.LBB2_4:                                # %._crit_edge
	addi.w	$a2, $s1, -12
	pcalau12i	$a0, %pc_hi20(.L.str.8)
	addi.d	$a1, $a0, %pc_lo12(.L.str.8)
	pcalau12i	$a0, %pc_hi20(.L.str.2)
	addi.d	$s2, $a0, %pc_lo12(.L.str.2)
	move	$a0, $s7
	move	$a3, $s2
	pcaddu18i	$ra, %call36(fprintf)
	jirl	$ra, $ra, 0
	pcalau12i	$a0, %pc_hi20(.L.str.9)
	addi.d	$a1, $a0, %pc_lo12(.L.str.9)
	move	$a0, $s7
	move	$a2, $s1
	move	$a3, $s2
	pcaddu18i	$ra, %call36(fprintf)
	jirl	$ra, $ra, 0
	ld.w	$a0, $s5, %pc_lo12(current_test)
	movgr2fr.d	$fs0, $zero
	blez	$a0, .LBB2_10
# %bb.5:                                # %.lr.ph32.preheader
	st.d	$s0, $sp, 16                    # 8-byte Folded Spill
	pcalau12i	$a0, %pc_hi20(.L.str.10)
	addi.d	$a0, $a0, %pc_lo12(.L.str.10)
	st.d	$a0, $sp, 24                    # 8-byte Folded Spill
	pcalau12i	$a0, %pc_hi20(.L.str.5)
	addi.d	$s2, $a0, %pc_lo12(.L.str.5)
	move	$s8, $zero
	move	$s4, $zero
	move	$fp, $zero
	.p2align	4, , 16
.LBB2_6:                                # %.lr.ph32
                                        # =>This Inner Loop Header: Depth=1
	ld.d	$s6, $s3, %pc_lo12(results)
	add.d	$a0, $s6, $s8
	move	$s0, $s5
	ld.d	$s5, $a0, 8
	move	$a0, $s5
	pcaddu18i	$ra, %call36(strlen)
	jirl	$ra, $ra, 0
	ldx.d	$a6, $s6, $s8
	sub.w	$a3, $s1, $a0
	move	$a0, $s7
	ld.d	$a1, $sp, 24                    # 8-byte Folded Reload
	move	$a2, $s4
	move	$a4, $s2
	move	$a5, $s5
	move	$s5, $s0
	pcaddu18i	$ra, %call36(fprintf)
	jirl	$ra, $ra, 0
	ld.w	$a0, $s0, %pc_lo12(current_test)
	addi.d	$fp, $fp, 1
	addi.w	$s4, $s4, 1
	addi.d	$s8, $s8, 16
	blt	$fp, $a0, .LBB2_6
# %bb.7:                                # %.preheader
	ld.d	$s0, $sp, 16                    # 8-byte Folded Reload
	blez	$a0, .LBB2_10
# %bb.8:                                # %.lr.ph36
	ld.d	$a1, $s3, %pc_lo12(results)
	movgr2fr.d	$fs0, $zero
	.p2align	4, , 16
.LBB2_9:                                # =>This Inner Loop Header: Depth=1
	fld.d	$fa0, $a1, 0
	fadd.d	$fs0, $fs0, $fa0
	addi.d	$a0, $a0, -1
	addi.d	$a1, $a1, 16
	bnez	$a0, .LBB2_9
.LBB2_10:                               # %._crit_edge37
	movfr2gr.d	$a3, $fs0
	pcalau12i	$a0, %pc_hi20(.L.str.6)
	addi.d	$a1, $a0, %pc_lo12(.L.str.6)
	move	$a0, $s7
	move	$a2, $s0
	pcaddu18i	$ra, %call36(fprintf)
	jirl	$ra, $ra, 0
	st.w	$zero, $s5, %pc_lo12(current_test)
	fld.d	$fs0, $sp, 32                   # 8-byte Folded Reload
	ld.d	$s8, $sp, 40                    # 8-byte Folded Reload
	ld.d	$s7, $sp, 48                    # 8-byte Folded Reload
	ld.d	$s6, $sp, 56                    # 8-byte Folded Reload
	ld.d	$s5, $sp, 64                    # 8-byte Folded Reload
	ld.d	$s4, $sp, 72                    # 8-byte Folded Reload
	ld.d	$s3, $sp, 80                    # 8-byte Folded Reload
	ld.d	$s2, $sp, 88                    # 8-byte Folded Reload
	ld.d	$s1, $sp, 96                    # 8-byte Folded Reload
	ld.d	$s0, $sp, 104                   # 8-byte Folded Reload
	ld.d	$fp, $sp, 112                   # 8-byte Folded Reload
	ld.d	$ra, $sp, 120                   # 8-byte Folded Reload
	addi.d	$sp, $sp, 128
	ret
.Lfunc_end2:
	.size	_Z17summarize_simplefP8_IO_FILEPKc, .Lfunc_end2-_Z17summarize_simplefP8_IO_FILEPKc
                                        # -- End function
	.globl	_Z11start_timerv                # -- Begin function _Z11start_timerv
	.p2align	5
	.type	_Z11start_timerv,@function
_Z11start_timerv:                       # @_Z11start_timerv
# %bb.0:
	addi.d	$sp, $sp, -16
	st.d	$ra, $sp, 8                     # 8-byte Folded Spill
	pcaddu18i	$ra, %call36(clock)
	jirl	$ra, $ra, 0
	pcalau12i	$a1, %pc_hi20(start_time)
	st.d	$a0, $a1, %pc_lo12(start_time)
	ld.d	$ra, $sp, 8                     # 8-byte Folded Reload
	addi.d	$sp, $sp, 16
	ret
.Lfunc_end3:
	.size	_Z11start_timerv, .Lfunc_end3-_Z11start_timerv
                                        # -- End function
	.section	.rodata.cst8,"aM",@progbits,8
	.p2align	3, 0x0                          # -- Begin function _Z5timerv
.LCPI4_0:
	.dword	0x412e848000000000              # double 1.0E+6
	.text
	.globl	_Z5timerv
	.p2align	5
	.type	_Z5timerv,@function
_Z5timerv:                              # @_Z5timerv
# %bb.0:
	addi.d	$sp, $sp, -16
	st.d	$ra, $sp, 8                     # 8-byte Folded Spill
	pcaddu18i	$ra, %call36(clock)
	jirl	$ra, $ra, 0
	pcalau12i	$a1, %pc_hi20(start_time)
	ld.d	$a1, $a1, %pc_lo12(start_time)
	pcalau12i	$a2, %pc_hi20(end_time)
	pcalau12i	$a3, %pc_hi20(.LCPI4_0)
	fld.d	$fa0, $a3, %pc_lo12(.LCPI4_0)
	sub.d	$a1, $a0, $a1
	movgr2fr.d	$fa1, $a1
	ffint.d.l	$fa1, $fa1
	fdiv.d	$fa0, $fa1, $fa0
	st.d	$a0, $a2, %pc_lo12(end_time)
	ld.d	$ra, $sp, 8                     # 8-byte Folded Reload
	addi.d	$sp, $sp, 16
	ret
.Lfunc_end4:
	.size	_Z5timerv, .Lfunc_end4-_Z5timerv
                                        # -- End function
	.globl	main                            # -- Begin function main
	.p2align	5
	.type	main,@function
main:                                   # @main
	.cfi_startproc
# %bb.0:
	addi.d	$sp, $sp, -112
	.cfi_def_cfa_offset 112
	st.d	$ra, $sp, 104                   # 8-byte Folded Spill
	st.d	$fp, $sp, 96                    # 8-byte Folded Spill
	st.d	$s0, $sp, 88                    # 8-byte Folded Spill
	st.d	$s1, $sp, 80                    # 8-byte Folded Spill
	st.d	$s2, $sp, 72                    # 8-byte Folded Spill
	st.d	$s3, $sp, 64                    # 8-byte Folded Spill
	st.d	$s4, $sp, 56                    # 8-byte Folded Spill
	st.d	$s5, $sp, 48                    # 8-byte Folded Spill
	st.d	$s6, $sp, 40                    # 8-byte Folded Spill
	st.d	$s7, $sp, 32                    # 8-byte Folded Spill
	st.d	$s8, $sp, 24                    # 8-byte Folded Spill
	.cfi_offset 1, -8
	.cfi_offset 22, -16
	.cfi_offset 23, -24
	.cfi_offset 24, -32
	.cfi_offset 25, -40
	.cfi_offset 26, -48
	.cfi_offset 27, -56
	.cfi_offset 28, -64
	.cfi_offset 29, -72
	.cfi_offset 30, -80
	.cfi_offset 31, -88
	move	$s0, $a0
	ori	$s1, $zero, 2
	pcalau12i	$s8, %pc_hi20(iterations)
	pcalau12i	$a0, %pc_hi20(init_value)
	addi.d	$s2, $a0, %pc_lo12(init_value)
	blt	$s0, $s1, .LBB5_3
# %bb.1:
	move	$fp, $a1
	ld.d	$a0, $a1, 8
	ori	$a2, $zero, 10
	move	$a1, $zero
	pcaddu18i	$ra, %call36(__isoc23_strtol)
	jirl	$ra, $ra, 0
	st.w	$a0, $s8, %pc_lo12(iterations)
	beq	$s0, $s1, .LBB5_3
# %bb.2:
	ld.d	$a0, $fp, 16
	move	$a1, $zero
	pcaddu18i	$ra, %call36(strtod)
	jirl	$ra, $ra, 0
	fst.d	$fa0, $s2, 0
.LBB5_3:                                # %vector.ph
	st.d	$s2, $sp, 16                    # 8-byte Folded Spill
	fld.d	$fa0, $s2, 0
	ftintrz.w.d	$fa0, $fa0
	movfr2gr.s	$a0, $fa0
	vreplgr2vr.w	$vr0, $a0
	lu12i.w	$a0, -8
	ori	$a0, $a0, 768
	pcalau12i	$a1, %pc_hi20(data32)
	addi.d	$a1, $a1, %pc_lo12(data32)
	lu12i.w	$a3, 7
	ori	$a2, $a3, 3328
	ori	$a3, $a3, 3344
	.p2align	4, , 16
.LBB5_4:                                # %vector.body
                                        # =>This Inner Loop Header: Depth=1
	add.d	$a4, $a1, $a0
	vstx	$vr0, $a4, $a2
	addi.d	$a0, $a0, 32
	vstx	$vr0, $a4, $a3
	bnez	$a0, .LBB5_4
# %bb.5:                                # %_Z4fillIPiiEvT_S1_T0_.exit
	pcalau12i	$a0, %pc_hi20(data32)
	addi.d	$s7, $a0, %pc_lo12(data32)
	pcalau12i	$a0, %pc_hi20(.L.str.11)
	addi.d	$a1, $a0, %pc_lo12(.L.str.11)
	move	$a0, $s7
	pcaddu18i	$ra, %call36(_ZN14for_loop_testsILi25EiE7do_testEPKiPKc)
	jirl	$ra, $ra, 0
	pcalau12i	$a0, %pc_hi20(temp_string+2047)
	addi.d	$s5, $a0, %pc_lo12(temp_string+2047)
	addi.d	$fp, $s5, 453
	lu12i.w	$a0, 1
	ori	$s6, $a0, 3904
	move	$a0, $s7
	move	$a1, $s6
	move	$a2, $fp
	pcaddu18i	$ra, %call36(_Z27test_for_loop_unroll_factorILi26EiEvPKT0_iPKc)
	jirl	$ra, $ra, 0
	addi.d	$s0, $s5, 553
	move	$a0, $s7
	move	$a1, $s6
	move	$a2, $s0
	pcaddu18i	$ra, %call36(_Z27test_for_loop_unroll_factorILi27EiEvPKT0_iPKc)
	jirl	$ra, $ra, 0
	addi.d	$s1, $s5, 653
	move	$a0, $s7
	move	$a1, $s6
	move	$a2, $s1
	pcaddu18i	$ra, %call36(_Z27test_for_loop_unroll_factorILi28EiEvPKT0_iPKc)
	jirl	$ra, $ra, 0
	addi.d	$s2, $s5, 753
	move	$a0, $s7
	move	$a1, $s6
	move	$a2, $s2
	pcaddu18i	$ra, %call36(_Z27test_for_loop_unroll_factorILi29EiEvPKT0_iPKc)
	jirl	$ra, $ra, 0
	addi.d	$s3, $s5, 853
	move	$a0, $s7
	move	$a1, $s6
	move	$a2, $s3
	pcaddu18i	$ra, %call36(_Z27test_for_loop_unroll_factorILi30EiEvPKT0_iPKc)
	jirl	$ra, $ra, 0
	addi.d	$s4, $s5, 953
	move	$a0, $s7
	move	$a1, $s6
	move	$a2, $s4
	pcaddu18i	$ra, %call36(_Z27test_for_loop_unroll_factorILi31EiEvPKT0_iPKc)
	jirl	$ra, $ra, 0
	addi.d	$s5, $s5, 1053
	move	$a0, $s7
	move	$a1, $s6
	move	$a2, $s5
	pcaddu18i	$ra, %call36(_Z27test_for_loop_unroll_factorILi32EiEvPKT0_iPKc)
	jirl	$ra, $ra, 0
	pcalau12i	$a0, %pc_hi20(.L.str.12)
	addi.d	$a1, $a0, %pc_lo12(.L.str.12)
	move	$a0, $s7
	pcaddu18i	$ra, %call36(_ZN16while_loop_testsILi25EiE7do_testEPKiPKc)
	jirl	$ra, $ra, 0
	move	$a0, $s7
	move	$a1, $s6
	move	$a2, $fp
	pcaddu18i	$ra, %call36(_Z29test_while_loop_unroll_factorILi26EiEvPKT0_iPKc)
	jirl	$ra, $ra, 0
	move	$a0, $s7
	move	$a1, $s6
	move	$a2, $s0
	pcaddu18i	$ra, %call36(_Z29test_while_loop_unroll_factorILi27EiEvPKT0_iPKc)
	jirl	$ra, $ra, 0
	move	$a0, $s7
	move	$a1, $s6
	move	$a2, $s1
	pcaddu18i	$ra, %call36(_Z29test_while_loop_unroll_factorILi28EiEvPKT0_iPKc)
	jirl	$ra, $ra, 0
	move	$a0, $s7
	move	$a1, $s6
	move	$a2, $s2
	pcaddu18i	$ra, %call36(_Z29test_while_loop_unroll_factorILi29EiEvPKT0_iPKc)
	jirl	$ra, $ra, 0
	move	$a0, $s7
	move	$a1, $s6
	move	$a2, $s3
	pcaddu18i	$ra, %call36(_Z29test_while_loop_unroll_factorILi30EiEvPKT0_iPKc)
	jirl	$ra, $ra, 0
	move	$a0, $s7
	move	$a1, $s6
	move	$a2, $s4
	pcaddu18i	$ra, %call36(_Z29test_while_loop_unroll_factorILi31EiEvPKT0_iPKc)
	jirl	$ra, $ra, 0
	move	$a0, $s7
	move	$a1, $s6
	move	$a2, $s5
	pcaddu18i	$ra, %call36(_Z29test_while_loop_unroll_factorILi32EiEvPKT0_iPKc)
	jirl	$ra, $ra, 0
	pcalau12i	$a0, %pc_hi20(.L.str.13)
	addi.d	$a1, $a0, %pc_lo12(.L.str.13)
	move	$a0, $s7
	pcaddu18i	$ra, %call36(_ZN13do_loop_testsILi25EiE7do_testEPKiPKc)
	jirl	$ra, $ra, 0
	move	$a0, $s7
	move	$a1, $s6
	move	$a2, $fp
	pcaddu18i	$ra, %call36(_Z26test_do_loop_unroll_factorILi26EiEvPKT0_iPKc)
	jirl	$ra, $ra, 0
	move	$a0, $s7
	move	$a1, $s6
	move	$a2, $s0
	pcaddu18i	$ra, %call36(_Z26test_do_loop_unroll_factorILi27EiEvPKT0_iPKc)
	jirl	$ra, $ra, 0
	move	$a0, $s7
	move	$a1, $s6
	move	$a2, $s1
	pcaddu18i	$ra, %call36(_Z26test_do_loop_unroll_factorILi28EiEvPKT0_iPKc)
	jirl	$ra, $ra, 0
	move	$a0, $s7
	move	$a1, $s6
	move	$a2, $s2
	pcaddu18i	$ra, %call36(_Z26test_do_loop_unroll_factorILi29EiEvPKT0_iPKc)
	jirl	$ra, $ra, 0
	move	$a0, $s7
	move	$a1, $s6
	move	$a2, $s3
	pcaddu18i	$ra, %call36(_Z26test_do_loop_unroll_factorILi30EiEvPKT0_iPKc)
	jirl	$ra, $ra, 0
	move	$a0, $s7
	move	$a1, $s6
	move	$a2, $s4
	pcaddu18i	$ra, %call36(_Z26test_do_loop_unroll_factorILi31EiEvPKT0_iPKc)
	jirl	$ra, $ra, 0
	move	$a0, $s7
	move	$a1, $s6
	move	$a2, $s5
	pcaddu18i	$ra, %call36(_Z26test_do_loop_unroll_factorILi32EiEvPKT0_iPKc)
	jirl	$ra, $ra, 0
	pcalau12i	$a0, %pc_hi20(.L.str.14)
	addi.d	$a1, $a0, %pc_lo12(.L.str.14)
	move	$a0, $s7
	pcaddu18i	$ra, %call36(_ZN15goto_loop_testsILi25EiE7do_testEPKiPKc)
	jirl	$ra, $ra, 0
	move	$a0, $s7
	move	$a1, $s6
	move	$a2, $fp
	pcaddu18i	$ra, %call36(_Z28test_goto_loop_unroll_factorILi26EiEvPKT0_iPKc)
	jirl	$ra, $ra, 0
	move	$a0, $s7
	move	$a1, $s6
	move	$a2, $s0
	pcaddu18i	$ra, %call36(_Z28test_goto_loop_unroll_factorILi27EiEvPKT0_iPKc)
	jirl	$ra, $ra, 0
	move	$a0, $s7
	move	$a1, $s6
	move	$a2, $s1
	pcaddu18i	$ra, %call36(_Z28test_goto_loop_unroll_factorILi28EiEvPKT0_iPKc)
	jirl	$ra, $ra, 0
	move	$a0, $s7
	move	$a1, $s6
	move	$a2, $s2
	pcaddu18i	$ra, %call36(_Z28test_goto_loop_unroll_factorILi29EiEvPKT0_iPKc)
	jirl	$ra, $ra, 0
	move	$a0, $s7
	move	$a1, $s6
	move	$a2, $s3
	pcaddu18i	$ra, %call36(_Z28test_goto_loop_unroll_factorILi30EiEvPKT0_iPKc)
	jirl	$ra, $ra, 0
	move	$a0, $s7
	move	$a1, $s6
	move	$a2, $s4
	pcaddu18i	$ra, %call36(_Z28test_goto_loop_unroll_factorILi31EiEvPKT0_iPKc)
	jirl	$ra, $ra, 0
	move	$a0, $s7
	move	$a1, $s6
	move	$a2, $s5
	pcaddu18i	$ra, %call36(_Z28test_goto_loop_unroll_factorILi32EiEvPKT0_iPKc)
	jirl	$ra, $ra, 0
	ld.w	$a0, $s8, %pc_lo12(iterations)
	bstrpick.d	$a1, $a0, 62, 61
	add.w	$a0, $a0, $a1
	srli.d	$a0, $a0, 2
	st.w	$a0, $s8, %pc_lo12(iterations)
	pcalau12i	$a0, %pc_hi20(dataDouble+16)
	addi.d	$a0, $a0, %pc_lo12(dataDouble+16)
	ld.d	$a1, $sp, 16                    # 8-byte Folded Reload
	vldrepl.d	$vr0, $a1, 0
	.p2align	4, , 16
.LBB5_6:                                # %vector.body9
                                        # =>This Inner Loop Header: Depth=1
	vst	$vr0, $a0, -16
	vst	$vr0, $a0, 0
	addi.d	$s6, $s6, -4
	addi.d	$a0, $a0, 32
	bnez	$s6, .LBB5_6
# %bb.7:                                # %_Z4fillIPddEvT_S1_T0_.exit
	pcalau12i	$a0, %pc_hi20(dataDouble)
	addi.d	$s6, $a0, %pc_lo12(dataDouble)
	pcalau12i	$a0, %pc_hi20(.L.str.15)
	addi.d	$a1, $a0, %pc_lo12(.L.str.15)
	move	$a0, $s6
	pcaddu18i	$ra, %call36(_ZN14for_loop_testsILi25EdE7do_testEPKdPKc)
	jirl	$ra, $ra, 0
	lu12i.w	$a0, 1
	ori	$s7, $a0, 3904
	move	$a0, $s6
	move	$a1, $s7
	move	$a2, $fp
	pcaddu18i	$ra, %call36(_Z27test_for_loop_unroll_factorILi26EdEvPKT0_iPKc)
	jirl	$ra, $ra, 0
	move	$a0, $s6
	move	$a1, $s7
	move	$a2, $s0
	pcaddu18i	$ra, %call36(_Z27test_for_loop_unroll_factorILi27EdEvPKT0_iPKc)
	jirl	$ra, $ra, 0
	move	$a0, $s6
	move	$a1, $s7
	move	$a2, $s1
	pcaddu18i	$ra, %call36(_Z27test_for_loop_unroll_factorILi28EdEvPKT0_iPKc)
	jirl	$ra, $ra, 0
	move	$a0, $s6
	move	$a1, $s7
	move	$a2, $s2
	pcaddu18i	$ra, %call36(_Z27test_for_loop_unroll_factorILi29EdEvPKT0_iPKc)
	jirl	$ra, $ra, 0
	move	$a0, $s6
	move	$a1, $s7
	move	$a2, $s3
	pcaddu18i	$ra, %call36(_Z27test_for_loop_unroll_factorILi30EdEvPKT0_iPKc)
	jirl	$ra, $ra, 0
	move	$a0, $s6
	move	$a1, $s7
	move	$a2, $s4
	pcaddu18i	$ra, %call36(_Z27test_for_loop_unroll_factorILi31EdEvPKT0_iPKc)
	jirl	$ra, $ra, 0
	move	$a0, $s6
	move	$a1, $s7
	move	$a2, $s5
	pcaddu18i	$ra, %call36(_Z27test_for_loop_unroll_factorILi32EdEvPKT0_iPKc)
	jirl	$ra, $ra, 0
	pcalau12i	$a0, %pc_hi20(.L.str.16)
	addi.d	$a1, $a0, %pc_lo12(.L.str.16)
	move	$a0, $s6
	pcaddu18i	$ra, %call36(_ZN16while_loop_testsILi25EdE7do_testEPKdPKc)
	jirl	$ra, $ra, 0
	move	$a0, $s6
	move	$a1, $s7
	move	$a2, $fp
	pcaddu18i	$ra, %call36(_Z29test_while_loop_unroll_factorILi26EdEvPKT0_iPKc)
	jirl	$ra, $ra, 0
	move	$a0, $s6
	move	$a1, $s7
	move	$a2, $s0
	pcaddu18i	$ra, %call36(_Z29test_while_loop_unroll_factorILi27EdEvPKT0_iPKc)
	jirl	$ra, $ra, 0
	move	$a0, $s6
	move	$a1, $s7
	move	$a2, $s1
	pcaddu18i	$ra, %call36(_Z29test_while_loop_unroll_factorILi28EdEvPKT0_iPKc)
	jirl	$ra, $ra, 0
	move	$a0, $s6
	move	$a1, $s7
	move	$a2, $s2
	pcaddu18i	$ra, %call36(_Z29test_while_loop_unroll_factorILi29EdEvPKT0_iPKc)
	jirl	$ra, $ra, 0
	move	$a0, $s6
	move	$a1, $s7
	move	$a2, $s3
	pcaddu18i	$ra, %call36(_Z29test_while_loop_unroll_factorILi30EdEvPKT0_iPKc)
	jirl	$ra, $ra, 0
	move	$a0, $s6
	move	$a1, $s7
	move	$a2, $s4
	pcaddu18i	$ra, %call36(_Z29test_while_loop_unroll_factorILi31EdEvPKT0_iPKc)
	jirl	$ra, $ra, 0
	move	$a0, $s6
	move	$a1, $s7
	move	$a2, $s5
	pcaddu18i	$ra, %call36(_Z29test_while_loop_unroll_factorILi32EdEvPKT0_iPKc)
	jirl	$ra, $ra, 0
	pcalau12i	$a0, %pc_hi20(.L.str.17)
	addi.d	$a1, $a0, %pc_lo12(.L.str.17)
	move	$a0, $s6
	pcaddu18i	$ra, %call36(_ZN13do_loop_testsILi25EdE7do_testEPKdPKc)
	jirl	$ra, $ra, 0
	move	$a0, $s6
	move	$a1, $s7
	move	$a2, $fp
	pcaddu18i	$ra, %call36(_Z26test_do_loop_unroll_factorILi26EdEvPKT0_iPKc)
	jirl	$ra, $ra, 0
	move	$a0, $s6
	move	$a1, $s7
	move	$a2, $s0
	pcaddu18i	$ra, %call36(_Z26test_do_loop_unroll_factorILi27EdEvPKT0_iPKc)
	jirl	$ra, $ra, 0
	move	$a0, $s6
	move	$a1, $s7
	move	$a2, $s1
	pcaddu18i	$ra, %call36(_Z26test_do_loop_unroll_factorILi28EdEvPKT0_iPKc)
	jirl	$ra, $ra, 0
	move	$a0, $s6
	move	$a1, $s7
	move	$a2, $s2
	pcaddu18i	$ra, %call36(_Z26test_do_loop_unroll_factorILi29EdEvPKT0_iPKc)
	jirl	$ra, $ra, 0
	move	$a0, $s6
	move	$a1, $s7
	move	$a2, $s3
	pcaddu18i	$ra, %call36(_Z26test_do_loop_unroll_factorILi30EdEvPKT0_iPKc)
	jirl	$ra, $ra, 0
	move	$a0, $s6
	move	$a1, $s7
	move	$a2, $s4
	pcaddu18i	$ra, %call36(_Z26test_do_loop_unroll_factorILi31EdEvPKT0_iPKc)
	jirl	$ra, $ra, 0
	move	$a0, $s6
	move	$a1, $s7
	move	$a2, $s5
	pcaddu18i	$ra, %call36(_Z26test_do_loop_unroll_factorILi32EdEvPKT0_iPKc)
	jirl	$ra, $ra, 0
	pcalau12i	$a0, %pc_hi20(.L.str.18)
	addi.d	$a1, $a0, %pc_lo12(.L.str.18)
	move	$a0, $s6
	pcaddu18i	$ra, %call36(_ZN15goto_loop_testsILi25EdE7do_testEPKdPKc)
	jirl	$ra, $ra, 0
	move	$a0, $s6
	move	$a1, $s7
	move	$a2, $fp
	pcaddu18i	$ra, %call36(_Z28test_goto_loop_unroll_factorILi26EdEvPKT0_iPKc)
	jirl	$ra, $ra, 0
	move	$a0, $s6
	move	$a1, $s7
	move	$a2, $s0
	pcaddu18i	$ra, %call36(_Z28test_goto_loop_unroll_factorILi27EdEvPKT0_iPKc)
	jirl	$ra, $ra, 0
	move	$a0, $s6
	move	$a1, $s7
	move	$a2, $s1
	pcaddu18i	$ra, %call36(_Z28test_goto_loop_unroll_factorILi28EdEvPKT0_iPKc)
	jirl	$ra, $ra, 0
	move	$a0, $s6
	move	$a1, $s7
	move	$a2, $s2
	pcaddu18i	$ra, %call36(_Z28test_goto_loop_unroll_factorILi29EdEvPKT0_iPKc)
	jirl	$ra, $ra, 0
	move	$a0, $s6
	move	$a1, $s7
	move	$a2, $s3
	pcaddu18i	$ra, %call36(_Z28test_goto_loop_unroll_factorILi30EdEvPKT0_iPKc)
	jirl	$ra, $ra, 0
	move	$a0, $s6
	move	$a1, $s7
	move	$a2, $s4
	pcaddu18i	$ra, %call36(_Z28test_goto_loop_unroll_factorILi31EdEvPKT0_iPKc)
	jirl	$ra, $ra, 0
	move	$a0, $s6
	move	$a1, $s7
	move	$a2, $s5
	pcaddu18i	$ra, %call36(_Z28test_goto_loop_unroll_factorILi32EdEvPKT0_iPKc)
	jirl	$ra, $ra, 0
	move	$a0, $zero
	ld.d	$s8, $sp, 24                    # 8-byte Folded Reload
	ld.d	$s7, $sp, 32                    # 8-byte Folded Reload
	ld.d	$s6, $sp, 40                    # 8-byte Folded Reload
	ld.d	$s5, $sp, 48                    # 8-byte Folded Reload
	ld.d	$s4, $sp, 56                    # 8-byte Folded Reload
	ld.d	$s3, $sp, 64                    # 8-byte Folded Reload
	ld.d	$s2, $sp, 72                    # 8-byte Folded Reload
	ld.d	$s1, $sp, 80                    # 8-byte Folded Reload
	ld.d	$s0, $sp, 88                    # 8-byte Folded Reload
	ld.d	$fp, $sp, 96                    # 8-byte Folded Reload
	ld.d	$ra, $sp, 104                   # 8-byte Folded Reload
	addi.d	$sp, $sp, 112
	ret
.Lfunc_end5:
	.size	main, .Lfunc_end5-main
	.cfi_endproc
                                        # -- End function
	.section	.rodata.cst8,"aM",@progbits,8
	.p2align	3, 0x0                          # -- Begin function _Z27test_for_loop_unroll_factorILi32EiEvPKT0_iPKc
.LCPI6_0:
	.dword	0x412e848000000000              # double 1.0E+6
	.section	.text._Z27test_for_loop_unroll_factorILi32EiEvPKT0_iPKc,"axG",@progbits,_Z27test_for_loop_unroll_factorILi32EiEvPKT0_iPKc,comdat
	.weak	_Z27test_for_loop_unroll_factorILi32EiEvPKT0_iPKc
	.p2align	5
	.type	_Z27test_for_loop_unroll_factorILi32EiEvPKT0_iPKc,@function
_Z27test_for_loop_unroll_factorILi32EiEvPKT0_iPKc: # @_Z27test_for_loop_unroll_factorILi32EiEvPKT0_iPKc
	.cfi_startproc
# %bb.0:
	addi.d	$sp, $sp, -176
	.cfi_def_cfa_offset 176
	st.d	$ra, $sp, 168                   # 8-byte Folded Spill
	st.d	$fp, $sp, 160                   # 8-byte Folded Spill
	st.d	$s0, $sp, 152                   # 8-byte Folded Spill
	st.d	$s1, $sp, 144                   # 8-byte Folded Spill
	st.d	$s2, $sp, 136                   # 8-byte Folded Spill
	st.d	$s3, $sp, 128                   # 8-byte Folded Spill
	st.d	$s4, $sp, 120                   # 8-byte Folded Spill
	st.d	$s5, $sp, 112                   # 8-byte Folded Spill
	st.d	$s6, $sp, 104                   # 8-byte Folded Spill
	st.d	$s7, $sp, 96                    # 8-byte Folded Spill
	st.d	$s8, $sp, 88                    # 8-byte Folded Spill
	.cfi_offset 1, -8
	.cfi_offset 22, -16
	.cfi_offset 23, -24
	.cfi_offset 24, -32
	.cfi_offset 25, -40
	.cfi_offset 26, -48
	.cfi_offset 27, -56
	.cfi_offset 28, -64
	.cfi_offset 29, -72
	.cfi_offset 30, -80
	.cfi_offset 31, -88
	st.d	$a2, $sp, 16                    # 8-byte Folded Spill
	move	$s0, $a1
	st.d	$a0, $sp, 64                    # 8-byte Folded Spill
	pcaddu18i	$ra, %call36(clock)
	jirl	$ra, $ra, 0
	pcalau12i	$s4, %pc_hi20(iterations)
	ld.w	$a1, $s4, %pc_lo12(iterations)
	pcalau12i	$a2, %pc_hi20(start_time)
	st.d	$a2, $sp, 24                    # 8-byte Folded Spill
	st.d	$a0, $a2, %pc_lo12(start_time)
	pcalau12i	$a0, %pc_hi20(current_test)
	st.d	$a0, $sp, 80                    # 8-byte Folded Spill
	blez	$a1, .LBB6_17
# %bb.1:                                # %.preheader48.lr.ph
	move	$s5, $zero
	addi.w	$s6, $s0, -31
	bstrpick.d	$s7, $s0, 31, 0
	ld.d	$a0, $sp, 64                    # 8-byte Folded Reload
	addi.d	$a1, $a0, 64
	st.d	$a1, $sp, 72                    # 8-byte Folded Spill
	addi.d	$a0, $a0, 16
	st.d	$a0, $sp, 56                    # 8-byte Folded Spill
	ori	$t1, $zero, 32
	lu12i.w	$a0, 65881
	ori	$fp, $a0, 1957
	lu12i.w	$a0, -504557
	ori	$s1, $a0, 1792
	lu12i.w	$a0, -277912
	ori	$s2, $a0, 2488
	vrepli.b	$vr0, 0
	vst	$vr0, $sp, 32                   # 16-byte Folded Spill
	lu12i.w	$a0, -381906
	ori	$s3, $a0, 1088
	lu12i.w	$a0, -310021
	ori	$s8, $a0, 1536
	b	.LBB6_3
	.p2align	4, , 16
.LBB6_2:                                # %_Z9check_sumIiEvT_.exit
                                        #   in Loop: Header=BB6_3 Depth=1
	ld.w	$a0, $s4, %pc_lo12(iterations)
	addi.w	$s5, $s5, 1
	bge	$s5, $a0, .LBB6_17
.LBB6_3:                                # %.preheader48
                                        # =>This Loop Header: Depth=1
                                        #     Child Loop BB6_5 Depth 2
                                        #     Child Loop BB6_11 Depth 2
                                        #     Child Loop BB6_14 Depth 2
	blt	$s0, $t1, .LBB6_7
# %bb.4:                                # %.lr.ph.preheader
                                        #   in Loop: Header=BB6_3 Depth=1
	move	$a1, $zero
	move	$a2, $zero
	move	$a0, $zero
	ld.d	$a3, $sp, 72                    # 8-byte Folded Reload
	.p2align	4, , 16
.LBB6_5:                                # %.lr.ph
                                        #   Parent Loop BB6_3 Depth=1
                                        # =>  This Inner Loop Header: Depth=2
	ld.w	$a4, $a3, -64
	ld.w	$a5, $a3, -60
	ld.w	$a6, $a3, -56
	ld.w	$a7, $a3, -52
	ld.w	$t0, $a3, -48
	add.d	$a4, $a5, $a4
	ld.w	$a5, $a3, -44
	add.d	$a4, $a4, $a6
	ld.w	$a6, $a3, -40
	add.d	$a4, $a4, $a7
	ld.w	$a7, $a3, -36
	add.d	$a4, $a4, $t0
	ld.w	$t0, $a3, -32
	add.d	$a4, $a4, $a5
	ld.w	$a5, $a3, -28
	add.d	$a4, $a4, $a6
	ld.w	$a6, $a3, -24
	add.d	$a4, $a4, $a7
	ld.w	$a7, $a3, -20
	add.d	$a4, $a4, $t0
	ld.w	$t0, $a3, -16
	add.d	$a4, $a4, $a5
	ld.w	$a5, $a3, -12
	add.d	$a4, $a4, $a6
	ld.w	$a6, $a3, -8
	add.d	$a4, $a4, $a7
	ld.w	$a7, $a3, -4
	add.d	$a4, $a4, $t0
	ld.w	$t0, $a3, 0
	add.d	$a4, $a4, $a5
	ld.w	$a5, $a3, 4
	add.d	$a4, $a4, $a6
	ld.w	$a6, $a3, 8
	add.d	$a4, $a4, $a7
	ld.w	$a7, $a3, 12
	add.d	$a4, $a4, $t0
	ld.w	$t0, $a3, 16
	add.d	$a4, $a4, $a5
	ld.w	$a5, $a3, 20
	add.d	$a4, $a4, $a6
	ld.w	$a6, $a3, 24
	add.d	$a4, $a4, $a7
	ld.w	$a7, $a3, 28
	add.d	$a4, $a4, $t0
	ld.w	$t0, $a3, 32
	add.d	$a4, $a4, $a5
	ld.w	$a5, $a3, 36
	add.d	$a4, $a4, $a6
	ld.w	$a6, $a3, 40
	add.d	$a4, $a4, $a7
	ld.w	$a7, $a3, 44
	add.d	$a4, $a4, $t0
	ld.w	$t0, $a3, 48
	add.d	$a4, $a4, $a5
	ld.w	$a5, $a3, 52
	add.d	$a4, $a4, $a6
	ld.w	$a6, $a3, 56
	add.d	$a4, $a4, $a7
	ld.w	$a7, $a3, 60
	add.d	$a4, $a4, $t0
	add.d	$a4, $a4, $a5
	add.d	$a4, $a4, $a6
	add.d	$a4, $a4, $a7
	mul.d	$a4, $a4, $fp
	add.d	$a0, $a0, $a4
	add.d	$a0, $a0, $s1
	addi.d	$a2, $a2, 32
	addi.d	$a1, $a1, 32
	addi.d	$a3, $a3, 128
	blt	$a2, $s6, .LBB6_5
# %bb.6:                                # %.preheader
                                        #   in Loop: Header=BB6_3 Depth=1
	addi.w	$a2, $a1, 0
	blt	$a2, $s0, .LBB6_8
	b	.LBB6_15
	.p2align	4, , 16
.LBB6_7:                                #   in Loop: Header=BB6_3 Depth=1
	move	$a0, $zero
	move	$a1, $zero
	addi.w	$a2, $a1, 0
	bge	$a2, $s0, .LBB6_15
.LBB6_8:                                # %.lr.ph54.preheader
                                        #   in Loop: Header=BB6_3 Depth=1
	sub.d	$a3, $s7, $a1
	ori	$a2, $zero, 8
	bgeu	$a3, $a2, .LBB6_10
# %bb.9:                                #   in Loop: Header=BB6_3 Depth=1
	move	$a2, $a1
	b	.LBB6_13
	.p2align	4, , 16
.LBB6_10:                               # %vector.ph
                                        #   in Loop: Header=BB6_3 Depth=1
	move	$a4, $a3
	bstrins.d	$a4, $zero, 2, 0
	add.d	$a2, $a4, $a1
	vld	$vr1, $sp, 32                   # 16-byte Folded Reload
	vori.b	$vr0, $vr1, 0
	vinsgr2vr.w	$vr0, $a0, 0
	ld.d	$a0, $sp, 56                    # 8-byte Folded Reload
	alsl.d	$a0, $a1, $a0, 2
	move	$a1, $a4
	.p2align	4, , 16
.LBB6_11:                               # %vector.body
                                        #   Parent Loop BB6_3 Depth=1
                                        # =>  This Inner Loop Header: Depth=2
	vld	$vr2, $a0, -16
	vld	$vr3, $a0, 0
	vreplgr2vr.w	$vr4, $fp
	vmadd.w	$vr0, $vr2, $vr4
	vreplgr2vr.w	$vr2, $s2
	vmadd.w	$vr1, $vr3, $vr4
	vadd.w	$vr0, $vr0, $vr2
	vadd.w	$vr1, $vr1, $vr2
	addi.d	$a1, $a1, -8
	addi.d	$a0, $a0, 32
	bnez	$a1, .LBB6_11
# %bb.12:                               # %middle.block
                                        #   in Loop: Header=BB6_3 Depth=1
	vadd.w	$vr0, $vr1, $vr0
	vhaddw.d.w	$vr0, $vr0, $vr0
	vhaddw.q.d	$vr0, $vr0, $vr0
	vpickve2gr.d	$a0, $vr0, 0
	beq	$a3, $a4, .LBB6_15
.LBB6_13:                               # %.lr.ph54.preheader70
                                        #   in Loop: Header=BB6_3 Depth=1
	ld.d	$a1, $sp, 64                    # 8-byte Folded Reload
	alsl.d	$a1, $a2, $a1, 2
	sub.d	$a2, $s7, $a2
	.p2align	4, , 16
.LBB6_14:                               # %.lr.ph54
                                        #   Parent Loop BB6_3 Depth=1
                                        # =>  This Inner Loop Header: Depth=2
	ld.w	$a3, $a1, 0
	mul.d	$a3, $a3, $fp
	add.d	$a0, $a0, $a3
	add.d	$a0, $a0, $s2
	addi.d	$a2, $a2, -1
	addi.d	$a1, $a1, 4
	bnez	$a2, .LBB6_14
.LBB6_15:                               # %._crit_edge
                                        #   in Loop: Header=BB6_3 Depth=1
	pcalau12i	$a1, %pc_hi20(init_value)
	fld.d	$fa0, $a1, %pc_lo12(init_value)
	ftintrz.w.d	$fa0, $fa0
	movfr2gr.s	$a1, $fa0
	mul.d	$a1, $a1, $s3
	add.w	$a1, $a1, $s8
	addi.w	$a0, $a0, 0
	beq	$a0, $a1, .LBB6_2
# %bb.16:                               #   in Loop: Header=BB6_3 Depth=1
	ld.d	$a0, $sp, 80                    # 8-byte Folded Reload
	ld.w	$a1, $a0, %pc_lo12(current_test)
	pcalau12i	$a0, %pc_hi20(.L.str.19)
	addi.d	$a0, $a0, %pc_lo12(.L.str.19)
	pcaddu18i	$ra, %call36(printf)
	jirl	$ra, $ra, 0
	ori	$t1, $zero, 32
	b	.LBB6_2
.LBB6_17:                               # %._crit_edge57
	pcaddu18i	$ra, %call36(clock)
	jirl	$ra, $ra, 0
	ld.d	$a1, $sp, 24                    # 8-byte Folded Reload
	ld.d	$fp, $a1, %pc_lo12(start_time)
	pcalau12i	$s2, %pc_hi20(results)
	ld.d	$a2, $s2, %pc_lo12(results)
	pcalau12i	$s1, %pc_hi20(allocated_results)
	ld.w	$a1, $s1, %pc_lo12(allocated_results)
	move	$s0, $a0
	pcalau12i	$a0, %pc_hi20(end_time)
	st.d	$s0, $a0, %pc_lo12(end_time)
	ld.d	$s3, $sp, 80                    # 8-byte Folded Reload
	beqz	$a2, .LBB6_19
# %bb.18:                               # %._crit_edge57
	ld.w	$a0, $s3, %pc_lo12(current_test)
	blt	$a0, $a1, .LBB6_21
.LBB6_19:
	addi.w	$a0, $a1, 10
	st.w	$a0, $s1, %pc_lo12(allocated_results)
	slli.d	$a1, $a0, 4
	move	$a0, $a2
	pcaddu18i	$ra, %call36(realloc)
	jirl	$ra, $ra, 0
	st.d	$a0, $s2, %pc_lo12(results)
	beqz	$a0, .LBB6_22
# %bb.20:                               # %._crit_edge.i
	move	$a2, $a0
	ld.w	$a0, $s3, %pc_lo12(current_test)
.LBB6_21:                               # %_Z13record_resultdPKc.exit
	pcalau12i	$a1, %pc_hi20(.LCPI6_0)
	fld.d	$fa0, $a1, %pc_lo12(.LCPI6_0)
	sub.d	$a1, $s0, $fp
	movgr2fr.d	$fa1, $a1
	ffint.d.l	$fa1, $fa1
	fdiv.d	$fa0, $fa1, $fa0
	alsl.d	$a1, $a0, $a2, 4
	slli.d	$a3, $a0, 4
	fstx.d	$fa0, $a2, $a3
	ld.d	$a2, $sp, 16                    # 8-byte Folded Reload
	st.d	$a2, $a1, 8
	addi.d	$a0, $a0, 1
	st.w	$a0, $s3, %pc_lo12(current_test)
	ld.d	$s8, $sp, 88                    # 8-byte Folded Reload
	ld.d	$s7, $sp, 96                    # 8-byte Folded Reload
	ld.d	$s6, $sp, 104                   # 8-byte Folded Reload
	ld.d	$s5, $sp, 112                   # 8-byte Folded Reload
	ld.d	$s4, $sp, 120                   # 8-byte Folded Reload
	ld.d	$s3, $sp, 128                   # 8-byte Folded Reload
	ld.d	$s2, $sp, 136                   # 8-byte Folded Reload
	ld.d	$s1, $sp, 144                   # 8-byte Folded Reload
	ld.d	$s0, $sp, 152                   # 8-byte Folded Reload
	ld.d	$fp, $sp, 160                   # 8-byte Folded Reload
	ld.d	$ra, $sp, 168                   # 8-byte Folded Reload
	addi.d	$sp, $sp, 176
	ret
.LBB6_22:
	ld.w	$a1, $s1, %pc_lo12(allocated_results)
	pcalau12i	$a0, %pc_hi20(.L.str)
	addi.d	$a0, $a0, %pc_lo12(.L.str)
	pcaddu18i	$ra, %call36(printf)
	jirl	$ra, $ra, 0
	addi.w	$a0, $zero, -1
	pcaddu18i	$ra, %call36(exit)
	jirl	$ra, $ra, 0
.Lfunc_end6:
	.size	_Z27test_for_loop_unroll_factorILi32EiEvPKT0_iPKc, .Lfunc_end6-_Z27test_for_loop_unroll_factorILi32EiEvPKT0_iPKc
	.cfi_endproc
                                        # -- End function
	.section	.rodata.cst8,"aM",@progbits,8
	.p2align	3, 0x0                          # -- Begin function _Z27test_for_loop_unroll_factorILi31EiEvPKT0_iPKc
.LCPI7_0:
	.dword	0x412e848000000000              # double 1.0E+6
	.section	.text._Z27test_for_loop_unroll_factorILi31EiEvPKT0_iPKc,"axG",@progbits,_Z27test_for_loop_unroll_factorILi31EiEvPKT0_iPKc,comdat
	.weak	_Z27test_for_loop_unroll_factorILi31EiEvPKT0_iPKc
	.p2align	5
	.type	_Z27test_for_loop_unroll_factorILi31EiEvPKT0_iPKc,@function
_Z27test_for_loop_unroll_factorILi31EiEvPKT0_iPKc: # @_Z27test_for_loop_unroll_factorILi31EiEvPKT0_iPKc
	.cfi_startproc
# %bb.0:
	addi.d	$sp, $sp, -176
	.cfi_def_cfa_offset 176
	st.d	$ra, $sp, 168                   # 8-byte Folded Spill
	st.d	$fp, $sp, 160                   # 8-byte Folded Spill
	st.d	$s0, $sp, 152                   # 8-byte Folded Spill
	st.d	$s1, $sp, 144                   # 8-byte Folded Spill
	st.d	$s2, $sp, 136                   # 8-byte Folded Spill
	st.d	$s3, $sp, 128                   # 8-byte Folded Spill
	st.d	$s4, $sp, 120                   # 8-byte Folded Spill
	st.d	$s5, $sp, 112                   # 8-byte Folded Spill
	st.d	$s6, $sp, 104                   # 8-byte Folded Spill
	st.d	$s7, $sp, 96                    # 8-byte Folded Spill
	st.d	$s8, $sp, 88                    # 8-byte Folded Spill
	.cfi_offset 1, -8
	.cfi_offset 22, -16
	.cfi_offset 23, -24
	.cfi_offset 24, -32
	.cfi_offset 25, -40
	.cfi_offset 26, -48
	.cfi_offset 27, -56
	.cfi_offset 28, -64
	.cfi_offset 29, -72
	.cfi_offset 30, -80
	.cfi_offset 31, -88
	st.d	$a2, $sp, 16                    # 8-byte Folded Spill
	move	$s0, $a1
	st.d	$a0, $sp, 64                    # 8-byte Folded Spill
	pcaddu18i	$ra, %call36(clock)
	jirl	$ra, $ra, 0
	pcalau12i	$s4, %pc_hi20(iterations)
	ld.w	$a1, $s4, %pc_lo12(iterations)
	pcalau12i	$a2, %pc_hi20(start_time)
	st.d	$a2, $sp, 24                    # 8-byte Folded Spill
	st.d	$a0, $a2, %pc_lo12(start_time)
	pcalau12i	$a0, %pc_hi20(current_test)
	st.d	$a0, $sp, 80                    # 8-byte Folded Spill
	blez	$a1, .LBB7_17
# %bb.1:                                # %.preheader47.lr.ph
	move	$s5, $zero
	addi.w	$s6, $s0, -30
	bstrpick.d	$s7, $s0, 31, 0
	ld.d	$a0, $sp, 64                    # 8-byte Folded Reload
	addi.d	$a1, $a0, 60
	st.d	$a1, $sp, 72                    # 8-byte Folded Spill
	addi.d	$a0, $a0, 16
	st.d	$a0, $sp, 56                    # 8-byte Folded Spill
	ori	$t1, $zero, 31
	lu12i.w	$a0, 65881
	ori	$fp, $a0, 1957
	lu12i.w	$a0, -226646
	ori	$s1, $a0, 3400
	lu12i.w	$a0, -277912
	ori	$s2, $a0, 2488
	vrepli.b	$vr0, 0
	vst	$vr0, $sp, 32                   # 16-byte Folded Spill
	lu12i.w	$a0, -381906
	ori	$s3, $a0, 1088
	lu12i.w	$a0, -310021
	ori	$s8, $a0, 1536
	b	.LBB7_3
	.p2align	4, , 16
.LBB7_2:                                # %_Z9check_sumIiEvT_.exit
                                        #   in Loop: Header=BB7_3 Depth=1
	ld.w	$a0, $s4, %pc_lo12(iterations)
	addi.w	$s5, $s5, 1
	bge	$s5, $a0, .LBB7_17
.LBB7_3:                                # %.preheader47
                                        # =>This Loop Header: Depth=1
                                        #     Child Loop BB7_5 Depth 2
                                        #     Child Loop BB7_11 Depth 2
                                        #     Child Loop BB7_14 Depth 2
	blt	$s0, $t1, .LBB7_7
# %bb.4:                                # %.lr.ph.preheader
                                        #   in Loop: Header=BB7_3 Depth=1
	move	$a1, $zero
	move	$a2, $zero
	move	$a0, $zero
	ld.d	$a3, $sp, 72                    # 8-byte Folded Reload
	.p2align	4, , 16
.LBB7_5:                                # %.lr.ph
                                        #   Parent Loop BB7_3 Depth=1
                                        # =>  This Inner Loop Header: Depth=2
	ld.w	$a4, $a3, -60
	ld.w	$a5, $a3, -56
	ld.w	$a6, $a3, -52
	ld.w	$a7, $a3, -48
	ld.w	$t0, $a3, -44
	add.d	$a4, $a5, $a4
	ld.w	$a5, $a3, -40
	add.d	$a4, $a4, $a6
	ld.w	$a6, $a3, -36
	add.d	$a4, $a4, $a7
	ld.w	$a7, $a3, -32
	add.d	$a4, $a4, $t0
	ld.w	$t0, $a3, -28
	add.d	$a4, $a4, $a5
	ld.w	$a5, $a3, -24
	add.d	$a4, $a4, $a6
	ld.w	$a6, $a3, -20
	add.d	$a4, $a4, $a7
	ld.w	$a7, $a3, -16
	add.d	$a4, $a4, $t0
	ld.w	$t0, $a3, -12
	add.d	$a4, $a4, $a5
	ld.w	$a5, $a3, -8
	add.d	$a4, $a4, $a6
	ld.w	$a6, $a3, -4
	add.d	$a4, $a4, $a7
	ld.w	$a7, $a3, 0
	add.d	$a4, $a4, $t0
	ld.w	$t0, $a3, 4
	add.d	$a4, $a4, $a5
	ld.w	$a5, $a3, 8
	add.d	$a4, $a4, $a6
	ld.w	$a6, $a3, 12
	add.d	$a4, $a4, $a7
	ld.w	$a7, $a3, 16
	add.d	$a4, $a4, $t0
	ld.w	$t0, $a3, 20
	add.d	$a4, $a4, $a5
	ld.w	$a5, $a3, 24
	add.d	$a4, $a4, $a6
	ld.w	$a6, $a3, 28
	add.d	$a4, $a4, $a7
	ld.w	$a7, $a3, 32
	add.d	$a4, $a4, $t0
	ld.w	$t0, $a3, 36
	add.d	$a4, $a4, $a5
	ld.w	$a5, $a3, 40
	add.d	$a4, $a4, $a6
	ld.w	$a6, $a3, 44
	add.d	$a4, $a4, $a7
	ld.w	$a7, $a3, 48
	add.d	$a4, $a4, $t0
	ld.w	$t0, $a3, 52
	add.d	$a4, $a4, $a5
	ld.w	$a5, $a3, 56
	add.d	$a4, $a4, $a6
	ld.w	$a6, $a3, 60
	add.d	$a4, $a4, $a7
	add.d	$a4, $a4, $t0
	add.d	$a4, $a4, $a5
	add.d	$a4, $a4, $a6
	mul.d	$a4, $a4, $fp
	add.d	$a0, $a0, $a4
	add.d	$a0, $a0, $s1
	addi.d	$a2, $a2, 31
	addi.d	$a1, $a1, 31
	addi.d	$a3, $a3, 124
	blt	$a2, $s6, .LBB7_5
# %bb.6:                                # %.preheader
                                        #   in Loop: Header=BB7_3 Depth=1
	addi.w	$a2, $a1, 0
	blt	$a2, $s0, .LBB7_8
	b	.LBB7_15
	.p2align	4, , 16
.LBB7_7:                                #   in Loop: Header=BB7_3 Depth=1
	move	$a0, $zero
	move	$a1, $zero
	addi.w	$a2, $a1, 0
	bge	$a2, $s0, .LBB7_15
.LBB7_8:                                # %.lr.ph53.preheader
                                        #   in Loop: Header=BB7_3 Depth=1
	sub.d	$a3, $s7, $a1
	ori	$a2, $zero, 8
	bgeu	$a3, $a2, .LBB7_10
# %bb.9:                                #   in Loop: Header=BB7_3 Depth=1
	move	$a2, $a1
	b	.LBB7_13
	.p2align	4, , 16
.LBB7_10:                               # %vector.ph
                                        #   in Loop: Header=BB7_3 Depth=1
	move	$a4, $a3
	bstrins.d	$a4, $zero, 2, 0
	add.d	$a2, $a4, $a1
	vld	$vr1, $sp, 32                   # 16-byte Folded Reload
	vori.b	$vr0, $vr1, 0
	vinsgr2vr.w	$vr0, $a0, 0
	ld.d	$a0, $sp, 56                    # 8-byte Folded Reload
	alsl.d	$a0, $a1, $a0, 2
	move	$a1, $a4
	.p2align	4, , 16
.LBB7_11:                               # %vector.body
                                        #   Parent Loop BB7_3 Depth=1
                                        # =>  This Inner Loop Header: Depth=2
	vld	$vr2, $a0, -16
	vld	$vr3, $a0, 0
	vreplgr2vr.w	$vr4, $fp
	vmadd.w	$vr0, $vr2, $vr4
	vreplgr2vr.w	$vr2, $s2
	vmadd.w	$vr1, $vr3, $vr4
	vadd.w	$vr0, $vr0, $vr2
	vadd.w	$vr1, $vr1, $vr2
	addi.d	$a1, $a1, -8
	addi.d	$a0, $a0, 32
	bnez	$a1, .LBB7_11
# %bb.12:                               # %middle.block
                                        #   in Loop: Header=BB7_3 Depth=1
	vadd.w	$vr0, $vr1, $vr0
	vhaddw.d.w	$vr0, $vr0, $vr0
	vhaddw.q.d	$vr0, $vr0, $vr0
	vpickve2gr.d	$a0, $vr0, 0
	beq	$a3, $a4, .LBB7_15
.LBB7_13:                               # %.lr.ph53.preheader69
                                        #   in Loop: Header=BB7_3 Depth=1
	ld.d	$a1, $sp, 64                    # 8-byte Folded Reload
	alsl.d	$a1, $a2, $a1, 2
	sub.d	$a2, $s7, $a2
	.p2align	4, , 16
.LBB7_14:                               # %.lr.ph53
                                        #   Parent Loop BB7_3 Depth=1
                                        # =>  This Inner Loop Header: Depth=2
	ld.w	$a3, $a1, 0
	mul.d	$a3, $a3, $fp
	add.d	$a0, $a0, $a3
	add.d	$a0, $a0, $s2
	addi.d	$a2, $a2, -1
	addi.d	$a1, $a1, 4
	bnez	$a2, .LBB7_14
.LBB7_15:                               # %._crit_edge
                                        #   in Loop: Header=BB7_3 Depth=1
	pcalau12i	$a1, %pc_hi20(init_value)
	fld.d	$fa0, $a1, %pc_lo12(init_value)
	ftintrz.w.d	$fa0, $fa0
	movfr2gr.s	$a1, $fa0
	mul.d	$a1, $a1, $s3
	add.w	$a1, $a1, $s8
	addi.w	$a0, $a0, 0
	beq	$a0, $a1, .LBB7_2
# %bb.16:                               #   in Loop: Header=BB7_3 Depth=1
	ld.d	$a0, $sp, 80                    # 8-byte Folded Reload
	ld.w	$a1, $a0, %pc_lo12(current_test)
	pcalau12i	$a0, %pc_hi20(.L.str.19)
	addi.d	$a0, $a0, %pc_lo12(.L.str.19)
	pcaddu18i	$ra, %call36(printf)
	jirl	$ra, $ra, 0
	ori	$t1, $zero, 31
	b	.LBB7_2
.LBB7_17:                               # %._crit_edge56
	pcaddu18i	$ra, %call36(clock)
	jirl	$ra, $ra, 0
	ld.d	$a1, $sp, 24                    # 8-byte Folded Reload
	ld.d	$fp, $a1, %pc_lo12(start_time)
	pcalau12i	$s2, %pc_hi20(results)
	ld.d	$a2, $s2, %pc_lo12(results)
	pcalau12i	$s1, %pc_hi20(allocated_results)
	ld.w	$a1, $s1, %pc_lo12(allocated_results)
	move	$s0, $a0
	pcalau12i	$a0, %pc_hi20(end_time)
	st.d	$s0, $a0, %pc_lo12(end_time)
	ld.d	$s3, $sp, 80                    # 8-byte Folded Reload
	beqz	$a2, .LBB7_19
# %bb.18:                               # %._crit_edge56
	ld.w	$a0, $s3, %pc_lo12(current_test)
	blt	$a0, $a1, .LBB7_21
.LBB7_19:
	addi.w	$a0, $a1, 10
	st.w	$a0, $s1, %pc_lo12(allocated_results)
	slli.d	$a1, $a0, 4
	move	$a0, $a2
	pcaddu18i	$ra, %call36(realloc)
	jirl	$ra, $ra, 0
	st.d	$a0, $s2, %pc_lo12(results)
	beqz	$a0, .LBB7_22
# %bb.20:                               # %._crit_edge.i
	move	$a2, $a0
	ld.w	$a0, $s3, %pc_lo12(current_test)
.LBB7_21:                               # %_Z13record_resultdPKc.exit
	pcalau12i	$a1, %pc_hi20(.LCPI7_0)
	fld.d	$fa0, $a1, %pc_lo12(.LCPI7_0)
	sub.d	$a1, $s0, $fp
	movgr2fr.d	$fa1, $a1
	ffint.d.l	$fa1, $fa1
	fdiv.d	$fa0, $fa1, $fa0
	alsl.d	$a1, $a0, $a2, 4
	slli.d	$a3, $a0, 4
	fstx.d	$fa0, $a2, $a3
	ld.d	$a2, $sp, 16                    # 8-byte Folded Reload
	st.d	$a2, $a1, 8
	addi.d	$a0, $a0, 1
	st.w	$a0, $s3, %pc_lo12(current_test)
	ld.d	$s8, $sp, 88                    # 8-byte Folded Reload
	ld.d	$s7, $sp, 96                    # 8-byte Folded Reload
	ld.d	$s6, $sp, 104                   # 8-byte Folded Reload
	ld.d	$s5, $sp, 112                   # 8-byte Folded Reload
	ld.d	$s4, $sp, 120                   # 8-byte Folded Reload
	ld.d	$s3, $sp, 128                   # 8-byte Folded Reload
	ld.d	$s2, $sp, 136                   # 8-byte Folded Reload
	ld.d	$s1, $sp, 144                   # 8-byte Folded Reload
	ld.d	$s0, $sp, 152                   # 8-byte Folded Reload
	ld.d	$fp, $sp, 160                   # 8-byte Folded Reload
	ld.d	$ra, $sp, 168                   # 8-byte Folded Reload
	addi.d	$sp, $sp, 176
	ret
.LBB7_22:
	ld.w	$a1, $s1, %pc_lo12(allocated_results)
	pcalau12i	$a0, %pc_hi20(.L.str)
	addi.d	$a0, $a0, %pc_lo12(.L.str)
	pcaddu18i	$ra, %call36(printf)
	jirl	$ra, $ra, 0
	addi.w	$a0, $zero, -1
	pcaddu18i	$ra, %call36(exit)
	jirl	$ra, $ra, 0
.Lfunc_end7:
	.size	_Z27test_for_loop_unroll_factorILi31EiEvPKT0_iPKc, .Lfunc_end7-_Z27test_for_loop_unroll_factorILi31EiEvPKT0_iPKc
	.cfi_endproc
                                        # -- End function
	.section	.rodata.cst8,"aM",@progbits,8
	.p2align	3, 0x0                          # -- Begin function _Z27test_for_loop_unroll_factorILi30EiEvPKT0_iPKc
.LCPI8_0:
	.dword	0x412e848000000000              # double 1.0E+6
	.section	.text._Z27test_for_loop_unroll_factorILi30EiEvPKT0_iPKc,"axG",@progbits,_Z27test_for_loop_unroll_factorILi30EiEvPKT0_iPKc,comdat
	.weak	_Z27test_for_loop_unroll_factorILi30EiEvPKT0_iPKc
	.p2align	5
	.type	_Z27test_for_loop_unroll_factorILi30EiEvPKT0_iPKc,@function
_Z27test_for_loop_unroll_factorILi30EiEvPKT0_iPKc: # @_Z27test_for_loop_unroll_factorILi30EiEvPKT0_iPKc
	.cfi_startproc
# %bb.0:
	addi.d	$sp, $sp, -176
	.cfi_def_cfa_offset 176
	st.d	$ra, $sp, 168                   # 8-byte Folded Spill
	st.d	$fp, $sp, 160                   # 8-byte Folded Spill
	st.d	$s0, $sp, 152                   # 8-byte Folded Spill
	st.d	$s1, $sp, 144                   # 8-byte Folded Spill
	st.d	$s2, $sp, 136                   # 8-byte Folded Spill
	st.d	$s3, $sp, 128                   # 8-byte Folded Spill
	st.d	$s4, $sp, 120                   # 8-byte Folded Spill
	st.d	$s5, $sp, 112                   # 8-byte Folded Spill
	st.d	$s6, $sp, 104                   # 8-byte Folded Spill
	st.d	$s7, $sp, 96                    # 8-byte Folded Spill
	st.d	$s8, $sp, 88                    # 8-byte Folded Spill
	.cfi_offset 1, -8
	.cfi_offset 22, -16
	.cfi_offset 23, -24
	.cfi_offset 24, -32
	.cfi_offset 25, -40
	.cfi_offset 26, -48
	.cfi_offset 27, -56
	.cfi_offset 28, -64
	.cfi_offset 29, -72
	.cfi_offset 30, -80
	.cfi_offset 31, -88
	st.d	$a2, $sp, 16                    # 8-byte Folded Spill
	move	$s0, $a1
	st.d	$a0, $sp, 64                    # 8-byte Folded Spill
	pcaddu18i	$ra, %call36(clock)
	jirl	$ra, $ra, 0
	pcalau12i	$a1, %pc_hi20(iterations)
	st.d	$a1, $sp, 72                    # 8-byte Folded Spill
	ld.w	$a1, $a1, %pc_lo12(iterations)
	pcalau12i	$a2, %pc_hi20(start_time)
	st.d	$a2, $sp, 24                    # 8-byte Folded Spill
	st.d	$a0, $a2, %pc_lo12(start_time)
	pcalau12i	$a0, %pc_hi20(current_test)
	st.d	$a0, $sp, 80                    # 8-byte Folded Spill
	blez	$a1, .LBB8_17
# %bb.1:                                # %.preheader46.lr.ph
	move	$s5, $zero
	addi.w	$s6, $s0, -29
	bstrpick.d	$s7, $s0, 31, 0
	ld.d	$a0, $sp, 64                    # 8-byte Folded Reload
	addi.d	$s8, $a0, 60
	addi.d	$a0, $a0, 16
	st.d	$a0, $sp, 56                    # 8-byte Folded Spill
	ori	$t2, $zero, 30
	lu12i.w	$a0, 65881
	ori	$fp, $a0, 1957
	lu12i.w	$a0, 51266
	ori	$s1, $a0, 912
	lu12i.w	$a0, -277912
	ori	$s2, $a0, 2488
	vrepli.b	$vr0, 0
	vst	$vr0, $sp, 32                   # 16-byte Folded Spill
	lu12i.w	$a0, -381906
	ori	$s3, $a0, 1088
	lu12i.w	$a0, -310021
	ori	$s4, $a0, 1536
	b	.LBB8_3
	.p2align	4, , 16
.LBB8_2:                                # %_Z9check_sumIiEvT_.exit
                                        #   in Loop: Header=BB8_3 Depth=1
	addi.w	$s5, $s5, 1
	bge	$s5, $a1, .LBB8_17
.LBB8_3:                                # %.preheader46
                                        # =>This Loop Header: Depth=1
                                        #     Child Loop BB8_5 Depth 2
                                        #     Child Loop BB8_11 Depth 2
                                        #     Child Loop BB8_14 Depth 2
	blt	$s0, $t2, .LBB8_7
# %bb.4:                                # %.lr.ph.preheader
                                        #   in Loop: Header=BB8_3 Depth=1
	move	$a2, $zero
	move	$a3, $zero
	move	$a0, $zero
	move	$a4, $s8
	.p2align	4, , 16
.LBB8_5:                                # %.lr.ph
                                        #   Parent Loop BB8_3 Depth=1
                                        # =>  This Inner Loop Header: Depth=2
	ld.w	$a5, $a4, -60
	ld.w	$a6, $a4, -56
	ld.w	$a7, $a4, -52
	ld.w	$t0, $a4, -48
	ld.w	$t1, $a4, -44
	add.d	$a5, $a6, $a5
	ld.w	$a6, $a4, -40
	add.d	$a5, $a5, $a7
	ld.w	$a7, $a4, -36
	add.d	$a5, $a5, $t0
	ld.w	$t0, $a4, -32
	add.d	$a5, $a5, $t1
	ld.w	$t1, $a4, -28
	add.d	$a5, $a5, $a6
	ld.w	$a6, $a4, -24
	add.d	$a5, $a5, $a7
	ld.w	$a7, $a4, -20
	add.d	$a5, $a5, $t0
	ld.w	$t0, $a4, -16
	add.d	$a5, $a5, $t1
	ld.w	$t1, $a4, -12
	add.d	$a5, $a5, $a6
	ld.w	$a6, $a4, -8
	add.d	$a5, $a5, $a7
	ld.w	$a7, $a4, -4
	add.d	$a5, $a5, $t0
	ld.w	$t0, $a4, 0
	add.d	$a5, $a5, $t1
	ld.w	$t1, $a4, 4
	add.d	$a5, $a5, $a6
	ld.w	$a6, $a4, 8
	add.d	$a5, $a5, $a7
	ld.w	$a7, $a4, 12
	add.d	$a5, $a5, $t0
	ld.w	$t0, $a4, 16
	add.d	$a5, $a5, $t1
	ld.w	$t1, $a4, 20
	add.d	$a5, $a5, $a6
	ld.w	$a6, $a4, 24
	add.d	$a5, $a5, $a7
	ld.w	$a7, $a4, 28
	add.d	$a5, $a5, $t0
	ld.w	$t0, $a4, 32
	add.d	$a5, $a5, $t1
	ld.w	$t1, $a4, 36
	add.d	$a5, $a5, $a6
	ld.w	$a6, $a4, 40
	add.d	$a5, $a5, $a7
	ld.w	$a7, $a4, 44
	add.d	$a5, $a5, $t0
	ld.w	$t0, $a4, 48
	add.d	$a5, $a5, $t1
	ld.w	$t1, $a4, 52
	add.d	$a5, $a5, $a6
	ld.w	$a6, $a4, 56
	add.d	$a5, $a5, $a7
	add.d	$a5, $a5, $t0
	add.d	$a5, $a5, $t1
	add.d	$a5, $a5, $a6
	mul.d	$a5, $a5, $fp
	add.d	$a0, $a0, $a5
	add.d	$a0, $a0, $s1
	addi.d	$a3, $a3, 30
	addi.d	$a2, $a2, 30
	addi.d	$a4, $a4, 120
	blt	$a3, $s6, .LBB8_5
# %bb.6:                                # %.preheader
                                        #   in Loop: Header=BB8_3 Depth=1
	addi.w	$a3, $a2, 0
	blt	$a3, $s0, .LBB8_8
	b	.LBB8_15
	.p2align	4, , 16
.LBB8_7:                                #   in Loop: Header=BB8_3 Depth=1
	move	$a0, $zero
	move	$a2, $zero
	addi.w	$a3, $a2, 0
	bge	$a3, $s0, .LBB8_15
.LBB8_8:                                # %.lr.ph52.preheader
                                        #   in Loop: Header=BB8_3 Depth=1
	sub.d	$a4, $s7, $a2
	ori	$a3, $zero, 8
	bgeu	$a4, $a3, .LBB8_10
# %bb.9:                                #   in Loop: Header=BB8_3 Depth=1
	move	$a3, $a2
	b	.LBB8_13
	.p2align	4, , 16
.LBB8_10:                               # %vector.ph
                                        #   in Loop: Header=BB8_3 Depth=1
	move	$a5, $a4
	bstrins.d	$a5, $zero, 2, 0
	add.d	$a3, $a5, $a2
	vld	$vr1, $sp, 32                   # 16-byte Folded Reload
	vori.b	$vr0, $vr1, 0
	vinsgr2vr.w	$vr0, $a0, 0
	ld.d	$a0, $sp, 56                    # 8-byte Folded Reload
	alsl.d	$a0, $a2, $a0, 2
	move	$a2, $a5
	.p2align	4, , 16
.LBB8_11:                               # %vector.body
                                        #   Parent Loop BB8_3 Depth=1
                                        # =>  This Inner Loop Header: Depth=2
	vld	$vr2, $a0, -16
	vld	$vr3, $a0, 0
	vreplgr2vr.w	$vr4, $fp
	vmadd.w	$vr0, $vr2, $vr4
	vreplgr2vr.w	$vr2, $s2
	vmadd.w	$vr1, $vr3, $vr4
	vadd.w	$vr0, $vr0, $vr2
	vadd.w	$vr1, $vr1, $vr2
	addi.d	$a2, $a2, -8
	addi.d	$a0, $a0, 32
	bnez	$a2, .LBB8_11
# %bb.12:                               # %middle.block
                                        #   in Loop: Header=BB8_3 Depth=1
	vadd.w	$vr0, $vr1, $vr0
	vhaddw.d.w	$vr0, $vr0, $vr0
	vhaddw.q.d	$vr0, $vr0, $vr0
	vpickve2gr.d	$a0, $vr0, 0
	beq	$a4, $a5, .LBB8_15
.LBB8_13:                               # %.lr.ph52.preheader70
                                        #   in Loop: Header=BB8_3 Depth=1
	ld.d	$a2, $sp, 64                    # 8-byte Folded Reload
	alsl.d	$a2, $a3, $a2, 2
	sub.d	$a3, $s7, $a3
	.p2align	4, , 16
.LBB8_14:                               # %.lr.ph52
                                        #   Parent Loop BB8_3 Depth=1
                                        # =>  This Inner Loop Header: Depth=2
	ld.w	$a4, $a2, 0
	mul.d	$a4, $a4, $fp
	add.d	$a0, $a0, $a4
	add.d	$a0, $a0, $s2
	addi.d	$a3, $a3, -1
	addi.d	$a2, $a2, 4
	bnez	$a3, .LBB8_14
.LBB8_15:                               # %._crit_edge
                                        #   in Loop: Header=BB8_3 Depth=1
	pcalau12i	$a2, %pc_hi20(init_value)
	fld.d	$fa0, $a2, %pc_lo12(init_value)
	ftintrz.w.d	$fa0, $fa0
	movfr2gr.s	$a2, $fa0
	mul.d	$a2, $a2, $s3
	add.w	$a2, $a2, $s4
	addi.w	$a0, $a0, 0
	beq	$a0, $a2, .LBB8_2
# %bb.16:                               #   in Loop: Header=BB8_3 Depth=1
	ld.d	$a0, $sp, 80                    # 8-byte Folded Reload
	ld.w	$a1, $a0, %pc_lo12(current_test)
	pcalau12i	$a0, %pc_hi20(.L.str.19)
	addi.d	$a0, $a0, %pc_lo12(.L.str.19)
	pcaddu18i	$ra, %call36(printf)
	jirl	$ra, $ra, 0
	ori	$t2, $zero, 30
	ld.d	$a0, $sp, 72                    # 8-byte Folded Reload
	ld.w	$a1, $a0, %pc_lo12(iterations)
	b	.LBB8_2
.LBB8_17:                               # %._crit_edge55
	pcaddu18i	$ra, %call36(clock)
	jirl	$ra, $ra, 0
	ld.d	$a1, $sp, 24                    # 8-byte Folded Reload
	ld.d	$fp, $a1, %pc_lo12(start_time)
	pcalau12i	$s2, %pc_hi20(results)
	ld.d	$a2, $s2, %pc_lo12(results)
	pcalau12i	$s1, %pc_hi20(allocated_results)
	ld.w	$a1, $s1, %pc_lo12(allocated_results)
	move	$s0, $a0
	pcalau12i	$a0, %pc_hi20(end_time)
	st.d	$s0, $a0, %pc_lo12(end_time)
	ld.d	$s3, $sp, 80                    # 8-byte Folded Reload
	beqz	$a2, .LBB8_19
# %bb.18:                               # %._crit_edge55
	ld.w	$a0, $s3, %pc_lo12(current_test)
	blt	$a0, $a1, .LBB8_21
.LBB8_19:
	addi.w	$a0, $a1, 10
	st.w	$a0, $s1, %pc_lo12(allocated_results)
	slli.d	$a1, $a0, 4
	move	$a0, $a2
	pcaddu18i	$ra, %call36(realloc)
	jirl	$ra, $ra, 0
	st.d	$a0, $s2, %pc_lo12(results)
	beqz	$a0, .LBB8_22
# %bb.20:                               # %._crit_edge.i
	move	$a2, $a0
	ld.w	$a0, $s3, %pc_lo12(current_test)
.LBB8_21:                               # %_Z13record_resultdPKc.exit
	pcalau12i	$a1, %pc_hi20(.LCPI8_0)
	fld.d	$fa0, $a1, %pc_lo12(.LCPI8_0)
	sub.d	$a1, $s0, $fp
	movgr2fr.d	$fa1, $a1
	ffint.d.l	$fa1, $fa1
	fdiv.d	$fa0, $fa1, $fa0
	alsl.d	$a1, $a0, $a2, 4
	slli.d	$a3, $a0, 4
	fstx.d	$fa0, $a2, $a3
	ld.d	$a2, $sp, 16                    # 8-byte Folded Reload
	st.d	$a2, $a1, 8
	addi.d	$a0, $a0, 1
	st.w	$a0, $s3, %pc_lo12(current_test)
	ld.d	$s8, $sp, 88                    # 8-byte Folded Reload
	ld.d	$s7, $sp, 96                    # 8-byte Folded Reload
	ld.d	$s6, $sp, 104                   # 8-byte Folded Reload
	ld.d	$s5, $sp, 112                   # 8-byte Folded Reload
	ld.d	$s4, $sp, 120                   # 8-byte Folded Reload
	ld.d	$s3, $sp, 128                   # 8-byte Folded Reload
	ld.d	$s2, $sp, 136                   # 8-byte Folded Reload
	ld.d	$s1, $sp, 144                   # 8-byte Folded Reload
	ld.d	$s0, $sp, 152                   # 8-byte Folded Reload
	ld.d	$fp, $sp, 160                   # 8-byte Folded Reload
	ld.d	$ra, $sp, 168                   # 8-byte Folded Reload
	addi.d	$sp, $sp, 176
	ret
.LBB8_22:
	ld.w	$a1, $s1, %pc_lo12(allocated_results)
	pcalau12i	$a0, %pc_hi20(.L.str)
	addi.d	$a0, $a0, %pc_lo12(.L.str)
	pcaddu18i	$ra, %call36(printf)
	jirl	$ra, $ra, 0
	addi.w	$a0, $zero, -1
	pcaddu18i	$ra, %call36(exit)
	jirl	$ra, $ra, 0
.Lfunc_end8:
	.size	_Z27test_for_loop_unroll_factorILi30EiEvPKT0_iPKc, .Lfunc_end8-_Z27test_for_loop_unroll_factorILi30EiEvPKT0_iPKc
	.cfi_endproc
                                        # -- End function
	.section	.rodata.cst8,"aM",@progbits,8
	.p2align	3, 0x0                          # -- Begin function _Z27test_for_loop_unroll_factorILi29EiEvPKT0_iPKc
.LCPI9_0:
	.dword	0x412e848000000000              # double 1.0E+6
	.section	.text._Z27test_for_loop_unroll_factorILi29EiEvPKT0_iPKc,"axG",@progbits,_Z27test_for_loop_unroll_factorILi29EiEvPKT0_iPKc,comdat
	.weak	_Z27test_for_loop_unroll_factorILi29EiEvPKT0_iPKc
	.p2align	5
	.type	_Z27test_for_loop_unroll_factorILi29EiEvPKT0_iPKc,@function
_Z27test_for_loop_unroll_factorILi29EiEvPKT0_iPKc: # @_Z27test_for_loop_unroll_factorILi29EiEvPKT0_iPKc
	.cfi_startproc
# %bb.0:
	addi.d	$sp, $sp, -176
	.cfi_def_cfa_offset 176
	st.d	$ra, $sp, 168                   # 8-byte Folded Spill
	st.d	$fp, $sp, 160                   # 8-byte Folded Spill
	st.d	$s0, $sp, 152                   # 8-byte Folded Spill
	st.d	$s1, $sp, 144                   # 8-byte Folded Spill
	st.d	$s2, $sp, 136                   # 8-byte Folded Spill
	st.d	$s3, $sp, 128                   # 8-byte Folded Spill
	st.d	$s4, $sp, 120                   # 8-byte Folded Spill
	st.d	$s5, $sp, 112                   # 8-byte Folded Spill
	st.d	$s6, $sp, 104                   # 8-byte Folded Spill
	st.d	$s7, $sp, 96                    # 8-byte Folded Spill
	st.d	$s8, $sp, 88                    # 8-byte Folded Spill
	.cfi_offset 1, -8
	.cfi_offset 22, -16
	.cfi_offset 23, -24
	.cfi_offset 24, -32
	.cfi_offset 25, -40
	.cfi_offset 26, -48
	.cfi_offset 27, -56
	.cfi_offset 28, -64
	.cfi_offset 29, -72
	.cfi_offset 30, -80
	.cfi_offset 31, -88
	st.d	$a2, $sp, 16                    # 8-byte Folded Spill
	move	$s0, $a1
	st.d	$a0, $sp, 64                    # 8-byte Folded Spill
	pcaddu18i	$ra, %call36(clock)
	jirl	$ra, $ra, 0
	pcalau12i	$a1, %pc_hi20(iterations)
	st.d	$a1, $sp, 72                    # 8-byte Folded Spill
	ld.w	$a1, $a1, %pc_lo12(iterations)
	pcalau12i	$a2, %pc_hi20(start_time)
	st.d	$a2, $sp, 24                    # 8-byte Folded Spill
	st.d	$a0, $a2, %pc_lo12(start_time)
	pcalau12i	$a0, %pc_hi20(current_test)
	st.d	$a0, $sp, 80                    # 8-byte Folded Spill
	blez	$a1, .LBB9_17
# %bb.1:                                # %.preheader45.lr.ph
	move	$s5, $zero
	addi.w	$s6, $s0, -28
	bstrpick.d	$s7, $s0, 31, 0
	ld.d	$a0, $sp, 64                    # 8-byte Folded Reload
	addi.d	$s8, $a0, 56
	addi.d	$a0, $a0, 16
	st.d	$a0, $sp, 56                    # 8-byte Folded Spill
	ori	$t2, $zero, 29
	lu12i.w	$a0, 65881
	ori	$fp, $a0, 1957
	lu12i.w	$a0, 329177
	ori	$s1, $a0, 2520
	lu12i.w	$a0, -277912
	ori	$s2, $a0, 2488
	vrepli.b	$vr0, 0
	vst	$vr0, $sp, 32                   # 16-byte Folded Spill
	lu12i.w	$a0, -381906
	ori	$s3, $a0, 1088
	lu12i.w	$a0, -310021
	ori	$s4, $a0, 1536
	b	.LBB9_3
	.p2align	4, , 16
.LBB9_2:                                # %_Z9check_sumIiEvT_.exit
                                        #   in Loop: Header=BB9_3 Depth=1
	addi.w	$s5, $s5, 1
	bge	$s5, $a1, .LBB9_17
.LBB9_3:                                # %.preheader45
                                        # =>This Loop Header: Depth=1
                                        #     Child Loop BB9_5 Depth 2
                                        #     Child Loop BB9_11 Depth 2
                                        #     Child Loop BB9_14 Depth 2
	blt	$s0, $t2, .LBB9_7
# %bb.4:                                # %.lr.ph.preheader
                                        #   in Loop: Header=BB9_3 Depth=1
	move	$a2, $zero
	move	$a3, $zero
	move	$a0, $zero
	move	$a4, $s8
	.p2align	4, , 16
.LBB9_5:                                # %.lr.ph
                                        #   Parent Loop BB9_3 Depth=1
                                        # =>  This Inner Loop Header: Depth=2
	ld.w	$a5, $a4, -56
	ld.w	$a6, $a4, -52
	ld.w	$a7, $a4, -48
	ld.w	$t0, $a4, -44
	ld.w	$t1, $a4, -40
	add.d	$a5, $a6, $a5
	ld.w	$a6, $a4, -36
	add.d	$a5, $a5, $a7
	ld.w	$a7, $a4, -32
	add.d	$a5, $a5, $t0
	ld.w	$t0, $a4, -28
	add.d	$a5, $a5, $t1
	ld.w	$t1, $a4, -24
	add.d	$a5, $a5, $a6
	ld.w	$a6, $a4, -20
	add.d	$a5, $a5, $a7
	ld.w	$a7, $a4, -16
	add.d	$a5, $a5, $t0
	ld.w	$t0, $a4, -12
	add.d	$a5, $a5, $t1
	ld.w	$t1, $a4, -8
	add.d	$a5, $a5, $a6
	ld.w	$a6, $a4, -4
	add.d	$a5, $a5, $a7
	ld.w	$a7, $a4, 0
	add.d	$a5, $a5, $t0
	ld.w	$t0, $a4, 4
	add.d	$a5, $a5, $t1
	ld.w	$t1, $a4, 8
	add.d	$a5, $a5, $a6
	ld.w	$a6, $a4, 12
	add.d	$a5, $a5, $a7
	ld.w	$a7, $a4, 16
	add.d	$a5, $a5, $t0
	ld.w	$t0, $a4, 20
	add.d	$a5, $a5, $t1
	ld.w	$t1, $a4, 24
	add.d	$a5, $a5, $a6
	ld.w	$a6, $a4, 28
	add.d	$a5, $a5, $a7
	ld.w	$a7, $a4, 32
	add.d	$a5, $a5, $t0
	ld.w	$t0, $a4, 36
	add.d	$a5, $a5, $t1
	ld.w	$t1, $a4, 40
	add.d	$a5, $a5, $a6
	ld.w	$a6, $a4, 44
	add.d	$a5, $a5, $a7
	ld.w	$a7, $a4, 48
	add.d	$a5, $a5, $t0
	ld.w	$t0, $a4, 52
	add.d	$a5, $a5, $t1
	ld.w	$t1, $a4, 56
	add.d	$a5, $a5, $a6
	add.d	$a5, $a5, $a7
	add.d	$a5, $a5, $t0
	add.d	$a5, $a5, $t1
	mul.d	$a5, $a5, $fp
	add.d	$a0, $a0, $a5
	add.d	$a0, $a0, $s1
	addi.d	$a3, $a3, 29
	addi.d	$a2, $a2, 29
	addi.d	$a4, $a4, 116
	blt	$a3, $s6, .LBB9_5
# %bb.6:                                # %.preheader
                                        #   in Loop: Header=BB9_3 Depth=1
	addi.w	$a3, $a2, 0
	blt	$a3, $s0, .LBB9_8
	b	.LBB9_15
	.p2align	4, , 16
.LBB9_7:                                #   in Loop: Header=BB9_3 Depth=1
	move	$a0, $zero
	move	$a2, $zero
	addi.w	$a3, $a2, 0
	bge	$a3, $s0, .LBB9_15
.LBB9_8:                                # %.lr.ph51.preheader
                                        #   in Loop: Header=BB9_3 Depth=1
	sub.d	$a4, $s7, $a2
	ori	$a3, $zero, 8
	bgeu	$a4, $a3, .LBB9_10
# %bb.9:                                #   in Loop: Header=BB9_3 Depth=1
	move	$a3, $a2
	b	.LBB9_13
	.p2align	4, , 16
.LBB9_10:                               # %vector.ph
                                        #   in Loop: Header=BB9_3 Depth=1
	move	$a5, $a4
	bstrins.d	$a5, $zero, 2, 0
	add.d	$a3, $a5, $a2
	vld	$vr1, $sp, 32                   # 16-byte Folded Reload
	vori.b	$vr0, $vr1, 0
	vinsgr2vr.w	$vr0, $a0, 0
	ld.d	$a0, $sp, 56                    # 8-byte Folded Reload
	alsl.d	$a0, $a2, $a0, 2
	move	$a2, $a5
	.p2align	4, , 16
.LBB9_11:                               # %vector.body
                                        #   Parent Loop BB9_3 Depth=1
                                        # =>  This Inner Loop Header: Depth=2
	vld	$vr2, $a0, -16
	vld	$vr3, $a0, 0
	vreplgr2vr.w	$vr4, $fp
	vmadd.w	$vr0, $vr2, $vr4
	vreplgr2vr.w	$vr2, $s2
	vmadd.w	$vr1, $vr3, $vr4
	vadd.w	$vr0, $vr0, $vr2
	vadd.w	$vr1, $vr1, $vr2
	addi.d	$a2, $a2, -8
	addi.d	$a0, $a0, 32
	bnez	$a2, .LBB9_11
# %bb.12:                               # %middle.block
                                        #   in Loop: Header=BB9_3 Depth=1
	vadd.w	$vr0, $vr1, $vr0
	vhaddw.d.w	$vr0, $vr0, $vr0
	vhaddw.q.d	$vr0, $vr0, $vr0
	vpickve2gr.d	$a0, $vr0, 0
	beq	$a4, $a5, .LBB9_15
.LBB9_13:                               # %.lr.ph51.preheader69
                                        #   in Loop: Header=BB9_3 Depth=1
	ld.d	$a2, $sp, 64                    # 8-byte Folded Reload
	alsl.d	$a2, $a3, $a2, 2
	sub.d	$a3, $s7, $a3
	.p2align	4, , 16
.LBB9_14:                               # %.lr.ph51
                                        #   Parent Loop BB9_3 Depth=1
                                        # =>  This Inner Loop Header: Depth=2
	ld.w	$a4, $a2, 0
	mul.d	$a4, $a4, $fp
	add.d	$a0, $a0, $a4
	add.d	$a0, $a0, $s2
	addi.d	$a3, $a3, -1
	addi.d	$a2, $a2, 4
	bnez	$a3, .LBB9_14
.LBB9_15:                               # %._crit_edge
                                        #   in Loop: Header=BB9_3 Depth=1
	pcalau12i	$a2, %pc_hi20(init_value)
	fld.d	$fa0, $a2, %pc_lo12(init_value)
	ftintrz.w.d	$fa0, $fa0
	movfr2gr.s	$a2, $fa0
	mul.d	$a2, $a2, $s3
	add.w	$a2, $a2, $s4
	addi.w	$a0, $a0, 0
	beq	$a0, $a2, .LBB9_2
# %bb.16:                               #   in Loop: Header=BB9_3 Depth=1
	ld.d	$a0, $sp, 80                    # 8-byte Folded Reload
	ld.w	$a1, $a0, %pc_lo12(current_test)
	pcalau12i	$a0, %pc_hi20(.L.str.19)
	addi.d	$a0, $a0, %pc_lo12(.L.str.19)
	pcaddu18i	$ra, %call36(printf)
	jirl	$ra, $ra, 0
	ori	$t2, $zero, 29
	ld.d	$a0, $sp, 72                    # 8-byte Folded Reload
	ld.w	$a1, $a0, %pc_lo12(iterations)
	b	.LBB9_2
.LBB9_17:                               # %._crit_edge54
	pcaddu18i	$ra, %call36(clock)
	jirl	$ra, $ra, 0
	ld.d	$a1, $sp, 24                    # 8-byte Folded Reload
	ld.d	$fp, $a1, %pc_lo12(start_time)
	pcalau12i	$s2, %pc_hi20(results)
	ld.d	$a2, $s2, %pc_lo12(results)
	pcalau12i	$s1, %pc_hi20(allocated_results)
	ld.w	$a1, $s1, %pc_lo12(allocated_results)
	move	$s0, $a0
	pcalau12i	$a0, %pc_hi20(end_time)
	st.d	$s0, $a0, %pc_lo12(end_time)
	ld.d	$s3, $sp, 80                    # 8-byte Folded Reload
	beqz	$a2, .LBB9_19
# %bb.18:                               # %._crit_edge54
	ld.w	$a0, $s3, %pc_lo12(current_test)
	blt	$a0, $a1, .LBB9_21
.LBB9_19:
	addi.w	$a0, $a1, 10
	st.w	$a0, $s1, %pc_lo12(allocated_results)
	slli.d	$a1, $a0, 4
	move	$a0, $a2
	pcaddu18i	$ra, %call36(realloc)
	jirl	$ra, $ra, 0
	st.d	$a0, $s2, %pc_lo12(results)
	beqz	$a0, .LBB9_22
# %bb.20:                               # %._crit_edge.i
	move	$a2, $a0
	ld.w	$a0, $s3, %pc_lo12(current_test)
.LBB9_21:                               # %_Z13record_resultdPKc.exit
	pcalau12i	$a1, %pc_hi20(.LCPI9_0)
	fld.d	$fa0, $a1, %pc_lo12(.LCPI9_0)
	sub.d	$a1, $s0, $fp
	movgr2fr.d	$fa1, $a1
	ffint.d.l	$fa1, $fa1
	fdiv.d	$fa0, $fa1, $fa0
	alsl.d	$a1, $a0, $a2, 4
	slli.d	$a3, $a0, 4
	fstx.d	$fa0, $a2, $a3
	ld.d	$a2, $sp, 16                    # 8-byte Folded Reload
	st.d	$a2, $a1, 8
	addi.d	$a0, $a0, 1
	st.w	$a0, $s3, %pc_lo12(current_test)
	ld.d	$s8, $sp, 88                    # 8-byte Folded Reload
	ld.d	$s7, $sp, 96                    # 8-byte Folded Reload
	ld.d	$s6, $sp, 104                   # 8-byte Folded Reload
	ld.d	$s5, $sp, 112                   # 8-byte Folded Reload
	ld.d	$s4, $sp, 120                   # 8-byte Folded Reload
	ld.d	$s3, $sp, 128                   # 8-byte Folded Reload
	ld.d	$s2, $sp, 136                   # 8-byte Folded Reload
	ld.d	$s1, $sp, 144                   # 8-byte Folded Reload
	ld.d	$s0, $sp, 152                   # 8-byte Folded Reload
	ld.d	$fp, $sp, 160                   # 8-byte Folded Reload
	ld.d	$ra, $sp, 168                   # 8-byte Folded Reload
	addi.d	$sp, $sp, 176
	ret
.LBB9_22:
	ld.w	$a1, $s1, %pc_lo12(allocated_results)
	pcalau12i	$a0, %pc_hi20(.L.str)
	addi.d	$a0, $a0, %pc_lo12(.L.str)
	pcaddu18i	$ra, %call36(printf)
	jirl	$ra, $ra, 0
	addi.w	$a0, $zero, -1
	pcaddu18i	$ra, %call36(exit)
	jirl	$ra, $ra, 0
.Lfunc_end9:
	.size	_Z27test_for_loop_unroll_factorILi29EiEvPKT0_iPKc, .Lfunc_end9-_Z27test_for_loop_unroll_factorILi29EiEvPKT0_iPKc
	.cfi_endproc
                                        # -- End function
	.section	.rodata.cst8,"aM",@progbits,8
	.p2align	3, 0x0                          # -- Begin function _Z27test_for_loop_unroll_factorILi28EiEvPKT0_iPKc
.LCPI10_0:
	.dword	0x412e848000000000              # double 1.0E+6
	.section	.text._Z27test_for_loop_unroll_factorILi28EiEvPKT0_iPKc,"axG",@progbits,_Z27test_for_loop_unroll_factorILi28EiEvPKT0_iPKc,comdat
	.weak	_Z27test_for_loop_unroll_factorILi28EiEvPKT0_iPKc
	.p2align	5
	.type	_Z27test_for_loop_unroll_factorILi28EiEvPKT0_iPKc,@function
_Z27test_for_loop_unroll_factorILi28EiEvPKT0_iPKc: # @_Z27test_for_loop_unroll_factorILi28EiEvPKT0_iPKc
	.cfi_startproc
# %bb.0:
	addi.d	$sp, $sp, -176
	.cfi_def_cfa_offset 176
	st.d	$ra, $sp, 168                   # 8-byte Folded Spill
	st.d	$fp, $sp, 160                   # 8-byte Folded Spill
	st.d	$s0, $sp, 152                   # 8-byte Folded Spill
	st.d	$s1, $sp, 144                   # 8-byte Folded Spill
	st.d	$s2, $sp, 136                   # 8-byte Folded Spill
	st.d	$s3, $sp, 128                   # 8-byte Folded Spill
	st.d	$s4, $sp, 120                   # 8-byte Folded Spill
	st.d	$s5, $sp, 112                   # 8-byte Folded Spill
	st.d	$s6, $sp, 104                   # 8-byte Folded Spill
	st.d	$s7, $sp, 96                    # 8-byte Folded Spill
	st.d	$s8, $sp, 88                    # 8-byte Folded Spill
	.cfi_offset 1, -8
	.cfi_offset 22, -16
	.cfi_offset 23, -24
	.cfi_offset 24, -32
	.cfi_offset 25, -40
	.cfi_offset 26, -48
	.cfi_offset 27, -56
	.cfi_offset 28, -64
	.cfi_offset 29, -72
	.cfi_offset 30, -80
	.cfi_offset 31, -88
	st.d	$a2, $sp, 16                    # 8-byte Folded Spill
	move	$s0, $a1
	st.d	$a0, $sp, 64                    # 8-byte Folded Spill
	pcaddu18i	$ra, %call36(clock)
	jirl	$ra, $ra, 0
	pcalau12i	$a1, %pc_hi20(iterations)
	st.d	$a1, $sp, 72                    # 8-byte Folded Spill
	ld.w	$a1, $a1, %pc_lo12(iterations)
	pcalau12i	$a2, %pc_hi20(start_time)
	st.d	$a2, $sp, 24                    # 8-byte Folded Spill
	st.d	$a0, $a2, %pc_lo12(start_time)
	pcalau12i	$a0, %pc_hi20(current_test)
	st.d	$a0, $sp, 80                    # 8-byte Folded Spill
	blez	$a1, .LBB10_17
# %bb.1:                                # %.preheader44.lr.ph
	move	$s5, $zero
	addi.w	$s6, $s0, -27
	bstrpick.d	$s7, $s0, 31, 0
	ld.d	$a0, $sp, 64                    # 8-byte Folded Reload
	addi.d	$s8, $a0, 56
	addi.d	$a0, $a0, 16
	st.d	$a0, $sp, 56                    # 8-byte Folded Spill
	ori	$t2, $zero, 28
	lu12i.w	$a0, 65881
	ori	$fp, $a0, 1957
	lu12i.w	$a0, -441487
	ori	$s1, $a0, 32
	lu12i.w	$a0, -277912
	ori	$s2, $a0, 2488
	vrepli.b	$vr0, 0
	vst	$vr0, $sp, 32                   # 16-byte Folded Spill
	lu12i.w	$a0, -381906
	ori	$s3, $a0, 1088
	lu12i.w	$a0, -310021
	ori	$s4, $a0, 1536
	b	.LBB10_3
	.p2align	4, , 16
.LBB10_2:                               # %_Z9check_sumIiEvT_.exit
                                        #   in Loop: Header=BB10_3 Depth=1
	addi.w	$s5, $s5, 1
	bge	$s5, $a1, .LBB10_17
.LBB10_3:                               # %.preheader44
                                        # =>This Loop Header: Depth=1
                                        #     Child Loop BB10_5 Depth 2
                                        #     Child Loop BB10_11 Depth 2
                                        #     Child Loop BB10_14 Depth 2
	blt	$s0, $t2, .LBB10_7
# %bb.4:                                # %.lr.ph.preheader
                                        #   in Loop: Header=BB10_3 Depth=1
	move	$a2, $zero
	move	$a3, $zero
	move	$a0, $zero
	move	$a4, $s8
	.p2align	4, , 16
.LBB10_5:                               # %.lr.ph
                                        #   Parent Loop BB10_3 Depth=1
                                        # =>  This Inner Loop Header: Depth=2
	ld.w	$a5, $a4, -56
	ld.w	$a6, $a4, -52
	ld.w	$a7, $a4, -48
	ld.w	$t0, $a4, -44
	ld.w	$t1, $a4, -40
	add.d	$a5, $a6, $a5
	ld.w	$a6, $a4, -36
	add.d	$a5, $a5, $a7
	ld.w	$a7, $a4, -32
	add.d	$a5, $a5, $t0
	ld.w	$t0, $a4, -28
	add.d	$a5, $a5, $t1
	ld.w	$t1, $a4, -24
	add.d	$a5, $a5, $a6
	ld.w	$a6, $a4, -20
	add.d	$a5, $a5, $a7
	ld.w	$a7, $a4, -16
	add.d	$a5, $a5, $t0
	ld.w	$t0, $a4, -12
	add.d	$a5, $a5, $t1
	ld.w	$t1, $a4, -8
	add.d	$a5, $a5, $a6
	ld.w	$a6, $a4, -4
	add.d	$a5, $a5, $a7
	ld.w	$a7, $a4, 0
	add.d	$a5, $a5, $t0
	ld.w	$t0, $a4, 4
	add.d	$a5, $a5, $t1
	ld.w	$t1, $a4, 8
	add.d	$a5, $a5, $a6
	ld.w	$a6, $a4, 12
	add.d	$a5, $a5, $a7
	ld.w	$a7, $a4, 16
	add.d	$a5, $a5, $t0
	ld.w	$t0, $a4, 20
	add.d	$a5, $a5, $t1
	ld.w	$t1, $a4, 24
	add.d	$a5, $a5, $a6
	ld.w	$a6, $a4, 28
	add.d	$a5, $a5, $a7
	ld.w	$a7, $a4, 32
	add.d	$a5, $a5, $t0
	ld.w	$t0, $a4, 36
	add.d	$a5, $a5, $t1
	ld.w	$t1, $a4, 40
	add.d	$a5, $a5, $a6
	ld.w	$a6, $a4, 44
	add.d	$a5, $a5, $a7
	ld.w	$a7, $a4, 48
	add.d	$a5, $a5, $t0
	ld.w	$t0, $a4, 52
	add.d	$a5, $a5, $t1
	add.d	$a5, $a5, $a6
	add.d	$a5, $a5, $a7
	add.d	$a5, $a5, $t0
	mul.d	$a5, $a5, $fp
	add.d	$a0, $a0, $a5
	add.d	$a0, $a0, $s1
	addi.d	$a3, $a3, 28
	addi.d	$a2, $a2, 28
	addi.d	$a4, $a4, 112
	blt	$a3, $s6, .LBB10_5
# %bb.6:                                # %.preheader
                                        #   in Loop: Header=BB10_3 Depth=1
	addi.w	$a3, $a2, 0
	blt	$a3, $s0, .LBB10_8
	b	.LBB10_15
	.p2align	4, , 16
.LBB10_7:                               #   in Loop: Header=BB10_3 Depth=1
	move	$a0, $zero
	move	$a2, $zero
	addi.w	$a3, $a2, 0
	bge	$a3, $s0, .LBB10_15
.LBB10_8:                               # %.lr.ph50.preheader
                                        #   in Loop: Header=BB10_3 Depth=1
	sub.d	$a4, $s7, $a2
	ori	$a3, $zero, 8
	bgeu	$a4, $a3, .LBB10_10
# %bb.9:                                #   in Loop: Header=BB10_3 Depth=1
	move	$a3, $a2
	b	.LBB10_13
	.p2align	4, , 16
.LBB10_10:                              # %vector.ph
                                        #   in Loop: Header=BB10_3 Depth=1
	move	$a5, $a4
	bstrins.d	$a5, $zero, 2, 0
	add.d	$a3, $a5, $a2
	vld	$vr1, $sp, 32                   # 16-byte Folded Reload
	vori.b	$vr0, $vr1, 0
	vinsgr2vr.w	$vr0, $a0, 0
	ld.d	$a0, $sp, 56                    # 8-byte Folded Reload
	alsl.d	$a0, $a2, $a0, 2
	move	$a2, $a5
	.p2align	4, , 16
.LBB10_11:                              # %vector.body
                                        #   Parent Loop BB10_3 Depth=1
                                        # =>  This Inner Loop Header: Depth=2
	vld	$vr2, $a0, -16
	vld	$vr3, $a0, 0
	vreplgr2vr.w	$vr4, $fp
	vmadd.w	$vr0, $vr2, $vr4
	vreplgr2vr.w	$vr2, $s2
	vmadd.w	$vr1, $vr3, $vr4
	vadd.w	$vr0, $vr0, $vr2
	vadd.w	$vr1, $vr1, $vr2
	addi.d	$a2, $a2, -8
	addi.d	$a0, $a0, 32
	bnez	$a2, .LBB10_11
# %bb.12:                               # %middle.block
                                        #   in Loop: Header=BB10_3 Depth=1
	vadd.w	$vr0, $vr1, $vr0
	vhaddw.d.w	$vr0, $vr0, $vr0
	vhaddw.q.d	$vr0, $vr0, $vr0
	vpickve2gr.d	$a0, $vr0, 0
	beq	$a4, $a5, .LBB10_15
.LBB10_13:                              # %.lr.ph50.preheader68
                                        #   in Loop: Header=BB10_3 Depth=1
	ld.d	$a2, $sp, 64                    # 8-byte Folded Reload
	alsl.d	$a2, $a3, $a2, 2
	sub.d	$a3, $s7, $a3
	.p2align	4, , 16
.LBB10_14:                              # %.lr.ph50
                                        #   Parent Loop BB10_3 Depth=1
                                        # =>  This Inner Loop Header: Depth=2
	ld.w	$a4, $a2, 0
	mul.d	$a4, $a4, $fp
	add.d	$a0, $a0, $a4
	add.d	$a0, $a0, $s2
	addi.d	$a3, $a3, -1
	addi.d	$a2, $a2, 4
	bnez	$a3, .LBB10_14
.LBB10_15:                              # %._crit_edge
                                        #   in Loop: Header=BB10_3 Depth=1
	pcalau12i	$a2, %pc_hi20(init_value)
	fld.d	$fa0, $a2, %pc_lo12(init_value)
	ftintrz.w.d	$fa0, $fa0
	movfr2gr.s	$a2, $fa0
	mul.d	$a2, $a2, $s3
	add.w	$a2, $a2, $s4
	addi.w	$a0, $a0, 0
	beq	$a0, $a2, .LBB10_2
# %bb.16:                               #   in Loop: Header=BB10_3 Depth=1
	ld.d	$a0, $sp, 80                    # 8-byte Folded Reload
	ld.w	$a1, $a0, %pc_lo12(current_test)
	pcalau12i	$a0, %pc_hi20(.L.str.19)
	addi.d	$a0, $a0, %pc_lo12(.L.str.19)
	pcaddu18i	$ra, %call36(printf)
	jirl	$ra, $ra, 0
	ori	$t2, $zero, 28
	ld.d	$a0, $sp, 72                    # 8-byte Folded Reload
	ld.w	$a1, $a0, %pc_lo12(iterations)
	b	.LBB10_2
.LBB10_17:                              # %._crit_edge53
	pcaddu18i	$ra, %call36(clock)
	jirl	$ra, $ra, 0
	ld.d	$a1, $sp, 24                    # 8-byte Folded Reload
	ld.d	$fp, $a1, %pc_lo12(start_time)
	pcalau12i	$s2, %pc_hi20(results)
	ld.d	$a2, $s2, %pc_lo12(results)
	pcalau12i	$s1, %pc_hi20(allocated_results)
	ld.w	$a1, $s1, %pc_lo12(allocated_results)
	move	$s0, $a0
	pcalau12i	$a0, %pc_hi20(end_time)
	st.d	$s0, $a0, %pc_lo12(end_time)
	ld.d	$s3, $sp, 80                    # 8-byte Folded Reload
	beqz	$a2, .LBB10_19
# %bb.18:                               # %._crit_edge53
	ld.w	$a0, $s3, %pc_lo12(current_test)
	blt	$a0, $a1, .LBB10_21
.LBB10_19:
	addi.w	$a0, $a1, 10
	st.w	$a0, $s1, %pc_lo12(allocated_results)
	slli.d	$a1, $a0, 4
	move	$a0, $a2
	pcaddu18i	$ra, %call36(realloc)
	jirl	$ra, $ra, 0
	st.d	$a0, $s2, %pc_lo12(results)
	beqz	$a0, .LBB10_22
# %bb.20:                               # %._crit_edge.i
	move	$a2, $a0
	ld.w	$a0, $s3, %pc_lo12(current_test)
.LBB10_21:                              # %_Z13record_resultdPKc.exit
	pcalau12i	$a1, %pc_hi20(.LCPI10_0)
	fld.d	$fa0, $a1, %pc_lo12(.LCPI10_0)
	sub.d	$a1, $s0, $fp
	movgr2fr.d	$fa1, $a1
	ffint.d.l	$fa1, $fa1
	fdiv.d	$fa0, $fa1, $fa0
	alsl.d	$a1, $a0, $a2, 4
	slli.d	$a3, $a0, 4
	fstx.d	$fa0, $a2, $a3
	ld.d	$a2, $sp, 16                    # 8-byte Folded Reload
	st.d	$a2, $a1, 8
	addi.d	$a0, $a0, 1
	st.w	$a0, $s3, %pc_lo12(current_test)
	ld.d	$s8, $sp, 88                    # 8-byte Folded Reload
	ld.d	$s7, $sp, 96                    # 8-byte Folded Reload
	ld.d	$s6, $sp, 104                   # 8-byte Folded Reload
	ld.d	$s5, $sp, 112                   # 8-byte Folded Reload
	ld.d	$s4, $sp, 120                   # 8-byte Folded Reload
	ld.d	$s3, $sp, 128                   # 8-byte Folded Reload
	ld.d	$s2, $sp, 136                   # 8-byte Folded Reload
	ld.d	$s1, $sp, 144                   # 8-byte Folded Reload
	ld.d	$s0, $sp, 152                   # 8-byte Folded Reload
	ld.d	$fp, $sp, 160                   # 8-byte Folded Reload
	ld.d	$ra, $sp, 168                   # 8-byte Folded Reload
	addi.d	$sp, $sp, 176
	ret
.LBB10_22:
	ld.w	$a1, $s1, %pc_lo12(allocated_results)
	pcalau12i	$a0, %pc_hi20(.L.str)
	addi.d	$a0, $a0, %pc_lo12(.L.str)
	pcaddu18i	$ra, %call36(printf)
	jirl	$ra, $ra, 0
	addi.w	$a0, $zero, -1
	pcaddu18i	$ra, %call36(exit)
	jirl	$ra, $ra, 0
.Lfunc_end10:
	.size	_Z27test_for_loop_unroll_factorILi28EiEvPKT0_iPKc, .Lfunc_end10-_Z27test_for_loop_unroll_factorILi28EiEvPKT0_iPKc
	.cfi_endproc
                                        # -- End function
	.section	.rodata.cst8,"aM",@progbits,8
	.p2align	3, 0x0                          # -- Begin function _Z27test_for_loop_unroll_factorILi27EiEvPKT0_iPKc
.LCPI11_0:
	.dword	0x412e848000000000              # double 1.0E+6
	.section	.text._Z27test_for_loop_unroll_factorILi27EiEvPKT0_iPKc,"axG",@progbits,_Z27test_for_loop_unroll_factorILi27EiEvPKT0_iPKc,comdat
	.weak	_Z27test_for_loop_unroll_factorILi27EiEvPKT0_iPKc
	.p2align	5
	.type	_Z27test_for_loop_unroll_factorILi27EiEvPKT0_iPKc,@function
_Z27test_for_loop_unroll_factorILi27EiEvPKT0_iPKc: # @_Z27test_for_loop_unroll_factorILi27EiEvPKT0_iPKc
	.cfi_startproc
# %bb.0:
	addi.d	$sp, $sp, -176
	.cfi_def_cfa_offset 176
	st.d	$ra, $sp, 168                   # 8-byte Folded Spill
	st.d	$fp, $sp, 160                   # 8-byte Folded Spill
	st.d	$s0, $sp, 152                   # 8-byte Folded Spill
	st.d	$s1, $sp, 144                   # 8-byte Folded Spill
	st.d	$s2, $sp, 136                   # 8-byte Folded Spill
	st.d	$s3, $sp, 128                   # 8-byte Folded Spill
	st.d	$s4, $sp, 120                   # 8-byte Folded Spill
	st.d	$s5, $sp, 112                   # 8-byte Folded Spill
	st.d	$s6, $sp, 104                   # 8-byte Folded Spill
	st.d	$s7, $sp, 96                    # 8-byte Folded Spill
	st.d	$s8, $sp, 88                    # 8-byte Folded Spill
	.cfi_offset 1, -8
	.cfi_offset 22, -16
	.cfi_offset 23, -24
	.cfi_offset 24, -32
	.cfi_offset 25, -40
	.cfi_offset 26, -48
	.cfi_offset 27, -56
	.cfi_offset 28, -64
	.cfi_offset 29, -72
	.cfi_offset 30, -80
	.cfi_offset 31, -88
	st.d	$a2, $sp, 16                    # 8-byte Folded Spill
	move	$s0, $a1
	st.d	$a0, $sp, 64                    # 8-byte Folded Spill
	pcaddu18i	$ra, %call36(clock)
	jirl	$ra, $ra, 0
	pcalau12i	$a1, %pc_hi20(iterations)
	st.d	$a1, $sp, 72                    # 8-byte Folded Spill
	ld.w	$a1, $a1, %pc_lo12(iterations)
	pcalau12i	$a2, %pc_hi20(start_time)
	st.d	$a2, $sp, 24                    # 8-byte Folded Spill
	st.d	$a0, $a2, %pc_lo12(start_time)
	pcalau12i	$a0, %pc_hi20(current_test)
	st.d	$a0, $sp, 80                    # 8-byte Folded Spill
	blez	$a1, .LBB11_17
# %bb.1:                                # %.preheader43.lr.ph
	move	$s5, $zero
	addi.w	$s6, $s0, -26
	bstrpick.d	$s7, $s0, 31, 0
	ld.d	$a0, $sp, 64                    # 8-byte Folded Reload
	addi.d	$s8, $a0, 52
	addi.d	$a0, $a0, 16
	st.d	$a0, $sp, 56                    # 8-byte Folded Spill
	ori	$t2, $zero, 27
	lu12i.w	$a0, 65881
	ori	$fp, $a0, 1957
	lu12i.w	$a0, -163576
	ori	$s1, $a0, 1640
	lu12i.w	$a0, -277912
	ori	$s2, $a0, 2488
	vrepli.b	$vr0, 0
	vst	$vr0, $sp, 32                   # 16-byte Folded Spill
	lu12i.w	$a0, -381906
	ori	$s3, $a0, 1088
	lu12i.w	$a0, -310021
	ori	$s4, $a0, 1536
	b	.LBB11_3
	.p2align	4, , 16
.LBB11_2:                               # %_Z9check_sumIiEvT_.exit
                                        #   in Loop: Header=BB11_3 Depth=1
	addi.w	$s5, $s5, 1
	bge	$s5, $a1, .LBB11_17
.LBB11_3:                               # %.preheader43
                                        # =>This Loop Header: Depth=1
                                        #     Child Loop BB11_5 Depth 2
                                        #     Child Loop BB11_11 Depth 2
                                        #     Child Loop BB11_14 Depth 2
	blt	$s0, $t2, .LBB11_7
# %bb.4:                                # %.lr.ph.preheader
                                        #   in Loop: Header=BB11_3 Depth=1
	move	$a2, $zero
	move	$a3, $zero
	move	$a0, $zero
	move	$a4, $s8
	.p2align	4, , 16
.LBB11_5:                               # %.lr.ph
                                        #   Parent Loop BB11_3 Depth=1
                                        # =>  This Inner Loop Header: Depth=2
	ld.w	$a5, $a4, -52
	ld.w	$a6, $a4, -48
	ld.w	$a7, $a4, -44
	ld.w	$t0, $a4, -40
	ld.w	$t1, $a4, -36
	add.d	$a5, $a6, $a5
	ld.w	$a6, $a4, -32
	add.d	$a5, $a5, $a7
	ld.w	$a7, $a4, -28
	add.d	$a5, $a5, $t0
	ld.w	$t0, $a4, -24
	add.d	$a5, $a5, $t1
	ld.w	$t1, $a4, -20
	add.d	$a5, $a5, $a6
	ld.w	$a6, $a4, -16
	add.d	$a5, $a5, $a7
	ld.w	$a7, $a4, -12
	add.d	$a5, $a5, $t0
	ld.w	$t0, $a4, -8
	add.d	$a5, $a5, $t1
	ld.w	$t1, $a4, -4
	add.d	$a5, $a5, $a6
	ld.w	$a6, $a4, 0
	add.d	$a5, $a5, $a7
	ld.w	$a7, $a4, 4
	add.d	$a5, $a5, $t0
	ld.w	$t0, $a4, 8
	add.d	$a5, $a5, $t1
	ld.w	$t1, $a4, 12
	add.d	$a5, $a5, $a6
	ld.w	$a6, $a4, 16
	add.d	$a5, $a5, $a7
	ld.w	$a7, $a4, 20
	add.d	$a5, $a5, $t0
	ld.w	$t0, $a4, 24
	add.d	$a5, $a5, $t1
	ld.w	$t1, $a4, 28
	add.d	$a5, $a5, $a6
	ld.w	$a6, $a4, 32
	add.d	$a5, $a5, $a7
	ld.w	$a7, $a4, 36
	add.d	$a5, $a5, $t0
	ld.w	$t0, $a4, 40
	add.d	$a5, $a5, $t1
	ld.w	$t1, $a4, 44
	add.d	$a5, $a5, $a6
	ld.w	$a6, $a4, 48
	add.d	$a5, $a5, $a7
	ld.w	$a7, $a4, 52
	add.d	$a5, $a5, $t0
	add.d	$a5, $a5, $t1
	add.d	$a5, $a5, $a6
	add.d	$a5, $a5, $a7
	mul.d	$a5, $a5, $fp
	add.d	$a0, $a0, $a5
	add.d	$a0, $a0, $s1
	addi.d	$a3, $a3, 27
	addi.d	$a2, $a2, 27
	addi.d	$a4, $a4, 108
	blt	$a3, $s6, .LBB11_5
# %bb.6:                                # %.preheader
                                        #   in Loop: Header=BB11_3 Depth=1
	addi.w	$a3, $a2, 0
	blt	$a3, $s0, .LBB11_8
	b	.LBB11_15
	.p2align	4, , 16
.LBB11_7:                               #   in Loop: Header=BB11_3 Depth=1
	move	$a0, $zero
	move	$a2, $zero
	addi.w	$a3, $a2, 0
	bge	$a3, $s0, .LBB11_15
.LBB11_8:                               # %.lr.ph49.preheader
                                        #   in Loop: Header=BB11_3 Depth=1
	sub.d	$a4, $s7, $a2
	ori	$a3, $zero, 8
	bgeu	$a4, $a3, .LBB11_10
# %bb.9:                                #   in Loop: Header=BB11_3 Depth=1
	move	$a3, $a2
	b	.LBB11_13
	.p2align	4, , 16
.LBB11_10:                              # %vector.ph
                                        #   in Loop: Header=BB11_3 Depth=1
	move	$a5, $a4
	bstrins.d	$a5, $zero, 2, 0
	add.d	$a3, $a5, $a2
	vld	$vr1, $sp, 32                   # 16-byte Folded Reload
	vori.b	$vr0, $vr1, 0
	vinsgr2vr.w	$vr0, $a0, 0
	ld.d	$a0, $sp, 56                    # 8-byte Folded Reload
	alsl.d	$a0, $a2, $a0, 2
	move	$a2, $a5
	.p2align	4, , 16
.LBB11_11:                              # %vector.body
                                        #   Parent Loop BB11_3 Depth=1
                                        # =>  This Inner Loop Header: Depth=2
	vld	$vr2, $a0, -16
	vld	$vr3, $a0, 0
	vreplgr2vr.w	$vr4, $fp
	vmadd.w	$vr0, $vr2, $vr4
	vreplgr2vr.w	$vr2, $s2
	vmadd.w	$vr1, $vr3, $vr4
	vadd.w	$vr0, $vr0, $vr2
	vadd.w	$vr1, $vr1, $vr2
	addi.d	$a2, $a2, -8
	addi.d	$a0, $a0, 32
	bnez	$a2, .LBB11_11
# %bb.12:                               # %middle.block
                                        #   in Loop: Header=BB11_3 Depth=1
	vadd.w	$vr0, $vr1, $vr0
	vhaddw.d.w	$vr0, $vr0, $vr0
	vhaddw.q.d	$vr0, $vr0, $vr0
	vpickve2gr.d	$a0, $vr0, 0
	beq	$a4, $a5, .LBB11_15
.LBB11_13:                              # %.lr.ph49.preheader67
                                        #   in Loop: Header=BB11_3 Depth=1
	ld.d	$a2, $sp, 64                    # 8-byte Folded Reload
	alsl.d	$a2, $a3, $a2, 2
	sub.d	$a3, $s7, $a3
	.p2align	4, , 16
.LBB11_14:                              # %.lr.ph49
                                        #   Parent Loop BB11_3 Depth=1
                                        # =>  This Inner Loop Header: Depth=2
	ld.w	$a4, $a2, 0
	mul.d	$a4, $a4, $fp
	add.d	$a0, $a0, $a4
	add.d	$a0, $a0, $s2
	addi.d	$a3, $a3, -1
	addi.d	$a2, $a2, 4
	bnez	$a3, .LBB11_14
.LBB11_15:                              # %._crit_edge
                                        #   in Loop: Header=BB11_3 Depth=1
	pcalau12i	$a2, %pc_hi20(init_value)
	fld.d	$fa0, $a2, %pc_lo12(init_value)
	ftintrz.w.d	$fa0, $fa0
	movfr2gr.s	$a2, $fa0
	mul.d	$a2, $a2, $s3
	add.w	$a2, $a2, $s4
	addi.w	$a0, $a0, 0
	beq	$a0, $a2, .LBB11_2
# %bb.16:                               #   in Loop: Header=BB11_3 Depth=1
	ld.d	$a0, $sp, 80                    # 8-byte Folded Reload
	ld.w	$a1, $a0, %pc_lo12(current_test)
	pcalau12i	$a0, %pc_hi20(.L.str.19)
	addi.d	$a0, $a0, %pc_lo12(.L.str.19)
	pcaddu18i	$ra, %call36(printf)
	jirl	$ra, $ra, 0
	ori	$t2, $zero, 27
	ld.d	$a0, $sp, 72                    # 8-byte Folded Reload
	ld.w	$a1, $a0, %pc_lo12(iterations)
	b	.LBB11_2
.LBB11_17:                              # %._crit_edge52
	pcaddu18i	$ra, %call36(clock)
	jirl	$ra, $ra, 0
	ld.d	$a1, $sp, 24                    # 8-byte Folded Reload
	ld.d	$fp, $a1, %pc_lo12(start_time)
	pcalau12i	$s2, %pc_hi20(results)
	ld.d	$a2, $s2, %pc_lo12(results)
	pcalau12i	$s1, %pc_hi20(allocated_results)
	ld.w	$a1, $s1, %pc_lo12(allocated_results)
	move	$s0, $a0
	pcalau12i	$a0, %pc_hi20(end_time)
	st.d	$s0, $a0, %pc_lo12(end_time)
	ld.d	$s3, $sp, 80                    # 8-byte Folded Reload
	beqz	$a2, .LBB11_19
# %bb.18:                               # %._crit_edge52
	ld.w	$a0, $s3, %pc_lo12(current_test)
	blt	$a0, $a1, .LBB11_21
.LBB11_19:
	addi.w	$a0, $a1, 10
	st.w	$a0, $s1, %pc_lo12(allocated_results)
	slli.d	$a1, $a0, 4
	move	$a0, $a2
	pcaddu18i	$ra, %call36(realloc)
	jirl	$ra, $ra, 0
	st.d	$a0, $s2, %pc_lo12(results)
	beqz	$a0, .LBB11_22
# %bb.20:                               # %._crit_edge.i
	move	$a2, $a0
	ld.w	$a0, $s3, %pc_lo12(current_test)
.LBB11_21:                              # %_Z13record_resultdPKc.exit
	pcalau12i	$a1, %pc_hi20(.LCPI11_0)
	fld.d	$fa0, $a1, %pc_lo12(.LCPI11_0)
	sub.d	$a1, $s0, $fp
	movgr2fr.d	$fa1, $a1
	ffint.d.l	$fa1, $fa1
	fdiv.d	$fa0, $fa1, $fa0
	alsl.d	$a1, $a0, $a2, 4
	slli.d	$a3, $a0, 4
	fstx.d	$fa0, $a2, $a3
	ld.d	$a2, $sp, 16                    # 8-byte Folded Reload
	st.d	$a2, $a1, 8
	addi.d	$a0, $a0, 1
	st.w	$a0, $s3, %pc_lo12(current_test)
	ld.d	$s8, $sp, 88                    # 8-byte Folded Reload
	ld.d	$s7, $sp, 96                    # 8-byte Folded Reload
	ld.d	$s6, $sp, 104                   # 8-byte Folded Reload
	ld.d	$s5, $sp, 112                   # 8-byte Folded Reload
	ld.d	$s4, $sp, 120                   # 8-byte Folded Reload
	ld.d	$s3, $sp, 128                   # 8-byte Folded Reload
	ld.d	$s2, $sp, 136                   # 8-byte Folded Reload
	ld.d	$s1, $sp, 144                   # 8-byte Folded Reload
	ld.d	$s0, $sp, 152                   # 8-byte Folded Reload
	ld.d	$fp, $sp, 160                   # 8-byte Folded Reload
	ld.d	$ra, $sp, 168                   # 8-byte Folded Reload
	addi.d	$sp, $sp, 176
	ret
.LBB11_22:
	ld.w	$a1, $s1, %pc_lo12(allocated_results)
	pcalau12i	$a0, %pc_hi20(.L.str)
	addi.d	$a0, $a0, %pc_lo12(.L.str)
	pcaddu18i	$ra, %call36(printf)
	jirl	$ra, $ra, 0
	addi.w	$a0, $zero, -1
	pcaddu18i	$ra, %call36(exit)
	jirl	$ra, $ra, 0
.Lfunc_end11:
	.size	_Z27test_for_loop_unroll_factorILi27EiEvPKT0_iPKc, .Lfunc_end11-_Z27test_for_loop_unroll_factorILi27EiEvPKT0_iPKc
	.cfi_endproc
                                        # -- End function
	.section	.text._ZN14for_loop_testsILi25EiE7do_testEPKiPKc,"axG",@progbits,_ZN14for_loop_testsILi25EiE7do_testEPKiPKc,comdat
	.weak	_ZN14for_loop_testsILi25EiE7do_testEPKiPKc # -- Begin function _ZN14for_loop_testsILi25EiE7do_testEPKiPKc
	.p2align	5
	.type	_ZN14for_loop_testsILi25EiE7do_testEPKiPKc,@function
_ZN14for_loop_testsILi25EiE7do_testEPKiPKc: # @_ZN14for_loop_testsILi25EiE7do_testEPKiPKc
	.cfi_startproc
# %bb.0:
	addi.d	$sp, $sp, -32
	.cfi_def_cfa_offset 32
	st.d	$ra, $sp, 24                    # 8-byte Folded Spill
	st.d	$fp, $sp, 16                    # 8-byte Folded Spill
	st.d	$s0, $sp, 8                     # 8-byte Folded Spill
	st.d	$s1, $sp, 0                     # 8-byte Folded Spill
	.cfi_offset 1, -8
	.cfi_offset 22, -16
	.cfi_offset 23, -24
	.cfi_offset 24, -32
	move	$fp, $a0
	pcaddu18i	$ra, %call36(_ZN14for_loop_testsILi17EiE7do_testEPKiPKc)
	jirl	$ra, $ra, 0
	pcalau12i	$a0, %pc_hi20(temp_string)
	addi.d	$s1, $a0, %pc_lo12(temp_string)
	addi.d	$a2, $s1, 1700
	lu12i.w	$a0, 1
	ori	$s0, $a0, 3904
	move	$a0, $fp
	move	$a1, $s0
	pcaddu18i	$ra, %call36(_Z27test_for_loop_unroll_factorILi18EiEvPKT0_iPKc)
	jirl	$ra, $ra, 0
	addi.d	$a2, $s1, 1800
	move	$a0, $fp
	move	$a1, $s0
	pcaddu18i	$ra, %call36(_Z27test_for_loop_unroll_factorILi19EiEvPKT0_iPKc)
	jirl	$ra, $ra, 0
	addi.d	$a2, $s1, 1900
	move	$a0, $fp
	move	$a1, $s0
	pcaddu18i	$ra, %call36(_Z27test_for_loop_unroll_factorILi20EiEvPKT0_iPKc)
	jirl	$ra, $ra, 0
	addi.d	$a2, $s1, 2000
	move	$a0, $fp
	move	$a1, $s0
	pcaddu18i	$ra, %call36(_Z27test_for_loop_unroll_factorILi21EiEvPKT0_iPKc)
	jirl	$ra, $ra, 0
	addi.d	$s1, $s1, 2047
	addi.d	$a2, $s1, 53
	move	$a0, $fp
	move	$a1, $s0
	pcaddu18i	$ra, %call36(_Z27test_for_loop_unroll_factorILi22EiEvPKT0_iPKc)
	jirl	$ra, $ra, 0
	addi.d	$a2, $s1, 153
	move	$a0, $fp
	move	$a1, $s0
	pcaddu18i	$ra, %call36(_Z27test_for_loop_unroll_factorILi23EiEvPKT0_iPKc)
	jirl	$ra, $ra, 0
	addi.d	$a2, $s1, 253
	move	$a0, $fp
	move	$a1, $s0
	pcaddu18i	$ra, %call36(_Z27test_for_loop_unroll_factorILi24EiEvPKT0_iPKc)
	jirl	$ra, $ra, 0
	addi.d	$a2, $s1, 353
	move	$a0, $fp
	move	$a1, $s0
	ld.d	$s1, $sp, 0                     # 8-byte Folded Reload
	ld.d	$s0, $sp, 8                     # 8-byte Folded Reload
	ld.d	$fp, $sp, 16                    # 8-byte Folded Reload
	ld.d	$ra, $sp, 24                    # 8-byte Folded Reload
	addi.d	$sp, $sp, 32
	pcaddu18i	$t8, %call36(_Z27test_for_loop_unroll_factorILi25EiEvPKT0_iPKc)
	jr	$t8
.Lfunc_end12:
	.size	_ZN14for_loop_testsILi25EiE7do_testEPKiPKc, .Lfunc_end12-_ZN14for_loop_testsILi25EiE7do_testEPKiPKc
	.cfi_endproc
                                        # -- End function
	.section	.rodata.cst8,"aM",@progbits,8
	.p2align	3, 0x0                          # -- Begin function _Z27test_for_loop_unroll_factorILi26EiEvPKT0_iPKc
.LCPI13_0:
	.dword	0x412e848000000000              # double 1.0E+6
	.section	.text._Z27test_for_loop_unroll_factorILi26EiEvPKT0_iPKc,"axG",@progbits,_Z27test_for_loop_unroll_factorILi26EiEvPKT0_iPKc,comdat
	.weak	_Z27test_for_loop_unroll_factorILi26EiEvPKT0_iPKc
	.p2align	5
	.type	_Z27test_for_loop_unroll_factorILi26EiEvPKT0_iPKc,@function
_Z27test_for_loop_unroll_factorILi26EiEvPKT0_iPKc: # @_Z27test_for_loop_unroll_factorILi26EiEvPKT0_iPKc
	.cfi_startproc
# %bb.0:
	addi.d	$sp, $sp, -160
	.cfi_def_cfa_offset 160
	st.d	$ra, $sp, 152                   # 8-byte Folded Spill
	st.d	$fp, $sp, 144                   # 8-byte Folded Spill
	st.d	$s0, $sp, 136                   # 8-byte Folded Spill
	st.d	$s1, $sp, 128                   # 8-byte Folded Spill
	st.d	$s2, $sp, 120                   # 8-byte Folded Spill
	st.d	$s3, $sp, 112                   # 8-byte Folded Spill
	st.d	$s4, $sp, 104                   # 8-byte Folded Spill
	st.d	$s5, $sp, 96                    # 8-byte Folded Spill
	st.d	$s6, $sp, 88                    # 8-byte Folded Spill
	st.d	$s7, $sp, 80                    # 8-byte Folded Spill
	st.d	$s8, $sp, 72                    # 8-byte Folded Spill
	.cfi_offset 1, -8
	.cfi_offset 22, -16
	.cfi_offset 23, -24
	.cfi_offset 24, -32
	.cfi_offset 25, -40
	.cfi_offset 26, -48
	.cfi_offset 27, -56
	.cfi_offset 28, -64
	.cfi_offset 29, -72
	.cfi_offset 30, -80
	.cfi_offset 31, -88
	st.d	$a2, $sp, 16                    # 8-byte Folded Spill
	move	$s0, $a1
	st.d	$a0, $sp, 56                    # 8-byte Folded Spill
	pcaddu18i	$ra, %call36(clock)
	jirl	$ra, $ra, 0
	pcalau12i	$s4, %pc_hi20(iterations)
	ld.w	$a1, $s4, %pc_lo12(iterations)
	pcalau12i	$a2, %pc_hi20(start_time)
	st.d	$a2, $sp, 24                    # 8-byte Folded Spill
	st.d	$a0, $a2, %pc_lo12(start_time)
	pcalau12i	$a0, %pc_hi20(current_test)
	st.d	$a0, $sp, 64                    # 8-byte Folded Spill
	blez	$a1, .LBB13_17
# %bb.1:                                # %.preheader42.lr.ph
	move	$s5, $zero
	addi.w	$s6, $s0, -25
	bstrpick.d	$s7, $s0, 31, 0
	ld.d	$a0, $sp, 56                    # 8-byte Folded Reload
	addi.d	$s8, $a0, 52
	addi.d	$a0, $a0, 16
	st.d	$a0, $sp, 48                    # 8-byte Folded Spill
	ori	$t2, $zero, 26
	lu12i.w	$a0, 65881
	ori	$fp, $a0, 1957
	lu12i.w	$a0, -277912
	ori	$s1, $a0, 2488
	vrepli.b	$vr0, 0
	vst	$vr0, $sp, 32                   # 16-byte Folded Spill
	lu12i.w	$a0, -381906
	ori	$s2, $a0, 1088
	lu12i.w	$a0, -310021
	ori	$s3, $a0, 1536
	b	.LBB13_3
	.p2align	4, , 16
.LBB13_2:                               # %_Z9check_sumIiEvT_.exit
                                        #   in Loop: Header=BB13_3 Depth=1
	addi.w	$s5, $s5, 1
	bge	$s5, $a1, .LBB13_17
.LBB13_3:                               # %.preheader42
                                        # =>This Loop Header: Depth=1
                                        #     Child Loop BB13_5 Depth 2
                                        #     Child Loop BB13_11 Depth 2
                                        #     Child Loop BB13_14 Depth 2
	blt	$s0, $t2, .LBB13_7
# %bb.4:                                # %.lr.ph.preheader
                                        #   in Loop: Header=BB13_3 Depth=1
	move	$a2, $zero
	move	$a3, $zero
	move	$a0, $zero
	move	$a4, $s8
	.p2align	4, , 16
.LBB13_5:                               # %.lr.ph
                                        #   Parent Loop BB13_3 Depth=1
                                        # =>  This Inner Loop Header: Depth=2
	ld.w	$a5, $a4, -52
	ld.w	$a6, $a4, -48
	ld.w	$a7, $a4, -44
	ld.w	$t0, $a4, -40
	ld.w	$t1, $a4, -36
	add.d	$a5, $a6, $a5
	ld.w	$a6, $a4, -32
	add.d	$a5, $a5, $a7
	ld.w	$a7, $a4, -28
	add.d	$a5, $a5, $t0
	ld.w	$t0, $a4, -24
	add.d	$a5, $a5, $t1
	ld.w	$t1, $a4, -20
	add.d	$a5, $a5, $a6
	ld.w	$a6, $a4, -16
	add.d	$a5, $a5, $a7
	ld.w	$a7, $a4, -12
	add.d	$a5, $a5, $t0
	ld.w	$t0, $a4, -8
	add.d	$a5, $a5, $t1
	ld.w	$t1, $a4, -4
	add.d	$a5, $a5, $a6
	ld.w	$a6, $a4, 0
	add.d	$a5, $a5, $a7
	ld.w	$a7, $a4, 4
	add.d	$a5, $a5, $t0
	ld.w	$t0, $a4, 8
	add.d	$a5, $a5, $t1
	ld.w	$t1, $a4, 12
	add.d	$a5, $a5, $a6
	ld.w	$a6, $a4, 16
	add.d	$a5, $a5, $a7
	ld.w	$a7, $a4, 20
	add.d	$a5, $a5, $t0
	ld.w	$t0, $a4, 24
	add.d	$a5, $a5, $t1
	ld.w	$t1, $a4, 28
	add.d	$a5, $a5, $a6
	ld.w	$a6, $a4, 32
	add.d	$a5, $a5, $a7
	ld.w	$a7, $a4, 36
	add.d	$a5, $a5, $t0
	ld.w	$t0, $a4, 40
	add.d	$a5, $a5, $t1
	ld.w	$t1, $a4, 44
	add.d	$a5, $a5, $a6
	ld.w	$a6, $a4, 48
	add.d	$a5, $a5, $a7
	add.w	$a5, $a5, $t0
	add.d	$a5, $a5, $t1
	add.d	$a5, $a5, $a6
	mul.d	$a5, $a5, $fp
	add.d	$a0, $a0, $a5
	addu16i.d	$a0, $a0, 7146
	addi.w	$a0, $a0, -848
	addi.d	$a3, $a3, 26
	addi.d	$a2, $a2, 26
	addi.d	$a4, $a4, 104
	blt	$a3, $s6, .LBB13_5
# %bb.6:                                # %.preheader
                                        #   in Loop: Header=BB13_3 Depth=1
	addi.w	$a3, $a2, 0
	blt	$a3, $s0, .LBB13_8
	b	.LBB13_15
	.p2align	4, , 16
.LBB13_7:                               #   in Loop: Header=BB13_3 Depth=1
	move	$a0, $zero
	move	$a2, $zero
	addi.w	$a3, $a2, 0
	bge	$a3, $s0, .LBB13_15
.LBB13_8:                               # %.lr.ph48.preheader
                                        #   in Loop: Header=BB13_3 Depth=1
	sub.d	$a4, $s7, $a2
	ori	$a3, $zero, 8
	bgeu	$a4, $a3, .LBB13_10
# %bb.9:                                #   in Loop: Header=BB13_3 Depth=1
	move	$a3, $a2
	b	.LBB13_13
	.p2align	4, , 16
.LBB13_10:                              # %vector.ph
                                        #   in Loop: Header=BB13_3 Depth=1
	move	$a5, $a4
	bstrins.d	$a5, $zero, 2, 0
	add.d	$a3, $a5, $a2
	vld	$vr1, $sp, 32                   # 16-byte Folded Reload
	vori.b	$vr0, $vr1, 0
	vinsgr2vr.w	$vr0, $a0, 0
	ld.d	$a0, $sp, 48                    # 8-byte Folded Reload
	alsl.d	$a0, $a2, $a0, 2
	move	$a2, $a5
	.p2align	4, , 16
.LBB13_11:                              # %vector.body
                                        #   Parent Loop BB13_3 Depth=1
                                        # =>  This Inner Loop Header: Depth=2
	vld	$vr2, $a0, -16
	vld	$vr3, $a0, 0
	vreplgr2vr.w	$vr4, $fp
	vmadd.w	$vr0, $vr2, $vr4
	vreplgr2vr.w	$vr2, $s1
	vmadd.w	$vr1, $vr3, $vr4
	vadd.w	$vr0, $vr0, $vr2
	vadd.w	$vr1, $vr1, $vr2
	addi.d	$a2, $a2, -8
	addi.d	$a0, $a0, 32
	bnez	$a2, .LBB13_11
# %bb.12:                               # %middle.block
                                        #   in Loop: Header=BB13_3 Depth=1
	vadd.w	$vr0, $vr1, $vr0
	vhaddw.d.w	$vr0, $vr0, $vr0
	vhaddw.q.d	$vr0, $vr0, $vr0
	vpickve2gr.d	$a0, $vr0, 0
	beq	$a4, $a5, .LBB13_15
.LBB13_13:                              # %.lr.ph48.preheader66
                                        #   in Loop: Header=BB13_3 Depth=1
	ld.d	$a2, $sp, 56                    # 8-byte Folded Reload
	alsl.d	$a2, $a3, $a2, 2
	sub.d	$a3, $s7, $a3
	.p2align	4, , 16
.LBB13_14:                              # %.lr.ph48
                                        #   Parent Loop BB13_3 Depth=1
                                        # =>  This Inner Loop Header: Depth=2
	ld.w	$a4, $a2, 0
	mul.d	$a4, $a4, $fp
	add.d	$a0, $a0, $a4
	add.d	$a0, $a0, $s1
	addi.d	$a3, $a3, -1
	addi.d	$a2, $a2, 4
	bnez	$a3, .LBB13_14
.LBB13_15:                              # %._crit_edge
                                        #   in Loop: Header=BB13_3 Depth=1
	pcalau12i	$a2, %pc_hi20(init_value)
	fld.d	$fa0, $a2, %pc_lo12(init_value)
	ftintrz.w.d	$fa0, $fa0
	movfr2gr.s	$a2, $fa0
	mul.d	$a2, $a2, $s2
	add.w	$a2, $a2, $s3
	addi.w	$a0, $a0, 0
	beq	$a0, $a2, .LBB13_2
# %bb.16:                               #   in Loop: Header=BB13_3 Depth=1
	ld.d	$a0, $sp, 64                    # 8-byte Folded Reload
	ld.w	$a1, $a0, %pc_lo12(current_test)
	pcalau12i	$a0, %pc_hi20(.L.str.19)
	addi.d	$a0, $a0, %pc_lo12(.L.str.19)
	pcaddu18i	$ra, %call36(printf)
	jirl	$ra, $ra, 0
	ori	$t2, $zero, 26
	ld.w	$a1, $s4, %pc_lo12(iterations)
	b	.LBB13_2
.LBB13_17:                              # %._crit_edge51
	pcaddu18i	$ra, %call36(clock)
	jirl	$ra, $ra, 0
	ld.d	$a1, $sp, 24                    # 8-byte Folded Reload
	ld.d	$fp, $a1, %pc_lo12(start_time)
	pcalau12i	$s2, %pc_hi20(results)
	ld.d	$a2, $s2, %pc_lo12(results)
	pcalau12i	$s1, %pc_hi20(allocated_results)
	ld.w	$a1, $s1, %pc_lo12(allocated_results)
	move	$s0, $a0
	pcalau12i	$a0, %pc_hi20(end_time)
	st.d	$s0, $a0, %pc_lo12(end_time)
	ld.d	$s3, $sp, 64                    # 8-byte Folded Reload
	beqz	$a2, .LBB13_19
# %bb.18:                               # %._crit_edge51
	ld.w	$a0, $s3, %pc_lo12(current_test)
	blt	$a0, $a1, .LBB13_21
.LBB13_19:
	addi.w	$a0, $a1, 10
	st.w	$a0, $s1, %pc_lo12(allocated_results)
	slli.d	$a1, $a0, 4
	move	$a0, $a2
	pcaddu18i	$ra, %call36(realloc)
	jirl	$ra, $ra, 0
	st.d	$a0, $s2, %pc_lo12(results)
	beqz	$a0, .LBB13_22
# %bb.20:                               # %._crit_edge.i
	move	$a2, $a0
	ld.w	$a0, $s3, %pc_lo12(current_test)
.LBB13_21:                              # %_Z13record_resultdPKc.exit
	pcalau12i	$a1, %pc_hi20(.LCPI13_0)
	fld.d	$fa0, $a1, %pc_lo12(.LCPI13_0)
	sub.d	$a1, $s0, $fp
	movgr2fr.d	$fa1, $a1
	ffint.d.l	$fa1, $fa1
	fdiv.d	$fa0, $fa1, $fa0
	alsl.d	$a1, $a0, $a2, 4
	slli.d	$a3, $a0, 4
	fstx.d	$fa0, $a2, $a3
	ld.d	$a2, $sp, 16                    # 8-byte Folded Reload
	st.d	$a2, $a1, 8
	addi.d	$a0, $a0, 1
	st.w	$a0, $s3, %pc_lo12(current_test)
	ld.d	$s8, $sp, 72                    # 8-byte Folded Reload
	ld.d	$s7, $sp, 80                    # 8-byte Folded Reload
	ld.d	$s6, $sp, 88                    # 8-byte Folded Reload
	ld.d	$s5, $sp, 96                    # 8-byte Folded Reload
	ld.d	$s4, $sp, 104                   # 8-byte Folded Reload
	ld.d	$s3, $sp, 112                   # 8-byte Folded Reload
	ld.d	$s2, $sp, 120                   # 8-byte Folded Reload
	ld.d	$s1, $sp, 128                   # 8-byte Folded Reload
	ld.d	$s0, $sp, 136                   # 8-byte Folded Reload
	ld.d	$fp, $sp, 144                   # 8-byte Folded Reload
	ld.d	$ra, $sp, 152                   # 8-byte Folded Reload
	addi.d	$sp, $sp, 160
	ret
.LBB13_22:
	ld.w	$a1, $s1, %pc_lo12(allocated_results)
	pcalau12i	$a0, %pc_hi20(.L.str)
	addi.d	$a0, $a0, %pc_lo12(.L.str)
	pcaddu18i	$ra, %call36(printf)
	jirl	$ra, $ra, 0
	addi.w	$a0, $zero, -1
	pcaddu18i	$ra, %call36(exit)
	jirl	$ra, $ra, 0
.Lfunc_end13:
	.size	_Z27test_for_loop_unroll_factorILi26EiEvPKT0_iPKc, .Lfunc_end13-_Z27test_for_loop_unroll_factorILi26EiEvPKT0_iPKc
	.cfi_endproc
                                        # -- End function
	.section	.rodata.cst8,"aM",@progbits,8
	.p2align	3, 0x0                          # -- Begin function _Z27test_for_loop_unroll_factorILi25EiEvPKT0_iPKc
.LCPI14_0:
	.dword	0x412e848000000000              # double 1.0E+6
	.section	.text._Z27test_for_loop_unroll_factorILi25EiEvPKT0_iPKc,"axG",@progbits,_Z27test_for_loop_unroll_factorILi25EiEvPKT0_iPKc,comdat
	.weak	_Z27test_for_loop_unroll_factorILi25EiEvPKT0_iPKc
	.p2align	5
	.type	_Z27test_for_loop_unroll_factorILi25EiEvPKT0_iPKc,@function
_Z27test_for_loop_unroll_factorILi25EiEvPKT0_iPKc: # @_Z27test_for_loop_unroll_factorILi25EiEvPKT0_iPKc
	.cfi_startproc
# %bb.0:
	addi.d	$sp, $sp, -176
	.cfi_def_cfa_offset 176
	st.d	$ra, $sp, 168                   # 8-byte Folded Spill
	st.d	$fp, $sp, 160                   # 8-byte Folded Spill
	st.d	$s0, $sp, 152                   # 8-byte Folded Spill
	st.d	$s1, $sp, 144                   # 8-byte Folded Spill
	st.d	$s2, $sp, 136                   # 8-byte Folded Spill
	st.d	$s3, $sp, 128                   # 8-byte Folded Spill
	st.d	$s4, $sp, 120                   # 8-byte Folded Spill
	st.d	$s5, $sp, 112                   # 8-byte Folded Spill
	st.d	$s6, $sp, 104                   # 8-byte Folded Spill
	st.d	$s7, $sp, 96                    # 8-byte Folded Spill
	st.d	$s8, $sp, 88                    # 8-byte Folded Spill
	.cfi_offset 1, -8
	.cfi_offset 22, -16
	.cfi_offset 23, -24
	.cfi_offset 24, -32
	.cfi_offset 25, -40
	.cfi_offset 26, -48
	.cfi_offset 27, -56
	.cfi_offset 28, -64
	.cfi_offset 29, -72
	.cfi_offset 30, -80
	.cfi_offset 31, -88
	st.d	$a2, $sp, 16                    # 8-byte Folded Spill
	move	$s0, $a1
	st.d	$a0, $sp, 64                    # 8-byte Folded Spill
	pcaddu18i	$ra, %call36(clock)
	jirl	$ra, $ra, 0
	pcalau12i	$a1, %pc_hi20(iterations)
	st.d	$a1, $sp, 72                    # 8-byte Folded Spill
	ld.w	$a1, $a1, %pc_lo12(iterations)
	pcalau12i	$a2, %pc_hi20(start_time)
	st.d	$a2, $sp, 24                    # 8-byte Folded Spill
	st.d	$a0, $a2, %pc_lo12(start_time)
	pcalau12i	$a0, %pc_hi20(current_test)
	st.d	$a0, $sp, 80                    # 8-byte Folded Spill
	blez	$a1, .LBB14_17
# %bb.1:                                # %.preheader41.lr.ph
	move	$s5, $zero
	addi.w	$s6, $s0, -24
	bstrpick.d	$s7, $s0, 31, 0
	ld.d	$a0, $sp, 64                    # 8-byte Folded Reload
	addi.d	$s8, $a0, 48
	addi.d	$a0, $a0, 16
	st.d	$a0, $sp, 56                    # 8-byte Folded Spill
	ori	$t2, $zero, 25
	lu12i.w	$a0, 65881
	ori	$fp, $a0, 1957
	lu12i.w	$a0, 392247
	ori	$s1, $a0, 760
	lu12i.w	$a0, -277912
	ori	$s2, $a0, 2488
	vrepli.b	$vr0, 0
	vst	$vr0, $sp, 32                   # 16-byte Folded Spill
	lu12i.w	$a0, -381906
	ori	$s3, $a0, 1088
	lu12i.w	$a0, -310021
	ori	$s4, $a0, 1536
	b	.LBB14_3
	.p2align	4, , 16
.LBB14_2:                               # %_Z9check_sumIiEvT_.exit
                                        #   in Loop: Header=BB14_3 Depth=1
	addi.w	$s5, $s5, 1
	bge	$s5, $a1, .LBB14_17
.LBB14_3:                               # %.preheader41
                                        # =>This Loop Header: Depth=1
                                        #     Child Loop BB14_5 Depth 2
                                        #     Child Loop BB14_11 Depth 2
                                        #     Child Loop BB14_14 Depth 2
	blt	$s0, $t2, .LBB14_7
# %bb.4:                                # %.lr.ph.preheader
                                        #   in Loop: Header=BB14_3 Depth=1
	move	$a2, $zero
	move	$a3, $zero
	move	$a0, $zero
	move	$a4, $s8
	.p2align	4, , 16
.LBB14_5:                               # %.lr.ph
                                        #   Parent Loop BB14_3 Depth=1
                                        # =>  This Inner Loop Header: Depth=2
	ld.w	$a5, $a4, -48
	ld.w	$a6, $a4, -44
	ld.w	$a7, $a4, -40
	ld.w	$t0, $a4, -36
	ld.w	$t1, $a4, -32
	add.d	$a5, $a6, $a5
	ld.w	$a6, $a4, -28
	add.d	$a5, $a5, $a7
	ld.w	$a7, $a4, -24
	add.d	$a5, $a5, $t0
	ld.w	$t0, $a4, -20
	add.d	$a5, $a5, $t1
	ld.w	$t1, $a4, -16
	add.d	$a5, $a5, $a6
	ld.w	$a6, $a4, -12
	add.d	$a5, $a5, $a7
	ld.w	$a7, $a4, -8
	add.d	$a5, $a5, $t0
	ld.w	$t0, $a4, -4
	add.d	$a5, $a5, $t1
	ld.w	$t1, $a4, 0
	add.d	$a5, $a5, $a6
	ld.w	$a6, $a4, 4
	add.d	$a5, $a5, $a7
	ld.w	$a7, $a4, 8
	add.d	$a5, $a5, $t0
	ld.w	$t0, $a4, 12
	add.d	$a5, $a5, $t1
	ld.w	$t1, $a4, 16
	add.d	$a5, $a5, $a6
	ld.w	$a6, $a4, 20
	add.d	$a5, $a5, $a7
	ld.w	$a7, $a4, 24
	add.d	$a5, $a5, $t0
	ld.w	$t0, $a4, 28
	add.d	$a5, $a5, $t1
	ld.w	$t1, $a4, 32
	add.d	$a5, $a5, $a6
	ld.w	$a6, $a4, 36
	add.d	$a5, $a5, $a7
	ld.w	$a7, $a4, 40
	add.d	$a5, $a5, $t0
	ld.w	$t0, $a4, 44
	add.d	$a5, $a5, $t1
	ld.w	$t1, $a4, 48
	add.d	$a5, $a5, $a6
	add.d	$a5, $a5, $a7
	add.d	$a5, $a5, $t0
	add.d	$a5, $a5, $t1
	mul.d	$a5, $a5, $fp
	add.d	$a0, $a0, $a5
	add.d	$a0, $a0, $s1
	addi.d	$a3, $a3, 25
	addi.d	$a2, $a2, 25
	addi.d	$a4, $a4, 100
	blt	$a3, $s6, .LBB14_5
# %bb.6:                                # %.preheader
                                        #   in Loop: Header=BB14_3 Depth=1
	addi.w	$a3, $a2, 0
	blt	$a3, $s0, .LBB14_8
	b	.LBB14_15
	.p2align	4, , 16
.LBB14_7:                               #   in Loop: Header=BB14_3 Depth=1
	move	$a0, $zero
	move	$a2, $zero
	addi.w	$a3, $a2, 0
	bge	$a3, $s0, .LBB14_15
.LBB14_8:                               # %.lr.ph47.preheader
                                        #   in Loop: Header=BB14_3 Depth=1
	sub.d	$a4, $s7, $a2
	ori	$a3, $zero, 8
	bgeu	$a4, $a3, .LBB14_10
# %bb.9:                                #   in Loop: Header=BB14_3 Depth=1
	move	$a3, $a2
	b	.LBB14_13
	.p2align	4, , 16
.LBB14_10:                              # %vector.ph
                                        #   in Loop: Header=BB14_3 Depth=1
	move	$a5, $a4
	bstrins.d	$a5, $zero, 2, 0
	add.d	$a3, $a5, $a2
	vld	$vr1, $sp, 32                   # 16-byte Folded Reload
	vori.b	$vr0, $vr1, 0
	vinsgr2vr.w	$vr0, $a0, 0
	ld.d	$a0, $sp, 56                    # 8-byte Folded Reload
	alsl.d	$a0, $a2, $a0, 2
	move	$a2, $a5
	.p2align	4, , 16
.LBB14_11:                              # %vector.body
                                        #   Parent Loop BB14_3 Depth=1
                                        # =>  This Inner Loop Header: Depth=2
	vld	$vr2, $a0, -16
	vld	$vr3, $a0, 0
	vreplgr2vr.w	$vr4, $fp
	vmadd.w	$vr0, $vr2, $vr4
	vreplgr2vr.w	$vr2, $s2
	vmadd.w	$vr1, $vr3, $vr4
	vadd.w	$vr0, $vr0, $vr2
	vadd.w	$vr1, $vr1, $vr2
	addi.d	$a2, $a2, -8
	addi.d	$a0, $a0, 32
	bnez	$a2, .LBB14_11
# %bb.12:                               # %middle.block
                                        #   in Loop: Header=BB14_3 Depth=1
	vadd.w	$vr0, $vr1, $vr0
	vhaddw.d.w	$vr0, $vr0, $vr0
	vhaddw.q.d	$vr0, $vr0, $vr0
	vpickve2gr.d	$a0, $vr0, 0
	beq	$a4, $a5, .LBB14_15
.LBB14_13:                              # %.lr.ph47.preheader65
                                        #   in Loop: Header=BB14_3 Depth=1
	ld.d	$a2, $sp, 64                    # 8-byte Folded Reload
	alsl.d	$a2, $a3, $a2, 2
	sub.d	$a3, $s7, $a3
	.p2align	4, , 16
.LBB14_14:                              # %.lr.ph47
                                        #   Parent Loop BB14_3 Depth=1
                                        # =>  This Inner Loop Header: Depth=2
	ld.w	$a4, $a2, 0
	mul.d	$a4, $a4, $fp
	add.d	$a0, $a0, $a4
	add.d	$a0, $a0, $s2
	addi.d	$a3, $a3, -1
	addi.d	$a2, $a2, 4
	bnez	$a3, .LBB14_14
.LBB14_15:                              # %._crit_edge
                                        #   in Loop: Header=BB14_3 Depth=1
	pcalau12i	$a2, %pc_hi20(init_value)
	fld.d	$fa0, $a2, %pc_lo12(init_value)
	ftintrz.w.d	$fa0, $fa0
	movfr2gr.s	$a2, $fa0
	mul.d	$a2, $a2, $s3
	add.w	$a2, $a2, $s4
	addi.w	$a0, $a0, 0
	beq	$a0, $a2, .LBB14_2
# %bb.16:                               #   in Loop: Header=BB14_3 Depth=1
	ld.d	$a0, $sp, 80                    # 8-byte Folded Reload
	ld.w	$a1, $a0, %pc_lo12(current_test)
	pcalau12i	$a0, %pc_hi20(.L.str.19)
	addi.d	$a0, $a0, %pc_lo12(.L.str.19)
	pcaddu18i	$ra, %call36(printf)
	jirl	$ra, $ra, 0
	ori	$t2, $zero, 25
	ld.d	$a0, $sp, 72                    # 8-byte Folded Reload
	ld.w	$a1, $a0, %pc_lo12(iterations)
	b	.LBB14_2
.LBB14_17:                              # %._crit_edge50
	pcaddu18i	$ra, %call36(clock)
	jirl	$ra, $ra, 0
	ld.d	$a1, $sp, 24                    # 8-byte Folded Reload
	ld.d	$fp, $a1, %pc_lo12(start_time)
	pcalau12i	$s2, %pc_hi20(results)
	ld.d	$a2, $s2, %pc_lo12(results)
	pcalau12i	$s1, %pc_hi20(allocated_results)
	ld.w	$a1, $s1, %pc_lo12(allocated_results)
	move	$s0, $a0
	pcalau12i	$a0, %pc_hi20(end_time)
	st.d	$s0, $a0, %pc_lo12(end_time)
	ld.d	$s3, $sp, 80                    # 8-byte Folded Reload
	beqz	$a2, .LBB14_19
# %bb.18:                               # %._crit_edge50
	ld.w	$a0, $s3, %pc_lo12(current_test)
	blt	$a0, $a1, .LBB14_21
.LBB14_19:
	addi.w	$a0, $a1, 10
	st.w	$a0, $s1, %pc_lo12(allocated_results)
	slli.d	$a1, $a0, 4
	move	$a0, $a2
	pcaddu18i	$ra, %call36(realloc)
	jirl	$ra, $ra, 0
	st.d	$a0, $s2, %pc_lo12(results)
	beqz	$a0, .LBB14_22
# %bb.20:                               # %._crit_edge.i
	move	$a2, $a0
	ld.w	$a0, $s3, %pc_lo12(current_test)
.LBB14_21:                              # %_Z13record_resultdPKc.exit
	pcalau12i	$a1, %pc_hi20(.LCPI14_0)
	fld.d	$fa0, $a1, %pc_lo12(.LCPI14_0)
	sub.d	$a1, $s0, $fp
	movgr2fr.d	$fa1, $a1
	ffint.d.l	$fa1, $fa1
	fdiv.d	$fa0, $fa1, $fa0
	alsl.d	$a1, $a0, $a2, 4
	slli.d	$a3, $a0, 4
	fstx.d	$fa0, $a2, $a3
	ld.d	$a2, $sp, 16                    # 8-byte Folded Reload
	st.d	$a2, $a1, 8
	addi.d	$a0, $a0, 1
	st.w	$a0, $s3, %pc_lo12(current_test)
	ld.d	$s8, $sp, 88                    # 8-byte Folded Reload
	ld.d	$s7, $sp, 96                    # 8-byte Folded Reload
	ld.d	$s6, $sp, 104                   # 8-byte Folded Reload
	ld.d	$s5, $sp, 112                   # 8-byte Folded Reload
	ld.d	$s4, $sp, 120                   # 8-byte Folded Reload
	ld.d	$s3, $sp, 128                   # 8-byte Folded Reload
	ld.d	$s2, $sp, 136                   # 8-byte Folded Reload
	ld.d	$s1, $sp, 144                   # 8-byte Folded Reload
	ld.d	$s0, $sp, 152                   # 8-byte Folded Reload
	ld.d	$fp, $sp, 160                   # 8-byte Folded Reload
	ld.d	$ra, $sp, 168                   # 8-byte Folded Reload
	addi.d	$sp, $sp, 176
	ret
.LBB14_22:
	ld.w	$a1, $s1, %pc_lo12(allocated_results)
	pcalau12i	$a0, %pc_hi20(.L.str)
	addi.d	$a0, $a0, %pc_lo12(.L.str)
	pcaddu18i	$ra, %call36(printf)
	jirl	$ra, $ra, 0
	addi.w	$a0, $zero, -1
	pcaddu18i	$ra, %call36(exit)
	jirl	$ra, $ra, 0
.Lfunc_end14:
	.size	_Z27test_for_loop_unroll_factorILi25EiEvPKT0_iPKc, .Lfunc_end14-_Z27test_for_loop_unroll_factorILi25EiEvPKT0_iPKc
	.cfi_endproc
                                        # -- End function
	.section	.rodata.cst8,"aM",@progbits,8
	.p2align	3, 0x0                          # -- Begin function _Z27test_for_loop_unroll_factorILi24EiEvPKT0_iPKc
.LCPI15_0:
	.dword	0x412e848000000000              # double 1.0E+6
	.section	.text._Z27test_for_loop_unroll_factorILi24EiEvPKT0_iPKc,"axG",@progbits,_Z27test_for_loop_unroll_factorILi24EiEvPKT0_iPKc,comdat
	.weak	_Z27test_for_loop_unroll_factorILi24EiEvPKT0_iPKc
	.p2align	5
	.type	_Z27test_for_loop_unroll_factorILi24EiEvPKT0_iPKc,@function
_Z27test_for_loop_unroll_factorILi24EiEvPKT0_iPKc: # @_Z27test_for_loop_unroll_factorILi24EiEvPKT0_iPKc
	.cfi_startproc
# %bb.0:
	addi.d	$sp, $sp, -176
	.cfi_def_cfa_offset 176
	st.d	$ra, $sp, 168                   # 8-byte Folded Spill
	st.d	$fp, $sp, 160                   # 8-byte Folded Spill
	st.d	$s0, $sp, 152                   # 8-byte Folded Spill
	st.d	$s1, $sp, 144                   # 8-byte Folded Spill
	st.d	$s2, $sp, 136                   # 8-byte Folded Spill
	st.d	$s3, $sp, 128                   # 8-byte Folded Spill
	st.d	$s4, $sp, 120                   # 8-byte Folded Spill
	st.d	$s5, $sp, 112                   # 8-byte Folded Spill
	st.d	$s6, $sp, 104                   # 8-byte Folded Spill
	st.d	$s7, $sp, 96                    # 8-byte Folded Spill
	st.d	$s8, $sp, 88                    # 8-byte Folded Spill
	.cfi_offset 1, -8
	.cfi_offset 22, -16
	.cfi_offset 23, -24
	.cfi_offset 24, -32
	.cfi_offset 25, -40
	.cfi_offset 26, -48
	.cfi_offset 27, -56
	.cfi_offset 28, -64
	.cfi_offset 29, -72
	.cfi_offset 30, -80
	.cfi_offset 31, -88
	st.d	$a2, $sp, 16                    # 8-byte Folded Spill
	move	$s0, $a1
	st.d	$a0, $sp, 64                    # 8-byte Folded Spill
	pcaddu18i	$ra, %call36(clock)
	jirl	$ra, $ra, 0
	pcalau12i	$a1, %pc_hi20(iterations)
	st.d	$a1, $sp, 72                    # 8-byte Folded Spill
	ld.w	$a1, $a1, %pc_lo12(iterations)
	pcalau12i	$a2, %pc_hi20(start_time)
	st.d	$a2, $sp, 24                    # 8-byte Folded Spill
	st.d	$a0, $a2, %pc_lo12(start_time)
	pcalau12i	$a0, %pc_hi20(current_test)
	st.d	$a0, $sp, 80                    # 8-byte Folded Spill
	blez	$a1, .LBB15_17
# %bb.1:                                # %.preheader40.lr.ph
	move	$s5, $zero
	addi.w	$s6, $s0, -23
	bstrpick.d	$s7, $s0, 31, 0
	ld.d	$a0, $sp, 64                    # 8-byte Folded Reload
	addi.d	$s8, $a0, 48
	addi.d	$a0, $a0, 16
	st.d	$a0, $sp, 56                    # 8-byte Folded Spill
	ori	$t2, $zero, 24
	lu12i.w	$a0, 65881
	ori	$fp, $a0, 1957
	lu12i.w	$a0, -378418
	ori	$s1, $a0, 2368
	lu12i.w	$a0, -277912
	ori	$s2, $a0, 2488
	vrepli.b	$vr0, 0
	vst	$vr0, $sp, 32                   # 16-byte Folded Spill
	lu12i.w	$a0, -381906
	ori	$s3, $a0, 1088
	lu12i.w	$a0, -310021
	ori	$s4, $a0, 1536
	b	.LBB15_3
	.p2align	4, , 16
.LBB15_2:                               # %_Z9check_sumIiEvT_.exit
                                        #   in Loop: Header=BB15_3 Depth=1
	addi.w	$s5, $s5, 1
	bge	$s5, $a1, .LBB15_17
.LBB15_3:                               # %.preheader40
                                        # =>This Loop Header: Depth=1
                                        #     Child Loop BB15_5 Depth 2
                                        #     Child Loop BB15_11 Depth 2
                                        #     Child Loop BB15_14 Depth 2
	blt	$s0, $t2, .LBB15_7
# %bb.4:                                # %.lr.ph.preheader
                                        #   in Loop: Header=BB15_3 Depth=1
	move	$a2, $zero
	move	$a3, $zero
	move	$a0, $zero
	move	$a4, $s8
	.p2align	4, , 16
.LBB15_5:                               # %.lr.ph
                                        #   Parent Loop BB15_3 Depth=1
                                        # =>  This Inner Loop Header: Depth=2
	ld.w	$a5, $a4, -48
	ld.w	$a6, $a4, -44
	ld.w	$a7, $a4, -40
	ld.w	$t0, $a4, -36
	ld.w	$t1, $a4, -32
	add.d	$a5, $a6, $a5
	ld.w	$a6, $a4, -28
	add.d	$a5, $a5, $a7
	ld.w	$a7, $a4, -24
	add.d	$a5, $a5, $t0
	ld.w	$t0, $a4, -20
	add.d	$a5, $a5, $t1
	ld.w	$t1, $a4, -16
	add.d	$a5, $a5, $a6
	ld.w	$a6, $a4, -12
	add.d	$a5, $a5, $a7
	ld.w	$a7, $a4, -8
	add.d	$a5, $a5, $t0
	ld.w	$t0, $a4, -4
	add.d	$a5, $a5, $t1
	ld.w	$t1, $a4, 0
	add.d	$a5, $a5, $a6
	ld.w	$a6, $a4, 4
	add.d	$a5, $a5, $a7
	ld.w	$a7, $a4, 8
	add.d	$a5, $a5, $t0
	ld.w	$t0, $a4, 12
	add.d	$a5, $a5, $t1
	ld.w	$t1, $a4, 16
	add.d	$a5, $a5, $a6
	ld.w	$a6, $a4, 20
	add.d	$a5, $a5, $a7
	ld.w	$a7, $a4, 24
	add.d	$a5, $a5, $t0
	ld.w	$t0, $a4, 28
	add.d	$a5, $a5, $t1
	ld.w	$t1, $a4, 32
	add.d	$a5, $a5, $a6
	ld.w	$a6, $a4, 36
	add.d	$a5, $a5, $a7
	ld.w	$a7, $a4, 40
	add.d	$a5, $a5, $t0
	ld.w	$t0, $a4, 44
	add.d	$a5, $a5, $t1
	add.d	$a5, $a5, $a6
	add.d	$a5, $a5, $a7
	add.d	$a5, $a5, $t0
	mul.d	$a5, $a5, $fp
	add.d	$a0, $a0, $a5
	add.d	$a0, $a0, $s1
	addi.d	$a3, $a3, 24
	addi.d	$a2, $a2, 24
	addi.d	$a4, $a4, 96
	blt	$a3, $s6, .LBB15_5
# %bb.6:                                # %.preheader
                                        #   in Loop: Header=BB15_3 Depth=1
	addi.w	$a3, $a2, 0
	blt	$a3, $s0, .LBB15_8
	b	.LBB15_15
	.p2align	4, , 16
.LBB15_7:                               #   in Loop: Header=BB15_3 Depth=1
	move	$a0, $zero
	move	$a2, $zero
	addi.w	$a3, $a2, 0
	bge	$a3, $s0, .LBB15_15
.LBB15_8:                               # %.lr.ph46.preheader
                                        #   in Loop: Header=BB15_3 Depth=1
	sub.d	$a4, $s7, $a2
	ori	$a3, $zero, 8
	bgeu	$a4, $a3, .LBB15_10
# %bb.9:                                #   in Loop: Header=BB15_3 Depth=1
	move	$a3, $a2
	b	.LBB15_13
	.p2align	4, , 16
.LBB15_10:                              # %vector.ph
                                        #   in Loop: Header=BB15_3 Depth=1
	move	$a5, $a4
	bstrins.d	$a5, $zero, 2, 0
	add.d	$a3, $a5, $a2
	vld	$vr1, $sp, 32                   # 16-byte Folded Reload
	vori.b	$vr0, $vr1, 0
	vinsgr2vr.w	$vr0, $a0, 0
	ld.d	$a0, $sp, 56                    # 8-byte Folded Reload
	alsl.d	$a0, $a2, $a0, 2
	move	$a2, $a5
	.p2align	4, , 16
.LBB15_11:                              # %vector.body
                                        #   Parent Loop BB15_3 Depth=1
                                        # =>  This Inner Loop Header: Depth=2
	vld	$vr2, $a0, -16
	vld	$vr3, $a0, 0
	vreplgr2vr.w	$vr4, $fp
	vmadd.w	$vr0, $vr2, $vr4
	vreplgr2vr.w	$vr2, $s2
	vmadd.w	$vr1, $vr3, $vr4
	vadd.w	$vr0, $vr0, $vr2
	vadd.w	$vr1, $vr1, $vr2
	addi.d	$a2, $a2, -8
	addi.d	$a0, $a0, 32
	bnez	$a2, .LBB15_11
# %bb.12:                               # %middle.block
                                        #   in Loop: Header=BB15_3 Depth=1
	vadd.w	$vr0, $vr1, $vr0
	vhaddw.d.w	$vr0, $vr0, $vr0
	vhaddw.q.d	$vr0, $vr0, $vr0
	vpickve2gr.d	$a0, $vr0, 0
	beq	$a4, $a5, .LBB15_15
.LBB15_13:                              # %.lr.ph46.preheader64
                                        #   in Loop: Header=BB15_3 Depth=1
	ld.d	$a2, $sp, 64                    # 8-byte Folded Reload
	alsl.d	$a2, $a3, $a2, 2
	sub.d	$a3, $s7, $a3
	.p2align	4, , 16
.LBB15_14:                              # %.lr.ph46
                                        #   Parent Loop BB15_3 Depth=1
                                        # =>  This Inner Loop Header: Depth=2
	ld.w	$a4, $a2, 0
	mul.d	$a4, $a4, $fp
	add.d	$a0, $a0, $a4
	add.d	$a0, $a0, $s2
	addi.d	$a3, $a3, -1
	addi.d	$a2, $a2, 4
	bnez	$a3, .LBB15_14
.LBB15_15:                              # %._crit_edge
                                        #   in Loop: Header=BB15_3 Depth=1
	pcalau12i	$a2, %pc_hi20(init_value)
	fld.d	$fa0, $a2, %pc_lo12(init_value)
	ftintrz.w.d	$fa0, $fa0
	movfr2gr.s	$a2, $fa0
	mul.d	$a2, $a2, $s3
	add.w	$a2, $a2, $s4
	addi.w	$a0, $a0, 0
	beq	$a0, $a2, .LBB15_2
# %bb.16:                               #   in Loop: Header=BB15_3 Depth=1
	ld.d	$a0, $sp, 80                    # 8-byte Folded Reload
	ld.w	$a1, $a0, %pc_lo12(current_test)
	pcalau12i	$a0, %pc_hi20(.L.str.19)
	addi.d	$a0, $a0, %pc_lo12(.L.str.19)
	pcaddu18i	$ra, %call36(printf)
	jirl	$ra, $ra, 0
	ori	$t2, $zero, 24
	ld.d	$a0, $sp, 72                    # 8-byte Folded Reload
	ld.w	$a1, $a0, %pc_lo12(iterations)
	b	.LBB15_2
.LBB15_17:                              # %._crit_edge49
	pcaddu18i	$ra, %call36(clock)
	jirl	$ra, $ra, 0
	ld.d	$a1, $sp, 24                    # 8-byte Folded Reload
	ld.d	$fp, $a1, %pc_lo12(start_time)
	pcalau12i	$s2, %pc_hi20(results)
	ld.d	$a2, $s2, %pc_lo12(results)
	pcalau12i	$s1, %pc_hi20(allocated_results)
	ld.w	$a1, $s1, %pc_lo12(allocated_results)
	move	$s0, $a0
	pcalau12i	$a0, %pc_hi20(end_time)
	st.d	$s0, $a0, %pc_lo12(end_time)
	ld.d	$s3, $sp, 80                    # 8-byte Folded Reload
	beqz	$a2, .LBB15_19
# %bb.18:                               # %._crit_edge49
	ld.w	$a0, $s3, %pc_lo12(current_test)
	blt	$a0, $a1, .LBB15_21
.LBB15_19:
	addi.w	$a0, $a1, 10
	st.w	$a0, $s1, %pc_lo12(allocated_results)
	slli.d	$a1, $a0, 4
	move	$a0, $a2
	pcaddu18i	$ra, %call36(realloc)
	jirl	$ra, $ra, 0
	st.d	$a0, $s2, %pc_lo12(results)
	beqz	$a0, .LBB15_22
# %bb.20:                               # %._crit_edge.i
	move	$a2, $a0
	ld.w	$a0, $s3, %pc_lo12(current_test)
.LBB15_21:                              # %_Z13record_resultdPKc.exit
	pcalau12i	$a1, %pc_hi20(.LCPI15_0)
	fld.d	$fa0, $a1, %pc_lo12(.LCPI15_0)
	sub.d	$a1, $s0, $fp
	movgr2fr.d	$fa1, $a1
	ffint.d.l	$fa1, $fa1
	fdiv.d	$fa0, $fa1, $fa0
	alsl.d	$a1, $a0, $a2, 4
	slli.d	$a3, $a0, 4
	fstx.d	$fa0, $a2, $a3
	ld.d	$a2, $sp, 16                    # 8-byte Folded Reload
	st.d	$a2, $a1, 8
	addi.d	$a0, $a0, 1
	st.w	$a0, $s3, %pc_lo12(current_test)
	ld.d	$s8, $sp, 88                    # 8-byte Folded Reload
	ld.d	$s7, $sp, 96                    # 8-byte Folded Reload
	ld.d	$s6, $sp, 104                   # 8-byte Folded Reload
	ld.d	$s5, $sp, 112                   # 8-byte Folded Reload
	ld.d	$s4, $sp, 120                   # 8-byte Folded Reload
	ld.d	$s3, $sp, 128                   # 8-byte Folded Reload
	ld.d	$s2, $sp, 136                   # 8-byte Folded Reload
	ld.d	$s1, $sp, 144                   # 8-byte Folded Reload
	ld.d	$s0, $sp, 152                   # 8-byte Folded Reload
	ld.d	$fp, $sp, 160                   # 8-byte Folded Reload
	ld.d	$ra, $sp, 168                   # 8-byte Folded Reload
	addi.d	$sp, $sp, 176
	ret
.LBB15_22:
	ld.w	$a1, $s1, %pc_lo12(allocated_results)
	pcalau12i	$a0, %pc_hi20(.L.str)
	addi.d	$a0, $a0, %pc_lo12(.L.str)
	pcaddu18i	$ra, %call36(printf)
	jirl	$ra, $ra, 0
	addi.w	$a0, $zero, -1
	pcaddu18i	$ra, %call36(exit)
	jirl	$ra, $ra, 0
.Lfunc_end15:
	.size	_Z27test_for_loop_unroll_factorILi24EiEvPKT0_iPKc, .Lfunc_end15-_Z27test_for_loop_unroll_factorILi24EiEvPKT0_iPKc
	.cfi_endproc
                                        # -- End function
	.section	.rodata.cst8,"aM",@progbits,8
	.p2align	3, 0x0                          # -- Begin function _Z27test_for_loop_unroll_factorILi23EiEvPKT0_iPKc
.LCPI16_0:
	.dword	0x412e848000000000              # double 1.0E+6
	.section	.text._Z27test_for_loop_unroll_factorILi23EiEvPKT0_iPKc,"axG",@progbits,_Z27test_for_loop_unroll_factorILi23EiEvPKT0_iPKc,comdat
	.weak	_Z27test_for_loop_unroll_factorILi23EiEvPKT0_iPKc
	.p2align	5
	.type	_Z27test_for_loop_unroll_factorILi23EiEvPKT0_iPKc,@function
_Z27test_for_loop_unroll_factorILi23EiEvPKT0_iPKc: # @_Z27test_for_loop_unroll_factorILi23EiEvPKT0_iPKc
	.cfi_startproc
# %bb.0:
	addi.d	$sp, $sp, -176
	.cfi_def_cfa_offset 176
	st.d	$ra, $sp, 168                   # 8-byte Folded Spill
	st.d	$fp, $sp, 160                   # 8-byte Folded Spill
	st.d	$s0, $sp, 152                   # 8-byte Folded Spill
	st.d	$s1, $sp, 144                   # 8-byte Folded Spill
	st.d	$s2, $sp, 136                   # 8-byte Folded Spill
	st.d	$s3, $sp, 128                   # 8-byte Folded Spill
	st.d	$s4, $sp, 120                   # 8-byte Folded Spill
	st.d	$s5, $sp, 112                   # 8-byte Folded Spill
	st.d	$s6, $sp, 104                   # 8-byte Folded Spill
	st.d	$s7, $sp, 96                    # 8-byte Folded Spill
	st.d	$s8, $sp, 88                    # 8-byte Folded Spill
	.cfi_offset 1, -8
	.cfi_offset 22, -16
	.cfi_offset 23, -24
	.cfi_offset 24, -32
	.cfi_offset 25, -40
	.cfi_offset 26, -48
	.cfi_offset 27, -56
	.cfi_offset 28, -64
	.cfi_offset 29, -72
	.cfi_offset 30, -80
	.cfi_offset 31, -88
	st.d	$a2, $sp, 16                    # 8-byte Folded Spill
	move	$s0, $a1
	st.d	$a0, $sp, 64                    # 8-byte Folded Spill
	pcaddu18i	$ra, %call36(clock)
	jirl	$ra, $ra, 0
	pcalau12i	$a1, %pc_hi20(iterations)
	st.d	$a1, $sp, 72                    # 8-byte Folded Spill
	ld.w	$a1, $a1, %pc_lo12(iterations)
	pcalau12i	$a2, %pc_hi20(start_time)
	st.d	$a2, $sp, 24                    # 8-byte Folded Spill
	st.d	$a0, $a2, %pc_lo12(start_time)
	pcalau12i	$a0, %pc_hi20(current_test)
	st.d	$a0, $sp, 80                    # 8-byte Folded Spill
	blez	$a1, .LBB16_17
# %bb.1:                                # %.preheader39.lr.ph
	move	$s5, $zero
	addi.w	$s6, $s0, -22
	bstrpick.d	$s7, $s0, 31, 0
	ld.d	$a0, $sp, 64                    # 8-byte Folded Reload
	addi.d	$s8, $a0, 44
	addi.d	$a0, $a0, 16
	st.d	$a0, $sp, 56                    # 8-byte Folded Spill
	ori	$t2, $zero, 23
	lu12i.w	$a0, 65881
	ori	$fp, $a0, 1957
	lu12i.w	$a0, -100507
	ori	$s1, $a0, 3976
	lu12i.w	$a0, -277912
	ori	$s2, $a0, 2488
	vrepli.b	$vr0, 0
	vst	$vr0, $sp, 32                   # 16-byte Folded Spill
	lu12i.w	$a0, -381906
	ori	$s3, $a0, 1088
	lu12i.w	$a0, -310021
	ori	$s4, $a0, 1536
	b	.LBB16_3
	.p2align	4, , 16
.LBB16_2:                               # %_Z9check_sumIiEvT_.exit
                                        #   in Loop: Header=BB16_3 Depth=1
	addi.w	$s5, $s5, 1
	bge	$s5, $a1, .LBB16_17
.LBB16_3:                               # %.preheader39
                                        # =>This Loop Header: Depth=1
                                        #     Child Loop BB16_5 Depth 2
                                        #     Child Loop BB16_11 Depth 2
                                        #     Child Loop BB16_14 Depth 2
	blt	$s0, $t2, .LBB16_7
# %bb.4:                                # %.lr.ph.preheader
                                        #   in Loop: Header=BB16_3 Depth=1
	move	$a2, $zero
	move	$a3, $zero
	move	$a0, $zero
	move	$a4, $s8
	.p2align	4, , 16
.LBB16_5:                               # %.lr.ph
                                        #   Parent Loop BB16_3 Depth=1
                                        # =>  This Inner Loop Header: Depth=2
	ld.w	$a5, $a4, -44
	ld.w	$a6, $a4, -40
	ld.w	$a7, $a4, -36
	ld.w	$t0, $a4, -32
	ld.w	$t1, $a4, -28
	add.d	$a5, $a6, $a5
	ld.w	$a6, $a4, -24
	add.d	$a5, $a5, $a7
	ld.w	$a7, $a4, -20
	add.d	$a5, $a5, $t0
	ld.w	$t0, $a4, -16
	add.d	$a5, $a5, $t1
	ld.w	$t1, $a4, -12
	add.d	$a5, $a5, $a6
	ld.w	$a6, $a4, -8
	add.d	$a5, $a5, $a7
	ld.w	$a7, $a4, -4
	add.d	$a5, $a5, $t0
	ld.w	$t0, $a4, 0
	add.d	$a5, $a5, $t1
	ld.w	$t1, $a4, 4
	add.d	$a5, $a5, $a6
	ld.w	$a6, $a4, 8
	add.d	$a5, $a5, $a7
	ld.w	$a7, $a4, 12
	add.d	$a5, $a5, $t0
	ld.w	$t0, $a4, 16
	add.d	$a5, $a5, $t1
	ld.w	$t1, $a4, 20
	add.d	$a5, $a5, $a6
	ld.w	$a6, $a4, 24
	add.d	$a5, $a5, $a7
	ld.w	$a7, $a4, 28
	add.d	$a5, $a5, $t0
	ld.w	$t0, $a4, 32
	add.d	$a5, $a5, $t1
	ld.w	$t1, $a4, 36
	add.d	$a5, $a5, $a6
	ld.w	$a6, $a4, 40
	add.d	$a5, $a5, $a7
	ld.w	$a7, $a4, 44
	add.d	$a5, $a5, $t0
	add.d	$a5, $a5, $t1
	add.d	$a5, $a5, $a6
	add.d	$a5, $a5, $a7
	mul.d	$a5, $a5, $fp
	add.d	$a0, $a0, $a5
	add.d	$a0, $a0, $s1
	addi.d	$a3, $a3, 23
	addi.d	$a2, $a2, 23
	addi.d	$a4, $a4, 92
	blt	$a3, $s6, .LBB16_5
# %bb.6:                                # %.preheader
                                        #   in Loop: Header=BB16_3 Depth=1
	addi.w	$a3, $a2, 0
	blt	$a3, $s0, .LBB16_8
	b	.LBB16_15
	.p2align	4, , 16
.LBB16_7:                               #   in Loop: Header=BB16_3 Depth=1
	move	$a0, $zero
	move	$a2, $zero
	addi.w	$a3, $a2, 0
	bge	$a3, $s0, .LBB16_15
.LBB16_8:                               # %.lr.ph45.preheader
                                        #   in Loop: Header=BB16_3 Depth=1
	sub.d	$a4, $s7, $a2
	ori	$a3, $zero, 8
	bgeu	$a4, $a3, .LBB16_10
# %bb.9:                                #   in Loop: Header=BB16_3 Depth=1
	move	$a3, $a2
	b	.LBB16_13
	.p2align	4, , 16
.LBB16_10:                              # %vector.ph
                                        #   in Loop: Header=BB16_3 Depth=1
	move	$a5, $a4
	bstrins.d	$a5, $zero, 2, 0
	add.d	$a3, $a5, $a2
	vld	$vr1, $sp, 32                   # 16-byte Folded Reload
	vori.b	$vr0, $vr1, 0
	vinsgr2vr.w	$vr0, $a0, 0
	ld.d	$a0, $sp, 56                    # 8-byte Folded Reload
	alsl.d	$a0, $a2, $a0, 2
	move	$a2, $a5
	.p2align	4, , 16
.LBB16_11:                              # %vector.body
                                        #   Parent Loop BB16_3 Depth=1
                                        # =>  This Inner Loop Header: Depth=2
	vld	$vr2, $a0, -16
	vld	$vr3, $a0, 0
	vreplgr2vr.w	$vr4, $fp
	vmadd.w	$vr0, $vr2, $vr4
	vreplgr2vr.w	$vr2, $s2
	vmadd.w	$vr1, $vr3, $vr4
	vadd.w	$vr0, $vr0, $vr2
	vadd.w	$vr1, $vr1, $vr2
	addi.d	$a2, $a2, -8
	addi.d	$a0, $a0, 32
	bnez	$a2, .LBB16_11
# %bb.12:                               # %middle.block
                                        #   in Loop: Header=BB16_3 Depth=1
	vadd.w	$vr0, $vr1, $vr0
	vhaddw.d.w	$vr0, $vr0, $vr0
	vhaddw.q.d	$vr0, $vr0, $vr0
	vpickve2gr.d	$a0, $vr0, 0
	beq	$a4, $a5, .LBB16_15
.LBB16_13:                              # %.lr.ph45.preheader63
                                        #   in Loop: Header=BB16_3 Depth=1
	ld.d	$a2, $sp, 64                    # 8-byte Folded Reload
	alsl.d	$a2, $a3, $a2, 2
	sub.d	$a3, $s7, $a3
	.p2align	4, , 16
.LBB16_14:                              # %.lr.ph45
                                        #   Parent Loop BB16_3 Depth=1
                                        # =>  This Inner Loop Header: Depth=2
	ld.w	$a4, $a2, 0
	mul.d	$a4, $a4, $fp
	add.d	$a0, $a0, $a4
	add.d	$a0, $a0, $s2
	addi.d	$a3, $a3, -1
	addi.d	$a2, $a2, 4
	bnez	$a3, .LBB16_14
.LBB16_15:                              # %._crit_edge
                                        #   in Loop: Header=BB16_3 Depth=1
	pcalau12i	$a2, %pc_hi20(init_value)
	fld.d	$fa0, $a2, %pc_lo12(init_value)
	ftintrz.w.d	$fa0, $fa0
	movfr2gr.s	$a2, $fa0
	mul.d	$a2, $a2, $s3
	add.w	$a2, $a2, $s4
	addi.w	$a0, $a0, 0
	beq	$a0, $a2, .LBB16_2
# %bb.16:                               #   in Loop: Header=BB16_3 Depth=1
	ld.d	$a0, $sp, 80                    # 8-byte Folded Reload
	ld.w	$a1, $a0, %pc_lo12(current_test)
	pcalau12i	$a0, %pc_hi20(.L.str.19)
	addi.d	$a0, $a0, %pc_lo12(.L.str.19)
	pcaddu18i	$ra, %call36(printf)
	jirl	$ra, $ra, 0
	ori	$t2, $zero, 23
	ld.d	$a0, $sp, 72                    # 8-byte Folded Reload
	ld.w	$a1, $a0, %pc_lo12(iterations)
	b	.LBB16_2
.LBB16_17:                              # %._crit_edge48
	pcaddu18i	$ra, %call36(clock)
	jirl	$ra, $ra, 0
	ld.d	$a1, $sp, 24                    # 8-byte Folded Reload
	ld.d	$fp, $a1, %pc_lo12(start_time)
	pcalau12i	$s2, %pc_hi20(results)
	ld.d	$a2, $s2, %pc_lo12(results)
	pcalau12i	$s1, %pc_hi20(allocated_results)
	ld.w	$a1, $s1, %pc_lo12(allocated_results)
	move	$s0, $a0
	pcalau12i	$a0, %pc_hi20(end_time)
	st.d	$s0, $a0, %pc_lo12(end_time)
	ld.d	$s3, $sp, 80                    # 8-byte Folded Reload
	beqz	$a2, .LBB16_19
# %bb.18:                               # %._crit_edge48
	ld.w	$a0, $s3, %pc_lo12(current_test)
	blt	$a0, $a1, .LBB16_21
.LBB16_19:
	addi.w	$a0, $a1, 10
	st.w	$a0, $s1, %pc_lo12(allocated_results)
	slli.d	$a1, $a0, 4
	move	$a0, $a2
	pcaddu18i	$ra, %call36(realloc)
	jirl	$ra, $ra, 0
	st.d	$a0, $s2, %pc_lo12(results)
	beqz	$a0, .LBB16_22
# %bb.20:                               # %._crit_edge.i
	move	$a2, $a0
	ld.w	$a0, $s3, %pc_lo12(current_test)
.LBB16_21:                              # %_Z13record_resultdPKc.exit
	pcalau12i	$a1, %pc_hi20(.LCPI16_0)
	fld.d	$fa0, $a1, %pc_lo12(.LCPI16_0)
	sub.d	$a1, $s0, $fp
	movgr2fr.d	$fa1, $a1
	ffint.d.l	$fa1, $fa1
	fdiv.d	$fa0, $fa1, $fa0
	alsl.d	$a1, $a0, $a2, 4
	slli.d	$a3, $a0, 4
	fstx.d	$fa0, $a2, $a3
	ld.d	$a2, $sp, 16                    # 8-byte Folded Reload
	st.d	$a2, $a1, 8
	addi.d	$a0, $a0, 1
	st.w	$a0, $s3, %pc_lo12(current_test)
	ld.d	$s8, $sp, 88                    # 8-byte Folded Reload
	ld.d	$s7, $sp, 96                    # 8-byte Folded Reload
	ld.d	$s6, $sp, 104                   # 8-byte Folded Reload
	ld.d	$s5, $sp, 112                   # 8-byte Folded Reload
	ld.d	$s4, $sp, 120                   # 8-byte Folded Reload
	ld.d	$s3, $sp, 128                   # 8-byte Folded Reload
	ld.d	$s2, $sp, 136                   # 8-byte Folded Reload
	ld.d	$s1, $sp, 144                   # 8-byte Folded Reload
	ld.d	$s0, $sp, 152                   # 8-byte Folded Reload
	ld.d	$fp, $sp, 160                   # 8-byte Folded Reload
	ld.d	$ra, $sp, 168                   # 8-byte Folded Reload
	addi.d	$sp, $sp, 176
	ret
.LBB16_22:
	ld.w	$a1, $s1, %pc_lo12(allocated_results)
	pcalau12i	$a0, %pc_hi20(.L.str)
	addi.d	$a0, $a0, %pc_lo12(.L.str)
	pcaddu18i	$ra, %call36(printf)
	jirl	$ra, $ra, 0
	addi.w	$a0, $zero, -1
	pcaddu18i	$ra, %call36(exit)
	jirl	$ra, $ra, 0
.Lfunc_end16:
	.size	_Z27test_for_loop_unroll_factorILi23EiEvPKT0_iPKc, .Lfunc_end16-_Z27test_for_loop_unroll_factorILi23EiEvPKT0_iPKc
	.cfi_endproc
                                        # -- End function
	.section	.rodata.cst8,"aM",@progbits,8
	.p2align	3, 0x0                          # -- Begin function _Z27test_for_loop_unroll_factorILi22EiEvPKT0_iPKc
.LCPI17_0:
	.dword	0x412e848000000000              # double 1.0E+6
	.section	.text._Z27test_for_loop_unroll_factorILi22EiEvPKT0_iPKc,"axG",@progbits,_Z27test_for_loop_unroll_factorILi22EiEvPKT0_iPKc,comdat
	.weak	_Z27test_for_loop_unroll_factorILi22EiEvPKT0_iPKc
	.p2align	5
	.type	_Z27test_for_loop_unroll_factorILi22EiEvPKT0_iPKc,@function
_Z27test_for_loop_unroll_factorILi22EiEvPKT0_iPKc: # @_Z27test_for_loop_unroll_factorILi22EiEvPKT0_iPKc
	.cfi_startproc
# %bb.0:
	addi.d	$sp, $sp, -176
	.cfi_def_cfa_offset 176
	st.d	$ra, $sp, 168                   # 8-byte Folded Spill
	st.d	$fp, $sp, 160                   # 8-byte Folded Spill
	st.d	$s0, $sp, 152                   # 8-byte Folded Spill
	st.d	$s1, $sp, 144                   # 8-byte Folded Spill
	st.d	$s2, $sp, 136                   # 8-byte Folded Spill
	st.d	$s3, $sp, 128                   # 8-byte Folded Spill
	st.d	$s4, $sp, 120                   # 8-byte Folded Spill
	st.d	$s5, $sp, 112                   # 8-byte Folded Spill
	st.d	$s6, $sp, 104                   # 8-byte Folded Spill
	st.d	$s7, $sp, 96                    # 8-byte Folded Spill
	st.d	$s8, $sp, 88                    # 8-byte Folded Spill
	.cfi_offset 1, -8
	.cfi_offset 22, -16
	.cfi_offset 23, -24
	.cfi_offset 24, -32
	.cfi_offset 25, -40
	.cfi_offset 26, -48
	.cfi_offset 27, -56
	.cfi_offset 28, -64
	.cfi_offset 29, -72
	.cfi_offset 30, -80
	.cfi_offset 31, -88
	st.d	$a2, $sp, 16                    # 8-byte Folded Spill
	move	$s0, $a1
	st.d	$a0, $sp, 64                    # 8-byte Folded Spill
	pcaddu18i	$ra, %call36(clock)
	jirl	$ra, $ra, 0
	pcalau12i	$a1, %pc_hi20(iterations)
	st.d	$a1, $sp, 72                    # 8-byte Folded Spill
	ld.w	$a1, $a1, %pc_lo12(iterations)
	pcalau12i	$a2, %pc_hi20(start_time)
	st.d	$a2, $sp, 24                    # 8-byte Folded Spill
	st.d	$a0, $a2, %pc_lo12(start_time)
	pcalau12i	$a0, %pc_hi20(current_test)
	st.d	$a0, $sp, 80                    # 8-byte Folded Spill
	blez	$a1, .LBB17_17
# %bb.1:                                # %.preheader38.lr.ph
	move	$s5, $zero
	addi.w	$s6, $s0, -21
	bstrpick.d	$s7, $s0, 31, 0
	ld.d	$a0, $sp, 64                    # 8-byte Folded Reload
	addi.d	$s8, $a0, 44
	addi.d	$a0, $a0, 16
	st.d	$a0, $sp, 56                    # 8-byte Folded Spill
	ori	$t2, $zero, 22
	lu12i.w	$a0, 65881
	ori	$fp, $a0, 1957
	lu12i.w	$a0, 177405
	ori	$s1, $a0, 1488
	lu12i.w	$a0, -277912
	ori	$s2, $a0, 2488
	vrepli.b	$vr0, 0
	vst	$vr0, $sp, 32                   # 16-byte Folded Spill
	lu12i.w	$a0, -381906
	ori	$s3, $a0, 1088
	lu12i.w	$a0, -310021
	ori	$s4, $a0, 1536
	b	.LBB17_3
	.p2align	4, , 16
.LBB17_2:                               # %_Z9check_sumIiEvT_.exit
                                        #   in Loop: Header=BB17_3 Depth=1
	addi.w	$s5, $s5, 1
	bge	$s5, $a1, .LBB17_17
.LBB17_3:                               # %.preheader38
                                        # =>This Loop Header: Depth=1
                                        #     Child Loop BB17_5 Depth 2
                                        #     Child Loop BB17_11 Depth 2
                                        #     Child Loop BB17_14 Depth 2
	blt	$s0, $t2, .LBB17_7
# %bb.4:                                # %.lr.ph.preheader
                                        #   in Loop: Header=BB17_3 Depth=1
	move	$a2, $zero
	move	$a3, $zero
	move	$a0, $zero
	move	$a4, $s8
	.p2align	4, , 16
.LBB17_5:                               # %.lr.ph
                                        #   Parent Loop BB17_3 Depth=1
                                        # =>  This Inner Loop Header: Depth=2
	ld.w	$a5, $a4, -44
	ld.w	$a6, $a4, -40
	ld.w	$a7, $a4, -36
	ld.w	$t0, $a4, -32
	ld.w	$t1, $a4, -28
	add.d	$a5, $a6, $a5
	ld.w	$a6, $a4, -24
	add.d	$a5, $a5, $a7
	ld.w	$a7, $a4, -20
	add.d	$a5, $a5, $t0
	ld.w	$t0, $a4, -16
	add.d	$a5, $a5, $t1
	ld.w	$t1, $a4, -12
	add.d	$a5, $a5, $a6
	ld.w	$a6, $a4, -8
	add.d	$a5, $a5, $a7
	ld.w	$a7, $a4, -4
	add.d	$a5, $a5, $t0
	ld.w	$t0, $a4, 0
	add.d	$a5, $a5, $t1
	ld.w	$t1, $a4, 4
	add.d	$a5, $a5, $a6
	ld.w	$a6, $a4, 8
	add.d	$a5, $a5, $a7
	ld.w	$a7, $a4, 12
	add.d	$a5, $a5, $t0
	ld.w	$t0, $a4, 16
	add.d	$a5, $a5, $t1
	ld.w	$t1, $a4, 20
	add.d	$a5, $a5, $a6
	ld.w	$a6, $a4, 24
	add.d	$a5, $a5, $a7
	ld.w	$a7, $a4, 28
	add.d	$a5, $a5, $t0
	ld.w	$t0, $a4, 32
	add.d	$a5, $a5, $t1
	ld.w	$t1, $a4, 36
	add.d	$a5, $a5, $a6
	ld.w	$a6, $a4, 40
	add.d	$a5, $a5, $a7
	add.d	$a5, $a5, $t0
	add.d	$a5, $a5, $t1
	add.d	$a5, $a5, $a6
	mul.d	$a5, $a5, $fp
	add.d	$a0, $a0, $a5
	add.d	$a0, $a0, $s1
	addi.d	$a3, $a3, 22
	addi.d	$a2, $a2, 22
	addi.d	$a4, $a4, 88
	blt	$a3, $s6, .LBB17_5
# %bb.6:                                # %.preheader
                                        #   in Loop: Header=BB17_3 Depth=1
	addi.w	$a3, $a2, 0
	blt	$a3, $s0, .LBB17_8
	b	.LBB17_15
	.p2align	4, , 16
.LBB17_7:                               #   in Loop: Header=BB17_3 Depth=1
	move	$a0, $zero
	move	$a2, $zero
	addi.w	$a3, $a2, 0
	bge	$a3, $s0, .LBB17_15
.LBB17_8:                               # %.lr.ph44.preheader
                                        #   in Loop: Header=BB17_3 Depth=1
	sub.d	$a4, $s7, $a2
	ori	$a3, $zero, 8
	bgeu	$a4, $a3, .LBB17_10
# %bb.9:                                #   in Loop: Header=BB17_3 Depth=1
	move	$a3, $a2
	b	.LBB17_13
	.p2align	4, , 16
.LBB17_10:                              # %vector.ph
                                        #   in Loop: Header=BB17_3 Depth=1
	move	$a5, $a4
	bstrins.d	$a5, $zero, 2, 0
	add.d	$a3, $a5, $a2
	vld	$vr1, $sp, 32                   # 16-byte Folded Reload
	vori.b	$vr0, $vr1, 0
	vinsgr2vr.w	$vr0, $a0, 0
	ld.d	$a0, $sp, 56                    # 8-byte Folded Reload
	alsl.d	$a0, $a2, $a0, 2
	move	$a2, $a5
	.p2align	4, , 16
.LBB17_11:                              # %vector.body
                                        #   Parent Loop BB17_3 Depth=1
                                        # =>  This Inner Loop Header: Depth=2
	vld	$vr2, $a0, -16
	vld	$vr3, $a0, 0
	vreplgr2vr.w	$vr4, $fp
	vmadd.w	$vr0, $vr2, $vr4
	vreplgr2vr.w	$vr2, $s2
	vmadd.w	$vr1, $vr3, $vr4
	vadd.w	$vr0, $vr0, $vr2
	vadd.w	$vr1, $vr1, $vr2
	addi.d	$a2, $a2, -8
	addi.d	$a0, $a0, 32
	bnez	$a2, .LBB17_11
# %bb.12:                               # %middle.block
                                        #   in Loop: Header=BB17_3 Depth=1
	vadd.w	$vr0, $vr1, $vr0
	vhaddw.d.w	$vr0, $vr0, $vr0
	vhaddw.q.d	$vr0, $vr0, $vr0
	vpickve2gr.d	$a0, $vr0, 0
	beq	$a4, $a5, .LBB17_15
.LBB17_13:                              # %.lr.ph44.preheader62
                                        #   in Loop: Header=BB17_3 Depth=1
	ld.d	$a2, $sp, 64                    # 8-byte Folded Reload
	alsl.d	$a2, $a3, $a2, 2
	sub.d	$a3, $s7, $a3
	.p2align	4, , 16
.LBB17_14:                              # %.lr.ph44
                                        #   Parent Loop BB17_3 Depth=1
                                        # =>  This Inner Loop Header: Depth=2
	ld.w	$a4, $a2, 0
	mul.d	$a4, $a4, $fp
	add.d	$a0, $a0, $a4
	add.d	$a0, $a0, $s2
	addi.d	$a3, $a3, -1
	addi.d	$a2, $a2, 4
	bnez	$a3, .LBB17_14
.LBB17_15:                              # %._crit_edge
                                        #   in Loop: Header=BB17_3 Depth=1
	pcalau12i	$a2, %pc_hi20(init_value)
	fld.d	$fa0, $a2, %pc_lo12(init_value)
	ftintrz.w.d	$fa0, $fa0
	movfr2gr.s	$a2, $fa0
	mul.d	$a2, $a2, $s3
	add.w	$a2, $a2, $s4
	addi.w	$a0, $a0, 0
	beq	$a0, $a2, .LBB17_2
# %bb.16:                               #   in Loop: Header=BB17_3 Depth=1
	ld.d	$a0, $sp, 80                    # 8-byte Folded Reload
	ld.w	$a1, $a0, %pc_lo12(current_test)
	pcalau12i	$a0, %pc_hi20(.L.str.19)
	addi.d	$a0, $a0, %pc_lo12(.L.str.19)
	pcaddu18i	$ra, %call36(printf)
	jirl	$ra, $ra, 0
	ori	$t2, $zero, 22
	ld.d	$a0, $sp, 72                    # 8-byte Folded Reload
	ld.w	$a1, $a0, %pc_lo12(iterations)
	b	.LBB17_2
.LBB17_17:                              # %._crit_edge47
	pcaddu18i	$ra, %call36(clock)
	jirl	$ra, $ra, 0
	ld.d	$a1, $sp, 24                    # 8-byte Folded Reload
	ld.d	$fp, $a1, %pc_lo12(start_time)
	pcalau12i	$s2, %pc_hi20(results)
	ld.d	$a2, $s2, %pc_lo12(results)
	pcalau12i	$s1, %pc_hi20(allocated_results)
	ld.w	$a1, $s1, %pc_lo12(allocated_results)
	move	$s0, $a0
	pcalau12i	$a0, %pc_hi20(end_time)
	st.d	$s0, $a0, %pc_lo12(end_time)
	ld.d	$s3, $sp, 80                    # 8-byte Folded Reload
	beqz	$a2, .LBB17_19
# %bb.18:                               # %._crit_edge47
	ld.w	$a0, $s3, %pc_lo12(current_test)
	blt	$a0, $a1, .LBB17_21
.LBB17_19:
	addi.w	$a0, $a1, 10
	st.w	$a0, $s1, %pc_lo12(allocated_results)
	slli.d	$a1, $a0, 4
	move	$a0, $a2
	pcaddu18i	$ra, %call36(realloc)
	jirl	$ra, $ra, 0
	st.d	$a0, $s2, %pc_lo12(results)
	beqz	$a0, .LBB17_22
# %bb.20:                               # %._crit_edge.i
	move	$a2, $a0
	ld.w	$a0, $s3, %pc_lo12(current_test)
.LBB17_21:                              # %_Z13record_resultdPKc.exit
	pcalau12i	$a1, %pc_hi20(.LCPI17_0)
	fld.d	$fa0, $a1, %pc_lo12(.LCPI17_0)
	sub.d	$a1, $s0, $fp
	movgr2fr.d	$fa1, $a1
	ffint.d.l	$fa1, $fa1
	fdiv.d	$fa0, $fa1, $fa0
	alsl.d	$a1, $a0, $a2, 4
	slli.d	$a3, $a0, 4
	fstx.d	$fa0, $a2, $a3
	ld.d	$a2, $sp, 16                    # 8-byte Folded Reload
	st.d	$a2, $a1, 8
	addi.d	$a0, $a0, 1
	st.w	$a0, $s3, %pc_lo12(current_test)
	ld.d	$s8, $sp, 88                    # 8-byte Folded Reload
	ld.d	$s7, $sp, 96                    # 8-byte Folded Reload
	ld.d	$s6, $sp, 104                   # 8-byte Folded Reload
	ld.d	$s5, $sp, 112                   # 8-byte Folded Reload
	ld.d	$s4, $sp, 120                   # 8-byte Folded Reload
	ld.d	$s3, $sp, 128                   # 8-byte Folded Reload
	ld.d	$s2, $sp, 136                   # 8-byte Folded Reload
	ld.d	$s1, $sp, 144                   # 8-byte Folded Reload
	ld.d	$s0, $sp, 152                   # 8-byte Folded Reload
	ld.d	$fp, $sp, 160                   # 8-byte Folded Reload
	ld.d	$ra, $sp, 168                   # 8-byte Folded Reload
	addi.d	$sp, $sp, 176
	ret
.LBB17_22:
	ld.w	$a1, $s1, %pc_lo12(allocated_results)
	pcalau12i	$a0, %pc_hi20(.L.str)
	addi.d	$a0, $a0, %pc_lo12(.L.str)
	pcaddu18i	$ra, %call36(printf)
	jirl	$ra, $ra, 0
	addi.w	$a0, $zero, -1
	pcaddu18i	$ra, %call36(exit)
	jirl	$ra, $ra, 0
.Lfunc_end17:
	.size	_Z27test_for_loop_unroll_factorILi22EiEvPKT0_iPKc, .Lfunc_end17-_Z27test_for_loop_unroll_factorILi22EiEvPKT0_iPKc
	.cfi_endproc
                                        # -- End function
	.section	.rodata.cst8,"aM",@progbits,8
	.p2align	3, 0x0                          # -- Begin function _Z27test_for_loop_unroll_factorILi21EiEvPKT0_iPKc
.LCPI18_0:
	.dword	0x412e848000000000              # double 1.0E+6
	.section	.text._Z27test_for_loop_unroll_factorILi21EiEvPKT0_iPKc,"axG",@progbits,_Z27test_for_loop_unroll_factorILi21EiEvPKT0_iPKc,comdat
	.weak	_Z27test_for_loop_unroll_factorILi21EiEvPKT0_iPKc
	.p2align	5
	.type	_Z27test_for_loop_unroll_factorILi21EiEvPKT0_iPKc,@function
_Z27test_for_loop_unroll_factorILi21EiEvPKT0_iPKc: # @_Z27test_for_loop_unroll_factorILi21EiEvPKT0_iPKc
	.cfi_startproc
# %bb.0:
	addi.d	$sp, $sp, -240
	.cfi_def_cfa_offset 240
	st.d	$ra, $sp, 232                   # 8-byte Folded Spill
	st.d	$fp, $sp, 224                   # 8-byte Folded Spill
	st.d	$s0, $sp, 216                   # 8-byte Folded Spill
	st.d	$s1, $sp, 208                   # 8-byte Folded Spill
	st.d	$s2, $sp, 200                   # 8-byte Folded Spill
	st.d	$s3, $sp, 192                   # 8-byte Folded Spill
	st.d	$s4, $sp, 184                   # 8-byte Folded Spill
	st.d	$s5, $sp, 176                   # 8-byte Folded Spill
	st.d	$s6, $sp, 168                   # 8-byte Folded Spill
	st.d	$s7, $sp, 160                   # 8-byte Folded Spill
	st.d	$s8, $sp, 152                   # 8-byte Folded Spill
	.cfi_offset 1, -8
	.cfi_offset 22, -16
	.cfi_offset 23, -24
	.cfi_offset 24, -32
	.cfi_offset 25, -40
	.cfi_offset 26, -48
	.cfi_offset 27, -56
	.cfi_offset 28, -64
	.cfi_offset 29, -72
	.cfi_offset 30, -80
	.cfi_offset 31, -88
	st.d	$a2, $sp, 16                    # 8-byte Folded Spill
	move	$s0, $a1
	st.d	$a0, $sp, 64                    # 8-byte Folded Spill
	pcaddu18i	$ra, %call36(clock)
	jirl	$ra, $ra, 0
	pcalau12i	$a1, %pc_hi20(iterations)
	st.d	$a1, $sp, 88                    # 8-byte Folded Spill
	ld.w	$a2, $a1, %pc_lo12(iterations)
	pcalau12i	$a1, %pc_hi20(start_time)
	st.d	$a1, $sp, 24                    # 8-byte Folded Spill
	st.d	$a0, $a1, %pc_lo12(start_time)
	pcalau12i	$a0, %pc_hi20(current_test)
	st.d	$a0, $sp, 96                    # 8-byte Folded Spill
	st.d	$a2, $sp, 136                   # 8-byte Folded Spill
	blez	$a2, .LBB18_17
# %bb.1:                                # %.preheader36.lr.ph
	move	$a1, $zero
	addi.w	$s4, $s0, -20
	bstrpick.d	$a0, $s0, 31, 0
	st.d	$a0, $sp, 104                   # 8-byte Folded Spill
	ld.d	$a0, $sp, 64                    # 8-byte Folded Reload
	addi.d	$a2, $a0, 40
	st.d	$a2, $sp, 80                    # 8-byte Folded Spill
	addi.d	$a0, $a0, 16
	st.d	$a0, $sp, 56                    # 8-byte Folded Spill
	lu12i.w	$a0, 65881
	ori	$fp, $a0, 1957
	lu12i.w	$a0, 455316
	ori	$s1, $a0, 3096
	lu12i.w	$a0, -277912
	ori	$s2, $a0, 2488
	vrepli.b	$vr0, 0
	vst	$vr0, $sp, 32                   # 16-byte Folded Spill
	lu12i.w	$a0, -381906
	ori	$a0, $a0, 1088
	st.d	$a0, $sp, 120                   # 8-byte Folded Spill
	lu12i.w	$a0, -310021
	ori	$a0, $a0, 1536
	st.d	$a0, $sp, 112                   # 8-byte Folded Spill
	st.d	$s0, $sp, 128                   # 8-byte Folded Spill
	st.d	$s2, $sp, 72                    # 8-byte Folded Spill
	b	.LBB18_3
	.p2align	4, , 16
.LBB18_2:                               # %_Z9check_sumIiEvT_.exit
                                        #   in Loop: Header=BB18_3 Depth=1
	addi.w	$a1, $s3, 1
	ld.d	$a0, $sp, 136                   # 8-byte Folded Reload
	bge	$a1, $a0, .LBB18_17
.LBB18_3:                               # %.preheader36
                                        # =>This Loop Header: Depth=1
                                        #     Child Loop BB18_5 Depth 2
                                        #     Child Loop BB18_11 Depth 2
                                        #     Child Loop BB18_14 Depth 2
	st.d	$a1, $sp, 144                   # 8-byte Folded Spill
	ori	$a0, $zero, 21
	blt	$s0, $a0, .LBB18_6
# %bb.4:                                # %.lr.ph.preheader
                                        #   in Loop: Header=BB18_3 Depth=1
	move	$a2, $zero
	move	$a3, $zero
	move	$a0, $zero
	ld.d	$a4, $sp, 80                    # 8-byte Folded Reload
	.p2align	4, , 16
.LBB18_5:                               # %.lr.ph
                                        #   Parent Loop BB18_3 Depth=1
                                        # =>  This Inner Loop Header: Depth=2
	ld.w	$a5, $a4, -40
	ld.w	$a6, $a4, -36
	ld.w	$a7, $a4, -32
	ld.w	$t0, $a4, -28
	ld.w	$t1, $a4, -24
	ld.w	$t2, $a4, -20
	ld.w	$t3, $a4, -16
	ld.w	$t4, $a4, -12
	ld.w	$t5, $a4, -8
	ld.w	$t6, $a4, -4
	ld.w	$t7, $a4, 0
	ld.w	$t8, $a4, 4
	ld.w	$ra, $a4, 8
	ld.w	$s8, $a4, 12
	ld.w	$s7, $a4, 16
	ld.w	$s3, $a4, 20
	move	$s2, $s1
	move	$s1, $s4
	ld.w	$s4, $a4, 24
	ld.w	$a1, $a4, 28
	ld.w	$s0, $a4, 32
	ld.w	$s5, $a4, 36
	ld.w	$s6, $a4, 40
	add.d	$a5, $a6, $a5
	add.d	$a5, $a5, $a7
	add.d	$a5, $a5, $t0
	add.d	$a5, $a5, $t1
	add.d	$a5, $a5, $t2
	add.d	$a5, $a5, $t3
	add.d	$a5, $a5, $t4
	add.d	$a5, $a5, $t5
	add.d	$a5, $a5, $t6
	add.d	$a5, $a5, $t7
	add.d	$a5, $a5, $t8
	add.d	$a5, $a5, $ra
	add.d	$a5, $a5, $s8
	add.d	$a5, $a5, $s7
	add.d	$a5, $a5, $s3
	add.d	$a5, $a5, $s4
	move	$s4, $s1
	move	$s1, $s2
	add.d	$a1, $a5, $a1
	add.d	$a1, $a1, $s0
	add.d	$a1, $a1, $s5
	add.d	$a1, $a1, $s6
	mul.d	$a1, $a1, $fp
	add.d	$a0, $a0, $a1
	add.d	$a0, $a0, $s2
	addi.d	$a3, $a3, 21
	addi.d	$a2, $a2, 21
	addi.d	$a4, $a4, 84
	blt	$a3, $s4, .LBB18_5
	b	.LBB18_7
	.p2align	4, , 16
.LBB18_6:                               #   in Loop: Header=BB18_3 Depth=1
	move	$a0, $zero
	move	$a2, $zero
.LBB18_7:                               # %.preheader
                                        #   in Loop: Header=BB18_3 Depth=1
	addi.w	$a3, $a2, 0
	ld.d	$s0, $sp, 128                   # 8-byte Folded Reload
	bge	$a3, $s0, .LBB18_15
# %bb.8:                                # %.lr.ph42.preheader
                                        #   in Loop: Header=BB18_3 Depth=1
	ld.d	$a1, $sp, 104                   # 8-byte Folded Reload
	sub.d	$a4, $a1, $a2
	ori	$a1, $zero, 8
	ld.d	$s2, $sp, 72                    # 8-byte Folded Reload
	bgeu	$a4, $a1, .LBB18_10
# %bb.9:                                #   in Loop: Header=BB18_3 Depth=1
	move	$a3, $a2
	b	.LBB18_13
	.p2align	4, , 16
.LBB18_10:                              # %vector.ph
                                        #   in Loop: Header=BB18_3 Depth=1
	move	$a5, $a4
	bstrins.d	$a5, $zero, 2, 0
	add.d	$a3, $a5, $a2
	vld	$vr1, $sp, 32                   # 16-byte Folded Reload
	vori.b	$vr0, $vr1, 0
	vinsgr2vr.w	$vr0, $a0, 0
	ld.d	$a0, $sp, 56                    # 8-byte Folded Reload
	alsl.d	$a0, $a2, $a0, 2
	move	$a2, $a5
	.p2align	4, , 16
.LBB18_11:                              # %vector.body
                                        #   Parent Loop BB18_3 Depth=1
                                        # =>  This Inner Loop Header: Depth=2
	vld	$vr2, $a0, -16
	vld	$vr3, $a0, 0
	vreplgr2vr.w	$vr4, $fp
	vmadd.w	$vr0, $vr2, $vr4
	vreplgr2vr.w	$vr2, $s2
	vmadd.w	$vr1, $vr3, $vr4
	vadd.w	$vr0, $vr0, $vr2
	vadd.w	$vr1, $vr1, $vr2
	addi.d	$a2, $a2, -8
	addi.d	$a0, $a0, 32
	bnez	$a2, .LBB18_11
# %bb.12:                               # %middle.block
                                        #   in Loop: Header=BB18_3 Depth=1
	vadd.w	$vr0, $vr1, $vr0
	vhaddw.d.w	$vr0, $vr0, $vr0
	vhaddw.q.d	$vr0, $vr0, $vr0
	vpickve2gr.d	$a0, $vr0, 0
	beq	$a4, $a5, .LBB18_15
.LBB18_13:                              # %.lr.ph42.preheader60
                                        #   in Loop: Header=BB18_3 Depth=1
	ld.d	$a1, $sp, 64                    # 8-byte Folded Reload
	alsl.d	$a2, $a3, $a1, 2
	ld.d	$a1, $sp, 104                   # 8-byte Folded Reload
	sub.d	$a3, $a1, $a3
	.p2align	4, , 16
.LBB18_14:                              # %.lr.ph42
                                        #   Parent Loop BB18_3 Depth=1
                                        # =>  This Inner Loop Header: Depth=2
	ld.w	$a1, $a2, 0
	mul.d	$a1, $a1, $fp
	add.d	$a0, $a0, $a1
	add.d	$a0, $a0, $s2
	addi.d	$a3, $a3, -1
	addi.d	$a2, $a2, 4
	bnez	$a3, .LBB18_14
.LBB18_15:                              # %._crit_edge
                                        #   in Loop: Header=BB18_3 Depth=1
	pcalau12i	$a1, %pc_hi20(init_value)
	fld.d	$fa0, $a1, %pc_lo12(init_value)
	ftintrz.w.d	$fa0, $fa0
	movfr2gr.s	$a1, $fa0
	ld.d	$a2, $sp, 120                   # 8-byte Folded Reload
	mul.d	$a1, $a1, $a2
	ld.d	$a2, $sp, 112                   # 8-byte Folded Reload
	add.w	$a1, $a1, $a2
	addi.w	$a0, $a0, 0
	ld.d	$s3, $sp, 144                   # 8-byte Folded Reload
	beq	$a0, $a1, .LBB18_2
# %bb.16:                               #   in Loop: Header=BB18_3 Depth=1
	ld.d	$a0, $sp, 96                    # 8-byte Folded Reload
	ld.w	$a1, $a0, %pc_lo12(current_test)
	pcalau12i	$a0, %pc_hi20(.L.str.19)
	addi.d	$a0, $a0, %pc_lo12(.L.str.19)
	pcaddu18i	$ra, %call36(printf)
	jirl	$ra, $ra, 0
	ld.d	$a0, $sp, 88                    # 8-byte Folded Reload
	ld.w	$a0, $a0, %pc_lo12(iterations)
	st.d	$a0, $sp, 136                   # 8-byte Folded Spill
	b	.LBB18_2
.LBB18_17:                              # %._crit_edge45
	pcaddu18i	$ra, %call36(clock)
	jirl	$ra, $ra, 0
	ld.d	$a1, $sp, 24                    # 8-byte Folded Reload
	ld.d	$fp, $a1, %pc_lo12(start_time)
	pcalau12i	$s2, %pc_hi20(results)
	ld.d	$a2, $s2, %pc_lo12(results)
	pcalau12i	$s1, %pc_hi20(allocated_results)
	ld.w	$a1, $s1, %pc_lo12(allocated_results)
	move	$s0, $a0
	pcalau12i	$a0, %pc_hi20(end_time)
	st.d	$s0, $a0, %pc_lo12(end_time)
	ld.d	$a4, $sp, 96                    # 8-byte Folded Reload
	beqz	$a2, .LBB18_19
# %bb.18:                               # %._crit_edge45
	ld.w	$a0, $a4, %pc_lo12(current_test)
	blt	$a0, $a1, .LBB18_21
.LBB18_19:
	addi.w	$a0, $a1, 10
	st.w	$a0, $s1, %pc_lo12(allocated_results)
	slli.d	$a1, $a0, 4
	move	$a0, $a2
	pcaddu18i	$ra, %call36(realloc)
	jirl	$ra, $ra, 0
	st.d	$a0, $s2, %pc_lo12(results)
	beqz	$a0, .LBB18_22
# %bb.20:                               # %._crit_edge.i
	move	$a2, $a0
	ld.d	$a4, $sp, 96                    # 8-byte Folded Reload
	ld.w	$a0, $a4, %pc_lo12(current_test)
.LBB18_21:                              # %_Z13record_resultdPKc.exit
	pcalau12i	$a1, %pc_hi20(.LCPI18_0)
	fld.d	$fa0, $a1, %pc_lo12(.LCPI18_0)
	sub.d	$a1, $s0, $fp
	movgr2fr.d	$fa1, $a1
	ffint.d.l	$fa1, $fa1
	fdiv.d	$fa0, $fa1, $fa0
	alsl.d	$a1, $a0, $a2, 4
	slli.d	$a3, $a0, 4
	fstx.d	$fa0, $a2, $a3
	ld.d	$a2, $sp, 16                    # 8-byte Folded Reload
	st.d	$a2, $a1, 8
	addi.d	$a0, $a0, 1
	st.w	$a0, $a4, %pc_lo12(current_test)
	ld.d	$s8, $sp, 152                   # 8-byte Folded Reload
	ld.d	$s7, $sp, 160                   # 8-byte Folded Reload
	ld.d	$s6, $sp, 168                   # 8-byte Folded Reload
	ld.d	$s5, $sp, 176                   # 8-byte Folded Reload
	ld.d	$s4, $sp, 184                   # 8-byte Folded Reload
	ld.d	$s3, $sp, 192                   # 8-byte Folded Reload
	ld.d	$s2, $sp, 200                   # 8-byte Folded Reload
	ld.d	$s1, $sp, 208                   # 8-byte Folded Reload
	ld.d	$s0, $sp, 216                   # 8-byte Folded Reload
	ld.d	$fp, $sp, 224                   # 8-byte Folded Reload
	ld.d	$ra, $sp, 232                   # 8-byte Folded Reload
	addi.d	$sp, $sp, 240
	ret
.LBB18_22:
	ld.w	$a1, $s1, %pc_lo12(allocated_results)
	pcalau12i	$a0, %pc_hi20(.L.str)
	addi.d	$a0, $a0, %pc_lo12(.L.str)
	pcaddu18i	$ra, %call36(printf)
	jirl	$ra, $ra, 0
	addi.w	$a0, $zero, -1
	pcaddu18i	$ra, %call36(exit)
	jirl	$ra, $ra, 0
.Lfunc_end18:
	.size	_Z27test_for_loop_unroll_factorILi21EiEvPKT0_iPKc, .Lfunc_end18-_Z27test_for_loop_unroll_factorILi21EiEvPKT0_iPKc
	.cfi_endproc
                                        # -- End function
	.section	.rodata.cst8,"aM",@progbits,8
	.p2align	3, 0x0                          # -- Begin function _Z27test_for_loop_unroll_factorILi20EiEvPKT0_iPKc
.LCPI19_0:
	.dword	0x412e848000000000              # double 1.0E+6
	.section	.text._Z27test_for_loop_unroll_factorILi20EiEvPKT0_iPKc,"axG",@progbits,_Z27test_for_loop_unroll_factorILi20EiEvPKT0_iPKc,comdat
	.weak	_Z27test_for_loop_unroll_factorILi20EiEvPKT0_iPKc
	.p2align	5
	.type	_Z27test_for_loop_unroll_factorILi20EiEvPKT0_iPKc,@function
_Z27test_for_loop_unroll_factorILi20EiEvPKT0_iPKc: # @_Z27test_for_loop_unroll_factorILi20EiEvPKT0_iPKc
	.cfi_startproc
# %bb.0:
	addi.d	$sp, $sp, -224
	.cfi_def_cfa_offset 224
	st.d	$ra, $sp, 216                   # 8-byte Folded Spill
	st.d	$fp, $sp, 208                   # 8-byte Folded Spill
	st.d	$s0, $sp, 200                   # 8-byte Folded Spill
	st.d	$s1, $sp, 192                   # 8-byte Folded Spill
	st.d	$s2, $sp, 184                   # 8-byte Folded Spill
	st.d	$s3, $sp, 176                   # 8-byte Folded Spill
	st.d	$s4, $sp, 168                   # 8-byte Folded Spill
	st.d	$s5, $sp, 160                   # 8-byte Folded Spill
	st.d	$s6, $sp, 152                   # 8-byte Folded Spill
	st.d	$s7, $sp, 144                   # 8-byte Folded Spill
	st.d	$s8, $sp, 136                   # 8-byte Folded Spill
	.cfi_offset 1, -8
	.cfi_offset 22, -16
	.cfi_offset 23, -24
	.cfi_offset 24, -32
	.cfi_offset 25, -40
	.cfi_offset 26, -48
	.cfi_offset 27, -56
	.cfi_offset 28, -64
	.cfi_offset 29, -72
	.cfi_offset 30, -80
	.cfi_offset 31, -88
	st.d	$a2, $sp, 16                    # 8-byte Folded Spill
	move	$s0, $a1
	st.d	$a0, $sp, 56                    # 8-byte Folded Spill
	pcaddu18i	$ra, %call36(clock)
	jirl	$ra, $ra, 0
	pcalau12i	$a1, %pc_hi20(iterations)
	st.d	$a1, $sp, 72                    # 8-byte Folded Spill
	ld.w	$a2, $a1, %pc_lo12(iterations)
	pcalau12i	$a1, %pc_hi20(start_time)
	st.d	$a1, $sp, 24                    # 8-byte Folded Spill
	st.d	$a0, $a1, %pc_lo12(start_time)
	pcalau12i	$a0, %pc_hi20(current_test)
	st.d	$a0, $sp, 80                    # 8-byte Folded Spill
	st.d	$a2, $sp, 120                   # 8-byte Folded Spill
	blez	$a2, .LBB19_17
# %bb.1:                                # %.preheader35.lr.ph
	move	$a1, $zero
	addi.w	$s6, $s0, -19
	bstrpick.d	$a0, $s0, 31, 0
	st.d	$a0, $sp, 88                    # 8-byte Folded Spill
	ld.d	$a0, $sp, 56                    # 8-byte Folded Reload
	addi.d	$a2, $a0, 40
	st.d	$a2, $sp, 64                    # 8-byte Folded Spill
	addi.d	$a0, $a0, 16
	st.d	$a0, $sp, 48                    # 8-byte Folded Spill
	lu12i.w	$a0, 65881
	ori	$fp, $a0, 1957
	lu12i.w	$a0, -315348
	ori	$s1, $a0, 608
	lu12i.w	$a0, -277912
	ori	$s2, $a0, 2488
	vrepli.b	$vr0, 0
	vst	$vr0, $sp, 32                   # 16-byte Folded Spill
	lu12i.w	$a0, -381906
	ori	$a0, $a0, 1088
	st.d	$a0, $sp, 104                   # 8-byte Folded Spill
	lu12i.w	$a0, -310021
	ori	$a0, $a0, 1536
	st.d	$a0, $sp, 96                    # 8-byte Folded Spill
	st.d	$s0, $sp, 112                   # 8-byte Folded Spill
	b	.LBB19_3
	.p2align	4, , 16
.LBB19_2:                               # %_Z9check_sumIiEvT_.exit
                                        #   in Loop: Header=BB19_3 Depth=1
	addi.w	$a1, $s3, 1
	ld.d	$a0, $sp, 120                   # 8-byte Folded Reload
	bge	$a1, $a0, .LBB19_17
.LBB19_3:                               # %.preheader35
                                        # =>This Loop Header: Depth=1
                                        #     Child Loop BB19_5 Depth 2
                                        #     Child Loop BB19_11 Depth 2
                                        #     Child Loop BB19_14 Depth 2
	st.d	$a1, $sp, 128                   # 8-byte Folded Spill
	ori	$a0, $zero, 20
	blt	$s0, $a0, .LBB19_6
# %bb.4:                                # %.lr.ph.preheader
                                        #   in Loop: Header=BB19_3 Depth=1
	move	$a2, $zero
	move	$a3, $zero
	move	$a0, $zero
	ld.d	$a4, $sp, 64                    # 8-byte Folded Reload
	.p2align	4, , 16
.LBB19_5:                               # %.lr.ph
                                        #   Parent Loop BB19_3 Depth=1
                                        # =>  This Inner Loop Header: Depth=2
	ld.w	$a5, $a4, -40
	ld.w	$a6, $a4, -36
	ld.w	$a7, $a4, -32
	ld.w	$t0, $a4, -28
	ld.w	$t1, $a4, -24
	ld.w	$t2, $a4, -20
	ld.w	$t3, $a4, -16
	ld.w	$t4, $a4, -12
	ld.w	$t5, $a4, -8
	ld.w	$t6, $a4, -4
	ld.w	$t7, $a4, 0
	ld.w	$t8, $a4, 4
	ld.w	$ra, $a4, 8
	ld.w	$s8, $a4, 12
	ld.w	$s7, $a4, 16
	ld.w	$s3, $a4, 20
	ld.w	$s4, $a4, 24
	ld.w	$a1, $a4, 28
	ld.w	$s0, $a4, 32
	ld.w	$s5, $a4, 36
	add.d	$a5, $a6, $a5
	add.d	$a5, $a5, $a7
	add.d	$a5, $a5, $t0
	add.d	$a5, $a5, $t1
	add.d	$a5, $a5, $t2
	add.d	$a5, $a5, $t3
	add.d	$a5, $a5, $t4
	add.d	$a5, $a5, $t5
	add.d	$a5, $a5, $t6
	add.d	$a5, $a5, $t7
	add.d	$a5, $a5, $t8
	add.d	$a5, $a5, $ra
	add.d	$a5, $a5, $s8
	add.d	$a5, $a5, $s7
	add.d	$a5, $a5, $s3
	add.d	$a5, $a5, $s4
	add.d	$a1, $a5, $a1
	add.d	$a1, $a1, $s0
	add.d	$a1, $a1, $s5
	mul.d	$a1, $a1, $fp
	add.d	$a0, $a0, $a1
	add.d	$a0, $a0, $s1
	addi.d	$a3, $a3, 20
	addi.d	$a2, $a2, 20
	addi.d	$a4, $a4, 80
	blt	$a3, $s6, .LBB19_5
	b	.LBB19_7
	.p2align	4, , 16
.LBB19_6:                               #   in Loop: Header=BB19_3 Depth=1
	move	$a0, $zero
	move	$a2, $zero
.LBB19_7:                               # %.preheader
                                        #   in Loop: Header=BB19_3 Depth=1
	addi.w	$a3, $a2, 0
	ld.d	$s0, $sp, 112                   # 8-byte Folded Reload
	bge	$a3, $s0, .LBB19_15
# %bb.8:                                # %.lr.ph41.preheader
                                        #   in Loop: Header=BB19_3 Depth=1
	ld.d	$a1, $sp, 88                    # 8-byte Folded Reload
	sub.d	$a4, $a1, $a2
	ori	$a1, $zero, 8
	bgeu	$a4, $a1, .LBB19_10
# %bb.9:                                #   in Loop: Header=BB19_3 Depth=1
	move	$a3, $a2
	b	.LBB19_13
	.p2align	4, , 16
.LBB19_10:                              # %vector.ph
                                        #   in Loop: Header=BB19_3 Depth=1
	move	$a5, $a4
	bstrins.d	$a5, $zero, 2, 0
	add.d	$a3, $a5, $a2
	vld	$vr1, $sp, 32                   # 16-byte Folded Reload
	vori.b	$vr0, $vr1, 0
	vinsgr2vr.w	$vr0, $a0, 0
	ld.d	$a0, $sp, 48                    # 8-byte Folded Reload
	alsl.d	$a0, $a2, $a0, 2
	move	$a2, $a5
	.p2align	4, , 16
.LBB19_11:                              # %vector.body
                                        #   Parent Loop BB19_3 Depth=1
                                        # =>  This Inner Loop Header: Depth=2
	vld	$vr2, $a0, -16
	vld	$vr3, $a0, 0
	vreplgr2vr.w	$vr4, $fp
	vmadd.w	$vr0, $vr2, $vr4
	vreplgr2vr.w	$vr2, $s2
	vmadd.w	$vr1, $vr3, $vr4
	vadd.w	$vr0, $vr0, $vr2
	vadd.w	$vr1, $vr1, $vr2
	addi.d	$a2, $a2, -8
	addi.d	$a0, $a0, 32
	bnez	$a2, .LBB19_11
# %bb.12:                               # %middle.block
                                        #   in Loop: Header=BB19_3 Depth=1
	vadd.w	$vr0, $vr1, $vr0
	vhaddw.d.w	$vr0, $vr0, $vr0
	vhaddw.q.d	$vr0, $vr0, $vr0
	vpickve2gr.d	$a0, $vr0, 0
	beq	$a4, $a5, .LBB19_15
.LBB19_13:                              # %.lr.ph41.preheader59
                                        #   in Loop: Header=BB19_3 Depth=1
	ld.d	$a1, $sp, 56                    # 8-byte Folded Reload
	alsl.d	$a2, $a3, $a1, 2
	ld.d	$a1, $sp, 88                    # 8-byte Folded Reload
	sub.d	$a3, $a1, $a3
	.p2align	4, , 16
.LBB19_14:                              # %.lr.ph41
                                        #   Parent Loop BB19_3 Depth=1
                                        # =>  This Inner Loop Header: Depth=2
	ld.w	$a1, $a2, 0
	mul.d	$a1, $a1, $fp
	add.d	$a0, $a0, $a1
	add.d	$a0, $a0, $s2
	addi.d	$a3, $a3, -1
	addi.d	$a2, $a2, 4
	bnez	$a3, .LBB19_14
.LBB19_15:                              # %._crit_edge
                                        #   in Loop: Header=BB19_3 Depth=1
	pcalau12i	$a1, %pc_hi20(init_value)
	fld.d	$fa0, $a1, %pc_lo12(init_value)
	ftintrz.w.d	$fa0, $fa0
	movfr2gr.s	$a1, $fa0
	ld.d	$a2, $sp, 104                   # 8-byte Folded Reload
	mul.d	$a1, $a1, $a2
	ld.d	$a2, $sp, 96                    # 8-byte Folded Reload
	add.w	$a1, $a1, $a2
	addi.w	$a0, $a0, 0
	ld.d	$s3, $sp, 128                   # 8-byte Folded Reload
	beq	$a0, $a1, .LBB19_2
# %bb.16:                               #   in Loop: Header=BB19_3 Depth=1
	ld.d	$a0, $sp, 80                    # 8-byte Folded Reload
	ld.w	$a1, $a0, %pc_lo12(current_test)
	pcalau12i	$a0, %pc_hi20(.L.str.19)
	addi.d	$a0, $a0, %pc_lo12(.L.str.19)
	pcaddu18i	$ra, %call36(printf)
	jirl	$ra, $ra, 0
	ld.d	$a0, $sp, 72                    # 8-byte Folded Reload
	ld.w	$a0, $a0, %pc_lo12(iterations)
	st.d	$a0, $sp, 120                   # 8-byte Folded Spill
	b	.LBB19_2
.LBB19_17:                              # %._crit_edge44
	pcaddu18i	$ra, %call36(clock)
	jirl	$ra, $ra, 0
	ld.d	$a1, $sp, 24                    # 8-byte Folded Reload
	ld.d	$fp, $a1, %pc_lo12(start_time)
	pcalau12i	$s2, %pc_hi20(results)
	ld.d	$a2, $s2, %pc_lo12(results)
	pcalau12i	$s1, %pc_hi20(allocated_results)
	ld.w	$a1, $s1, %pc_lo12(allocated_results)
	move	$s0, $a0
	pcalau12i	$a0, %pc_hi20(end_time)
	st.d	$s0, $a0, %pc_lo12(end_time)
	ld.d	$s3, $sp, 80                    # 8-byte Folded Reload
	beqz	$a2, .LBB19_19
# %bb.18:                               # %._crit_edge44
	ld.w	$a0, $s3, %pc_lo12(current_test)
	blt	$a0, $a1, .LBB19_21
.LBB19_19:
	addi.w	$a0, $a1, 10
	st.w	$a0, $s1, %pc_lo12(allocated_results)
	slli.d	$a1, $a0, 4
	move	$a0, $a2
	pcaddu18i	$ra, %call36(realloc)
	jirl	$ra, $ra, 0
	st.d	$a0, $s2, %pc_lo12(results)
	beqz	$a0, .LBB19_22
# %bb.20:                               # %._crit_edge.i
	move	$a2, $a0
	ld.w	$a0, $s3, %pc_lo12(current_test)
.LBB19_21:                              # %_Z13record_resultdPKc.exit
	pcalau12i	$a1, %pc_hi20(.LCPI19_0)
	fld.d	$fa0, $a1, %pc_lo12(.LCPI19_0)
	sub.d	$a1, $s0, $fp
	movgr2fr.d	$fa1, $a1
	ffint.d.l	$fa1, $fa1
	fdiv.d	$fa0, $fa1, $fa0
	alsl.d	$a1, $a0, $a2, 4
	slli.d	$a3, $a0, 4
	fstx.d	$fa0, $a2, $a3
	ld.d	$a2, $sp, 16                    # 8-byte Folded Reload
	st.d	$a2, $a1, 8
	addi.d	$a0, $a0, 1
	st.w	$a0, $s3, %pc_lo12(current_test)
	ld.d	$s8, $sp, 136                   # 8-byte Folded Reload
	ld.d	$s7, $sp, 144                   # 8-byte Folded Reload
	ld.d	$s6, $sp, 152                   # 8-byte Folded Reload
	ld.d	$s5, $sp, 160                   # 8-byte Folded Reload
	ld.d	$s4, $sp, 168                   # 8-byte Folded Reload
	ld.d	$s3, $sp, 176                   # 8-byte Folded Reload
	ld.d	$s2, $sp, 184                   # 8-byte Folded Reload
	ld.d	$s1, $sp, 192                   # 8-byte Folded Reload
	ld.d	$s0, $sp, 200                   # 8-byte Folded Reload
	ld.d	$fp, $sp, 208                   # 8-byte Folded Reload
	ld.d	$ra, $sp, 216                   # 8-byte Folded Reload
	addi.d	$sp, $sp, 224
	ret
.LBB19_22:
	ld.w	$a1, $s1, %pc_lo12(allocated_results)
	pcalau12i	$a0, %pc_hi20(.L.str)
	addi.d	$a0, $a0, %pc_lo12(.L.str)
	pcaddu18i	$ra, %call36(printf)
	jirl	$ra, $ra, 0
	addi.w	$a0, $zero, -1
	pcaddu18i	$ra, %call36(exit)
	jirl	$ra, $ra, 0
.Lfunc_end19:
	.size	_Z27test_for_loop_unroll_factorILi20EiEvPKT0_iPKc, .Lfunc_end19-_Z27test_for_loop_unroll_factorILi20EiEvPKT0_iPKc
	.cfi_endproc
                                        # -- End function
	.section	.rodata.cst8,"aM",@progbits,8
	.p2align	3, 0x0                          # -- Begin function _Z27test_for_loop_unroll_factorILi19EiEvPKT0_iPKc
.LCPI20_0:
	.dword	0x412e848000000000              # double 1.0E+6
	.section	.text._Z27test_for_loop_unroll_factorILi19EiEvPKT0_iPKc,"axG",@progbits,_Z27test_for_loop_unroll_factorILi19EiEvPKT0_iPKc,comdat
	.weak	_Z27test_for_loop_unroll_factorILi19EiEvPKT0_iPKc
	.p2align	5
	.type	_Z27test_for_loop_unroll_factorILi19EiEvPKT0_iPKc,@function
_Z27test_for_loop_unroll_factorILi19EiEvPKT0_iPKc: # @_Z27test_for_loop_unroll_factorILi19EiEvPKT0_iPKc
	.cfi_startproc
# %bb.0:
	addi.d	$sp, $sp, -224
	.cfi_def_cfa_offset 224
	st.d	$ra, $sp, 216                   # 8-byte Folded Spill
	st.d	$fp, $sp, 208                   # 8-byte Folded Spill
	st.d	$s0, $sp, 200                   # 8-byte Folded Spill
	st.d	$s1, $sp, 192                   # 8-byte Folded Spill
	st.d	$s2, $sp, 184                   # 8-byte Folded Spill
	st.d	$s3, $sp, 176                   # 8-byte Folded Spill
	st.d	$s4, $sp, 168                   # 8-byte Folded Spill
	st.d	$s5, $sp, 160                   # 8-byte Folded Spill
	st.d	$s6, $sp, 152                   # 8-byte Folded Spill
	st.d	$s7, $sp, 144                   # 8-byte Folded Spill
	st.d	$s8, $sp, 136                   # 8-byte Folded Spill
	.cfi_offset 1, -8
	.cfi_offset 22, -16
	.cfi_offset 23, -24
	.cfi_offset 24, -32
	.cfi_offset 25, -40
	.cfi_offset 26, -48
	.cfi_offset 27, -56
	.cfi_offset 28, -64
	.cfi_offset 29, -72
	.cfi_offset 30, -80
	.cfi_offset 31, -88
	st.d	$a2, $sp, 16                    # 8-byte Folded Spill
	move	$s0, $a1
	st.d	$a0, $sp, 64                    # 8-byte Folded Spill
	pcaddu18i	$ra, %call36(clock)
	jirl	$ra, $ra, 0
	pcalau12i	$a1, %pc_hi20(iterations)
	st.d	$a1, $sp, 80                    # 8-byte Folded Spill
	ld.w	$a2, $a1, %pc_lo12(iterations)
	pcalau12i	$a1, %pc_hi20(start_time)
	st.d	$a1, $sp, 24                    # 8-byte Folded Spill
	st.d	$a0, $a1, %pc_lo12(start_time)
	pcalau12i	$a0, %pc_hi20(current_test)
	st.d	$a0, $sp, 88                    # 8-byte Folded Spill
	st.d	$a2, $sp, 128                   # 8-byte Folded Spill
	blez	$a2, .LBB20_17
# %bb.1:                                # %.preheader34.lr.ph
	move	$s5, $zero
	addi.w	$s6, $s0, -18
	bstrpick.d	$a0, $s0, 31, 0
	st.d	$a0, $sp, 96                    # 8-byte Folded Spill
	ld.d	$a0, $sp, 64                    # 8-byte Folded Reload
	addi.d	$a1, $a0, 36
	st.d	$a1, $sp, 72                    # 8-byte Folded Spill
	addi.d	$a0, $a0, 16
	st.d	$a0, $sp, 56                    # 8-byte Folded Spill
	lu12i.w	$a0, 65881
	ori	$fp, $a0, 1957
	lu12i.w	$a0, -37437
	ori	$s1, $a0, 2216
	lu12i.w	$a0, -277912
	ori	$s2, $a0, 2488
	vrepli.b	$vr0, 0
	vst	$vr0, $sp, 32                   # 16-byte Folded Spill
	lu12i.w	$a0, -381906
	ori	$a0, $a0, 1088
	st.d	$a0, $sp, 112                   # 8-byte Folded Spill
	lu12i.w	$a0, -310021
	ori	$a0, $a0, 1536
	st.d	$a0, $sp, 104                   # 8-byte Folded Spill
	st.d	$s0, $sp, 120                   # 8-byte Folded Spill
	b	.LBB20_3
	.p2align	4, , 16
.LBB20_2:                               # %_Z9check_sumIiEvT_.exit
                                        #   in Loop: Header=BB20_3 Depth=1
	addi.w	$s5, $s5, 1
	ld.d	$a0, $sp, 128                   # 8-byte Folded Reload
	bge	$s5, $a0, .LBB20_17
.LBB20_3:                               # %.preheader34
                                        # =>This Loop Header: Depth=1
                                        #     Child Loop BB20_5 Depth 2
                                        #     Child Loop BB20_11 Depth 2
                                        #     Child Loop BB20_14 Depth 2
	ori	$a0, $zero, 19
	blt	$s0, $a0, .LBB20_6
# %bb.4:                                # %.lr.ph.preheader
                                        #   in Loop: Header=BB20_3 Depth=1
	move	$a2, $zero
	move	$a3, $zero
	move	$a0, $zero
	ld.d	$a4, $sp, 72                    # 8-byte Folded Reload
	.p2align	4, , 16
.LBB20_5:                               # %.lr.ph
                                        #   Parent Loop BB20_3 Depth=1
                                        # =>  This Inner Loop Header: Depth=2
	ld.w	$a5, $a4, -36
	ld.w	$a6, $a4, -32
	ld.w	$a7, $a4, -28
	ld.w	$t0, $a4, -24
	ld.w	$t1, $a4, -20
	ld.w	$t2, $a4, -16
	ld.w	$t3, $a4, -12
	ld.w	$t4, $a4, -8
	ld.w	$t5, $a4, -4
	ld.w	$t6, $a4, 0
	ld.w	$t7, $a4, 4
	ld.w	$t8, $a4, 8
	ld.w	$ra, $a4, 12
	ld.w	$s8, $a4, 16
	ld.w	$s7, $a4, 20
	ld.w	$s3, $a4, 24
	ld.w	$s4, $a4, 28
	ld.w	$a1, $a4, 32
	ld.w	$s0, $a4, 36
	add.d	$a5, $a6, $a5
	add.d	$a5, $a5, $a7
	add.d	$a5, $a5, $t0
	add.d	$a5, $a5, $t1
	add.d	$a5, $a5, $t2
	add.d	$a5, $a5, $t3
	add.d	$a5, $a5, $t4
	add.d	$a5, $a5, $t5
	add.d	$a5, $a5, $t6
	add.d	$a5, $a5, $t7
	add.d	$a5, $a5, $t8
	add.d	$a5, $a5, $ra
	add.d	$a5, $a5, $s8
	add.d	$a5, $a5, $s7
	add.d	$a5, $a5, $s3
	add.d	$a5, $a5, $s4
	add.d	$a1, $a5, $a1
	add.d	$a1, $a1, $s0
	mul.d	$a1, $a1, $fp
	add.d	$a0, $a0, $a1
	add.d	$a0, $a0, $s1
	addi.d	$a3, $a3, 19
	addi.d	$a2, $a2, 19
	addi.d	$a4, $a4, 76
	blt	$a3, $s6, .LBB20_5
	b	.LBB20_7
	.p2align	4, , 16
.LBB20_6:                               #   in Loop: Header=BB20_3 Depth=1
	move	$a0, $zero
	move	$a2, $zero
.LBB20_7:                               # %.preheader
                                        #   in Loop: Header=BB20_3 Depth=1
	addi.w	$a3, $a2, 0
	ld.d	$s0, $sp, 120                   # 8-byte Folded Reload
	bge	$a3, $s0, .LBB20_15
# %bb.8:                                # %.lr.ph40.preheader
                                        #   in Loop: Header=BB20_3 Depth=1
	ld.d	$a1, $sp, 96                    # 8-byte Folded Reload
	sub.d	$a4, $a1, $a2
	ori	$a1, $zero, 8
	bgeu	$a4, $a1, .LBB20_10
# %bb.9:                                #   in Loop: Header=BB20_3 Depth=1
	move	$a3, $a2
	b	.LBB20_13
	.p2align	4, , 16
.LBB20_10:                              # %vector.ph
                                        #   in Loop: Header=BB20_3 Depth=1
	move	$a5, $a4
	bstrins.d	$a5, $zero, 2, 0
	add.d	$a3, $a5, $a2
	vld	$vr1, $sp, 32                   # 16-byte Folded Reload
	vori.b	$vr0, $vr1, 0
	vinsgr2vr.w	$vr0, $a0, 0
	ld.d	$a0, $sp, 56                    # 8-byte Folded Reload
	alsl.d	$a0, $a2, $a0, 2
	move	$a2, $a5
	.p2align	4, , 16
.LBB20_11:                              # %vector.body
                                        #   Parent Loop BB20_3 Depth=1
                                        # =>  This Inner Loop Header: Depth=2
	vld	$vr2, $a0, -16
	vld	$vr3, $a0, 0
	vreplgr2vr.w	$vr4, $fp
	vmadd.w	$vr0, $vr2, $vr4
	vreplgr2vr.w	$vr2, $s2
	vmadd.w	$vr1, $vr3, $vr4
	vadd.w	$vr0, $vr0, $vr2
	vadd.w	$vr1, $vr1, $vr2
	addi.d	$a2, $a2, -8
	addi.d	$a0, $a0, 32
	bnez	$a2, .LBB20_11
# %bb.12:                               # %middle.block
                                        #   in Loop: Header=BB20_3 Depth=1
	vadd.w	$vr0, $vr1, $vr0
	vhaddw.d.w	$vr0, $vr0, $vr0
	vhaddw.q.d	$vr0, $vr0, $vr0
	vpickve2gr.d	$a0, $vr0, 0
	beq	$a4, $a5, .LBB20_15
.LBB20_13:                              # %.lr.ph40.preheader58
                                        #   in Loop: Header=BB20_3 Depth=1
	ld.d	$a1, $sp, 64                    # 8-byte Folded Reload
	alsl.d	$a2, $a3, $a1, 2
	ld.d	$a1, $sp, 96                    # 8-byte Folded Reload
	sub.d	$a3, $a1, $a3
	.p2align	4, , 16
.LBB20_14:                              # %.lr.ph40
                                        #   Parent Loop BB20_3 Depth=1
                                        # =>  This Inner Loop Header: Depth=2
	ld.w	$a1, $a2, 0
	mul.d	$a1, $a1, $fp
	add.d	$a0, $a0, $a1
	add.d	$a0, $a0, $s2
	addi.d	$a3, $a3, -1
	addi.d	$a2, $a2, 4
	bnez	$a3, .LBB20_14
.LBB20_15:                              # %._crit_edge
                                        #   in Loop: Header=BB20_3 Depth=1
	pcalau12i	$a1, %pc_hi20(init_value)
	fld.d	$fa0, $a1, %pc_lo12(init_value)
	ftintrz.w.d	$fa0, $fa0
	movfr2gr.s	$a1, $fa0
	ld.d	$a2, $sp, 112                   # 8-byte Folded Reload
	mul.d	$a1, $a1, $a2
	ld.d	$a2, $sp, 104                   # 8-byte Folded Reload
	add.w	$a1, $a1, $a2
	addi.w	$a0, $a0, 0
	beq	$a0, $a1, .LBB20_2
# %bb.16:                               #   in Loop: Header=BB20_3 Depth=1
	ld.d	$a0, $sp, 88                    # 8-byte Folded Reload
	ld.w	$a1, $a0, %pc_lo12(current_test)
	pcalau12i	$a0, %pc_hi20(.L.str.19)
	addi.d	$a0, $a0, %pc_lo12(.L.str.19)
	pcaddu18i	$ra, %call36(printf)
	jirl	$ra, $ra, 0
	ld.d	$a0, $sp, 80                    # 8-byte Folded Reload
	ld.w	$a0, $a0, %pc_lo12(iterations)
	st.d	$a0, $sp, 128                   # 8-byte Folded Spill
	b	.LBB20_2
.LBB20_17:                              # %._crit_edge43
	pcaddu18i	$ra, %call36(clock)
	jirl	$ra, $ra, 0
	ld.d	$a1, $sp, 24                    # 8-byte Folded Reload
	ld.d	$fp, $a1, %pc_lo12(start_time)
	pcalau12i	$s2, %pc_hi20(results)
	ld.d	$a2, $s2, %pc_lo12(results)
	pcalau12i	$s1, %pc_hi20(allocated_results)
	ld.w	$a1, $s1, %pc_lo12(allocated_results)
	move	$s0, $a0
	pcalau12i	$a0, %pc_hi20(end_time)
	st.d	$s0, $a0, %pc_lo12(end_time)
	ld.d	$s3, $sp, 88                    # 8-byte Folded Reload
	beqz	$a2, .LBB20_19
# %bb.18:                               # %._crit_edge43
	ld.w	$a0, $s3, %pc_lo12(current_test)
	blt	$a0, $a1, .LBB20_21
.LBB20_19:
	addi.w	$a0, $a1, 10
	st.w	$a0, $s1, %pc_lo12(allocated_results)
	slli.d	$a1, $a0, 4
	move	$a0, $a2
	pcaddu18i	$ra, %call36(realloc)
	jirl	$ra, $ra, 0
	st.d	$a0, $s2, %pc_lo12(results)
	beqz	$a0, .LBB20_22
# %bb.20:                               # %._crit_edge.i
	move	$a2, $a0
	ld.w	$a0, $s3, %pc_lo12(current_test)
.LBB20_21:                              # %_Z13record_resultdPKc.exit
	pcalau12i	$a1, %pc_hi20(.LCPI20_0)
	fld.d	$fa0, $a1, %pc_lo12(.LCPI20_0)
	sub.d	$a1, $s0, $fp
	movgr2fr.d	$fa1, $a1
	ffint.d.l	$fa1, $fa1
	fdiv.d	$fa0, $fa1, $fa0
	alsl.d	$a1, $a0, $a2, 4
	slli.d	$a3, $a0, 4
	fstx.d	$fa0, $a2, $a3
	ld.d	$a2, $sp, 16                    # 8-byte Folded Reload
	st.d	$a2, $a1, 8
	addi.d	$a0, $a0, 1
	st.w	$a0, $s3, %pc_lo12(current_test)
	ld.d	$s8, $sp, 136                   # 8-byte Folded Reload
	ld.d	$s7, $sp, 144                   # 8-byte Folded Reload
	ld.d	$s6, $sp, 152                   # 8-byte Folded Reload
	ld.d	$s5, $sp, 160                   # 8-byte Folded Reload
	ld.d	$s4, $sp, 168                   # 8-byte Folded Reload
	ld.d	$s3, $sp, 176                   # 8-byte Folded Reload
	ld.d	$s2, $sp, 184                   # 8-byte Folded Reload
	ld.d	$s1, $sp, 192                   # 8-byte Folded Reload
	ld.d	$s0, $sp, 200                   # 8-byte Folded Reload
	ld.d	$fp, $sp, 208                   # 8-byte Folded Reload
	ld.d	$ra, $sp, 216                   # 8-byte Folded Reload
	addi.d	$sp, $sp, 224
	ret
.LBB20_22:
	ld.w	$a1, $s1, %pc_lo12(allocated_results)
	pcalau12i	$a0, %pc_hi20(.L.str)
	addi.d	$a0, $a0, %pc_lo12(.L.str)
	pcaddu18i	$ra, %call36(printf)
	jirl	$ra, $ra, 0
	addi.w	$a0, $zero, -1
	pcaddu18i	$ra, %call36(exit)
	jirl	$ra, $ra, 0
.Lfunc_end20:
	.size	_Z27test_for_loop_unroll_factorILi19EiEvPKT0_iPKc, .Lfunc_end20-_Z27test_for_loop_unroll_factorILi19EiEvPKT0_iPKc
	.cfi_endproc
                                        # -- End function
	.section	.text._ZN14for_loop_testsILi17EiE7do_testEPKiPKc,"axG",@progbits,_ZN14for_loop_testsILi17EiE7do_testEPKiPKc,comdat
	.weak	_ZN14for_loop_testsILi17EiE7do_testEPKiPKc # -- Begin function _ZN14for_loop_testsILi17EiE7do_testEPKiPKc
	.p2align	5
	.type	_ZN14for_loop_testsILi17EiE7do_testEPKiPKc,@function
_ZN14for_loop_testsILi17EiE7do_testEPKiPKc: # @_ZN14for_loop_testsILi17EiE7do_testEPKiPKc
	.cfi_startproc
# %bb.0:
	addi.d	$sp, $sp, -32
	.cfi_def_cfa_offset 32
	st.d	$ra, $sp, 24                    # 8-byte Folded Spill
	st.d	$fp, $sp, 16                    # 8-byte Folded Spill
	st.d	$s0, $sp, 8                     # 8-byte Folded Spill
	st.d	$s1, $sp, 0                     # 8-byte Folded Spill
	.cfi_offset 1, -8
	.cfi_offset 22, -16
	.cfi_offset 23, -24
	.cfi_offset 24, -32
	move	$fp, $a0
	pcaddu18i	$ra, %call36(_ZN14for_loop_testsILi9EiE7do_testEPKiPKc)
	jirl	$ra, $ra, 0
	pcalau12i	$a0, %pc_hi20(temp_string)
	addi.d	$s1, $a0, %pc_lo12(temp_string)
	addi.d	$a2, $s1, 900
	lu12i.w	$a0, 1
	ori	$s0, $a0, 3904
	move	$a0, $fp
	move	$a1, $s0
	pcaddu18i	$ra, %call36(_Z27test_for_loop_unroll_factorILi10EiEvPKT0_iPKc)
	jirl	$ra, $ra, 0
	addi.d	$a2, $s1, 1000
	move	$a0, $fp
	move	$a1, $s0
	pcaddu18i	$ra, %call36(_Z27test_for_loop_unroll_factorILi11EiEvPKT0_iPKc)
	jirl	$ra, $ra, 0
	addi.d	$a2, $s1, 1100
	move	$a0, $fp
	move	$a1, $s0
	pcaddu18i	$ra, %call36(_Z27test_for_loop_unroll_factorILi12EiEvPKT0_iPKc)
	jirl	$ra, $ra, 0
	addi.d	$a2, $s1, 1200
	move	$a0, $fp
	move	$a1, $s0
	pcaddu18i	$ra, %call36(_Z27test_for_loop_unroll_factorILi13EiEvPKT0_iPKc)
	jirl	$ra, $ra, 0
	addi.d	$a2, $s1, 1300
	move	$a0, $fp
	move	$a1, $s0
	pcaddu18i	$ra, %call36(_Z27test_for_loop_unroll_factorILi14EiEvPKT0_iPKc)
	jirl	$ra, $ra, 0
	addi.d	$a2, $s1, 1400
	move	$a0, $fp
	move	$a1, $s0
	pcaddu18i	$ra, %call36(_Z27test_for_loop_unroll_factorILi15EiEvPKT0_iPKc)
	jirl	$ra, $ra, 0
	addi.d	$a2, $s1, 1500
	move	$a0, $fp
	move	$a1, $s0
	pcaddu18i	$ra, %call36(_Z27test_for_loop_unroll_factorILi16EiEvPKT0_iPKc)
	jirl	$ra, $ra, 0
	addi.d	$a2, $s1, 1600
	move	$a0, $fp
	move	$a1, $s0
	ld.d	$s1, $sp, 0                     # 8-byte Folded Reload
	ld.d	$s0, $sp, 8                     # 8-byte Folded Reload
	ld.d	$fp, $sp, 16                    # 8-byte Folded Reload
	ld.d	$ra, $sp, 24                    # 8-byte Folded Reload
	addi.d	$sp, $sp, 32
	pcaddu18i	$t8, %call36(_Z27test_for_loop_unroll_factorILi17EiEvPKT0_iPKc)
	jr	$t8
.Lfunc_end21:
	.size	_ZN14for_loop_testsILi17EiE7do_testEPKiPKc, .Lfunc_end21-_ZN14for_loop_testsILi17EiE7do_testEPKiPKc
	.cfi_endproc
                                        # -- End function
	.section	.rodata.cst8,"aM",@progbits,8
	.p2align	3, 0x0                          # -- Begin function _Z27test_for_loop_unroll_factorILi18EiEvPKT0_iPKc
.LCPI22_0:
	.dword	0x412e848000000000              # double 1.0E+6
	.section	.text._Z27test_for_loop_unroll_factorILi18EiEvPKT0_iPKc,"axG",@progbits,_Z27test_for_loop_unroll_factorILi18EiEvPKT0_iPKc,comdat
	.weak	_Z27test_for_loop_unroll_factorILi18EiEvPKT0_iPKc
	.p2align	5
	.type	_Z27test_for_loop_unroll_factorILi18EiEvPKT0_iPKc,@function
_Z27test_for_loop_unroll_factorILi18EiEvPKT0_iPKc: # @_Z27test_for_loop_unroll_factorILi18EiEvPKT0_iPKc
	.cfi_startproc
# %bb.0:
	addi.d	$sp, $sp, -208
	.cfi_def_cfa_offset 208
	st.d	$ra, $sp, 200                   # 8-byte Folded Spill
	st.d	$fp, $sp, 192                   # 8-byte Folded Spill
	st.d	$s0, $sp, 184                   # 8-byte Folded Spill
	st.d	$s1, $sp, 176                   # 8-byte Folded Spill
	st.d	$s2, $sp, 168                   # 8-byte Folded Spill
	st.d	$s3, $sp, 160                   # 8-byte Folded Spill
	st.d	$s4, $sp, 152                   # 8-byte Folded Spill
	st.d	$s5, $sp, 144                   # 8-byte Folded Spill
	st.d	$s6, $sp, 136                   # 8-byte Folded Spill
	st.d	$s7, $sp, 128                   # 8-byte Folded Spill
	st.d	$s8, $sp, 120                   # 8-byte Folded Spill
	.cfi_offset 1, -8
	.cfi_offset 22, -16
	.cfi_offset 23, -24
	.cfi_offset 24, -32
	.cfi_offset 25, -40
	.cfi_offset 26, -48
	.cfi_offset 27, -56
	.cfi_offset 28, -64
	.cfi_offset 29, -72
	.cfi_offset 30, -80
	.cfi_offset 31, -88
	st.d	$a2, $sp, 16                    # 8-byte Folded Spill
	move	$s0, $a1
	st.d	$a0, $sp, 56                    # 8-byte Folded Spill
	pcaddu18i	$ra, %call36(clock)
	jirl	$ra, $ra, 0
	pcalau12i	$a1, %pc_hi20(iterations)
	st.d	$a1, $sp, 72                    # 8-byte Folded Spill
	ld.w	$a2, $a1, %pc_lo12(iterations)
	pcalau12i	$a1, %pc_hi20(start_time)
	st.d	$a1, $sp, 24                    # 8-byte Folded Spill
	st.d	$a0, $a1, %pc_lo12(start_time)
	pcalau12i	$a0, %pc_hi20(current_test)
	st.d	$a0, $sp, 80                    # 8-byte Folded Spill
	st.d	$a2, $sp, 112                   # 8-byte Folded Spill
	blez	$a2, .LBB22_17
# %bb.1:                                # %.preheader33.lr.ph
	move	$s5, $zero
	addi.w	$s6, $s0, -17
	bstrpick.d	$a0, $s0, 31, 0
	st.d	$a0, $sp, 88                    # 8-byte Folded Spill
	ld.d	$a0, $sp, 56                    # 8-byte Folded Reload
	addi.d	$a1, $a0, 36
	st.d	$a1, $sp, 64                    # 8-byte Folded Spill
	addi.d	$a0, $a0, 16
	st.d	$a0, $sp, 48                    # 8-byte Folded Spill
	lu12i.w	$a0, 65881
	ori	$fp, $a0, 1957
	lu12i.w	$a0, 240474
	ori	$s1, $a0, 3824
	lu12i.w	$a0, -277912
	ori	$s2, $a0, 2488
	vrepli.b	$vr0, 0
	vst	$vr0, $sp, 32                   # 16-byte Folded Spill
	lu12i.w	$a0, -381906
	ori	$a0, $a0, 1088
	st.d	$a0, $sp, 104                   # 8-byte Folded Spill
	lu12i.w	$a0, -310021
	ori	$a0, $a0, 1536
	st.d	$a0, $sp, 96                    # 8-byte Folded Spill
	b	.LBB22_3
	.p2align	4, , 16
.LBB22_2:                               # %_Z9check_sumIiEvT_.exit
                                        #   in Loop: Header=BB22_3 Depth=1
	addi.w	$s5, $s5, 1
	ld.d	$a0, $sp, 112                   # 8-byte Folded Reload
	bge	$s5, $a0, .LBB22_17
.LBB22_3:                               # %.preheader33
                                        # =>This Loop Header: Depth=1
                                        #     Child Loop BB22_5 Depth 2
                                        #     Child Loop BB22_11 Depth 2
                                        #     Child Loop BB22_14 Depth 2
	ori	$a0, $zero, 18
	blt	$s0, $a0, .LBB22_7
# %bb.4:                                # %.lr.ph.preheader
                                        #   in Loop: Header=BB22_3 Depth=1
	move	$a2, $zero
	move	$a3, $zero
	move	$a0, $zero
	ld.d	$a4, $sp, 64                    # 8-byte Folded Reload
	.p2align	4, , 16
.LBB22_5:                               # %.lr.ph
                                        #   Parent Loop BB22_3 Depth=1
                                        # =>  This Inner Loop Header: Depth=2
	ld.w	$a5, $a4, -36
	ld.w	$a6, $a4, -32
	ld.w	$a7, $a4, -28
	ld.w	$t0, $a4, -24
	ld.w	$t1, $a4, -20
	ld.w	$t2, $a4, -16
	ld.w	$t3, $a4, -12
	ld.w	$t4, $a4, -8
	ld.w	$t5, $a4, -4
	ld.w	$t6, $a4, 0
	ld.w	$t7, $a4, 4
	ld.w	$t8, $a4, 8
	ld.w	$ra, $a4, 12
	ld.w	$s8, $a4, 16
	ld.w	$s7, $a4, 20
	ld.w	$s3, $a4, 24
	ld.w	$s4, $a4, 28
	ld.w	$a1, $a4, 32
	add.d	$a5, $a6, $a5
	add.d	$a5, $a5, $a7
	add.d	$a5, $a5, $t0
	add.d	$a5, $a5, $t1
	add.d	$a5, $a5, $t2
	add.d	$a5, $a5, $t3
	add.d	$a5, $a5, $t4
	add.d	$a5, $a5, $t5
	add.d	$a5, $a5, $t6
	add.d	$a5, $a5, $t7
	add.d	$a5, $a5, $t8
	add.d	$a5, $a5, $ra
	add.d	$a5, $a5, $s8
	add.d	$a5, $a5, $s7
	add.d	$a5, $a5, $s3
	add.d	$a5, $a5, $s4
	add.d	$a1, $a5, $a1
	mul.d	$a1, $a1, $fp
	add.d	$a0, $a0, $a1
	add.d	$a0, $a0, $s1
	addi.d	$a3, $a3, 18
	addi.d	$a2, $a2, 18
	addi.d	$a4, $a4, 72
	blt	$a3, $s6, .LBB22_5
# %bb.6:                                # %.preheader
                                        #   in Loop: Header=BB22_3 Depth=1
	addi.w	$a3, $a2, 0
	blt	$a3, $s0, .LBB22_8
	b	.LBB22_15
	.p2align	4, , 16
.LBB22_7:                               #   in Loop: Header=BB22_3 Depth=1
	move	$a0, $zero
	move	$a2, $zero
	addi.w	$a3, $a2, 0
	bge	$a3, $s0, .LBB22_15
.LBB22_8:                               # %.lr.ph39.preheader
                                        #   in Loop: Header=BB22_3 Depth=1
	ld.d	$a1, $sp, 88                    # 8-byte Folded Reload
	sub.d	$a4, $a1, $a2
	ori	$a1, $zero, 8
	bgeu	$a4, $a1, .LBB22_10
# %bb.9:                                #   in Loop: Header=BB22_3 Depth=1
	move	$a3, $a2
	b	.LBB22_13
	.p2align	4, , 16
.LBB22_10:                              # %vector.ph
                                        #   in Loop: Header=BB22_3 Depth=1
	move	$a5, $a4
	bstrins.d	$a5, $zero, 2, 0
	add.d	$a3, $a5, $a2
	vld	$vr1, $sp, 32                   # 16-byte Folded Reload
	vori.b	$vr0, $vr1, 0
	vinsgr2vr.w	$vr0, $a0, 0
	ld.d	$a0, $sp, 48                    # 8-byte Folded Reload
	alsl.d	$a0, $a2, $a0, 2
	move	$a2, $a5
	.p2align	4, , 16
.LBB22_11:                              # %vector.body
                                        #   Parent Loop BB22_3 Depth=1
                                        # =>  This Inner Loop Header: Depth=2
	vld	$vr2, $a0, -16
	vld	$vr3, $a0, 0
	vreplgr2vr.w	$vr4, $fp
	vmadd.w	$vr0, $vr2, $vr4
	vreplgr2vr.w	$vr2, $s2
	vmadd.w	$vr1, $vr3, $vr4
	vadd.w	$vr0, $vr0, $vr2
	vadd.w	$vr1, $vr1, $vr2
	addi.d	$a2, $a2, -8
	addi.d	$a0, $a0, 32
	bnez	$a2, .LBB22_11
# %bb.12:                               # %middle.block
                                        #   in Loop: Header=BB22_3 Depth=1
	vadd.w	$vr0, $vr1, $vr0
	vhaddw.d.w	$vr0, $vr0, $vr0
	vhaddw.q.d	$vr0, $vr0, $vr0
	vpickve2gr.d	$a0, $vr0, 0
	beq	$a4, $a5, .LBB22_15
.LBB22_13:                              # %.lr.ph39.preheader57
                                        #   in Loop: Header=BB22_3 Depth=1
	ld.d	$a1, $sp, 56                    # 8-byte Folded Reload
	alsl.d	$a2, $a3, $a1, 2
	ld.d	$a1, $sp, 88                    # 8-byte Folded Reload
	sub.d	$a3, $a1, $a3
	.p2align	4, , 16
.LBB22_14:                              # %.lr.ph39
                                        #   Parent Loop BB22_3 Depth=1
                                        # =>  This Inner Loop Header: Depth=2
	ld.w	$a1, $a2, 0
	mul.d	$a1, $a1, $fp
	add.d	$a0, $a0, $a1
	add.d	$a0, $a0, $s2
	addi.d	$a3, $a3, -1
	addi.d	$a2, $a2, 4
	bnez	$a3, .LBB22_14
.LBB22_15:                              # %._crit_edge
                                        #   in Loop: Header=BB22_3 Depth=1
	pcalau12i	$a1, %pc_hi20(init_value)
	fld.d	$fa0, $a1, %pc_lo12(init_value)
	ftintrz.w.d	$fa0, $fa0
	movfr2gr.s	$a1, $fa0
	ld.d	$a2, $sp, 104                   # 8-byte Folded Reload
	mul.d	$a1, $a1, $a2
	ld.d	$a2, $sp, 96                    # 8-byte Folded Reload
	add.w	$a1, $a1, $a2
	addi.w	$a0, $a0, 0
	beq	$a0, $a1, .LBB22_2
# %bb.16:                               #   in Loop: Header=BB22_3 Depth=1
	ld.d	$a0, $sp, 80                    # 8-byte Folded Reload
	ld.w	$a1, $a0, %pc_lo12(current_test)
	pcalau12i	$a0, %pc_hi20(.L.str.19)
	addi.d	$a0, $a0, %pc_lo12(.L.str.19)
	pcaddu18i	$ra, %call36(printf)
	jirl	$ra, $ra, 0
	ld.d	$a0, $sp, 72                    # 8-byte Folded Reload
	ld.w	$a0, $a0, %pc_lo12(iterations)
	st.d	$a0, $sp, 112                   # 8-byte Folded Spill
	b	.LBB22_2
.LBB22_17:                              # %._crit_edge42
	pcaddu18i	$ra, %call36(clock)
	jirl	$ra, $ra, 0
	ld.d	$a1, $sp, 24                    # 8-byte Folded Reload
	ld.d	$fp, $a1, %pc_lo12(start_time)
	pcalau12i	$s2, %pc_hi20(results)
	ld.d	$a2, $s2, %pc_lo12(results)
	pcalau12i	$s1, %pc_hi20(allocated_results)
	ld.w	$a1, $s1, %pc_lo12(allocated_results)
	move	$s0, $a0
	pcalau12i	$a0, %pc_hi20(end_time)
	st.d	$s0, $a0, %pc_lo12(end_time)
	ld.d	$s3, $sp, 80                    # 8-byte Folded Reload
	beqz	$a2, .LBB22_19
# %bb.18:                               # %._crit_edge42
	ld.w	$a0, $s3, %pc_lo12(current_test)
	blt	$a0, $a1, .LBB22_21
.LBB22_19:
	addi.w	$a0, $a1, 10
	st.w	$a0, $s1, %pc_lo12(allocated_results)
	slli.d	$a1, $a0, 4
	move	$a0, $a2
	pcaddu18i	$ra, %call36(realloc)
	jirl	$ra, $ra, 0
	st.d	$a0, $s2, %pc_lo12(results)
	beqz	$a0, .LBB22_22
# %bb.20:                               # %._crit_edge.i
	move	$a2, $a0
	ld.w	$a0, $s3, %pc_lo12(current_test)
.LBB22_21:                              # %_Z13record_resultdPKc.exit
	pcalau12i	$a1, %pc_hi20(.LCPI22_0)
	fld.d	$fa0, $a1, %pc_lo12(.LCPI22_0)
	sub.d	$a1, $s0, $fp
	movgr2fr.d	$fa1, $a1
	ffint.d.l	$fa1, $fa1
	fdiv.d	$fa0, $fa1, $fa0
	alsl.d	$a1, $a0, $a2, 4
	slli.d	$a3, $a0, 4
	fstx.d	$fa0, $a2, $a3
	ld.d	$a2, $sp, 16                    # 8-byte Folded Reload
	st.d	$a2, $a1, 8
	addi.d	$a0, $a0, 1
	st.w	$a0, $s3, %pc_lo12(current_test)
	ld.d	$s8, $sp, 120                   # 8-byte Folded Reload
	ld.d	$s7, $sp, 128                   # 8-byte Folded Reload
	ld.d	$s6, $sp, 136                   # 8-byte Folded Reload
	ld.d	$s5, $sp, 144                   # 8-byte Folded Reload
	ld.d	$s4, $sp, 152                   # 8-byte Folded Reload
	ld.d	$s3, $sp, 160                   # 8-byte Folded Reload
	ld.d	$s2, $sp, 168                   # 8-byte Folded Reload
	ld.d	$s1, $sp, 176                   # 8-byte Folded Reload
	ld.d	$s0, $sp, 184                   # 8-byte Folded Reload
	ld.d	$fp, $sp, 192                   # 8-byte Folded Reload
	ld.d	$ra, $sp, 200                   # 8-byte Folded Reload
	addi.d	$sp, $sp, 208
	ret
.LBB22_22:
	ld.w	$a1, $s1, %pc_lo12(allocated_results)
	pcalau12i	$a0, %pc_hi20(.L.str)
	addi.d	$a0, $a0, %pc_lo12(.L.str)
	pcaddu18i	$ra, %call36(printf)
	jirl	$ra, $ra, 0
	addi.w	$a0, $zero, -1
	pcaddu18i	$ra, %call36(exit)
	jirl	$ra, $ra, 0
.Lfunc_end22:
	.size	_Z27test_for_loop_unroll_factorILi18EiEvPKT0_iPKc, .Lfunc_end22-_Z27test_for_loop_unroll_factorILi18EiEvPKT0_iPKc
	.cfi_endproc
                                        # -- End function
	.section	.rodata.cst8,"aM",@progbits,8
	.p2align	3, 0x0                          # -- Begin function _Z27test_for_loop_unroll_factorILi17EiEvPKT0_iPKc
.LCPI23_0:
	.dword	0x412e848000000000              # double 1.0E+6
	.section	.text._Z27test_for_loop_unroll_factorILi17EiEvPKT0_iPKc,"axG",@progbits,_Z27test_for_loop_unroll_factorILi17EiEvPKT0_iPKc,comdat
	.weak	_Z27test_for_loop_unroll_factorILi17EiEvPKT0_iPKc
	.p2align	5
	.type	_Z27test_for_loop_unroll_factorILi17EiEvPKT0_iPKc,@function
_Z27test_for_loop_unroll_factorILi17EiEvPKT0_iPKc: # @_Z27test_for_loop_unroll_factorILi17EiEvPKT0_iPKc
	.cfi_startproc
# %bb.0:
	addi.d	$sp, $sp, -208
	.cfi_def_cfa_offset 208
	st.d	$ra, $sp, 200                   # 8-byte Folded Spill
	st.d	$fp, $sp, 192                   # 8-byte Folded Spill
	st.d	$s0, $sp, 184                   # 8-byte Folded Spill
	st.d	$s1, $sp, 176                   # 8-byte Folded Spill
	st.d	$s2, $sp, 168                   # 8-byte Folded Spill
	st.d	$s3, $sp, 160                   # 8-byte Folded Spill
	st.d	$s4, $sp, 152                   # 8-byte Folded Spill
	st.d	$s5, $sp, 144                   # 8-byte Folded Spill
	st.d	$s6, $sp, 136                   # 8-byte Folded Spill
	st.d	$s7, $sp, 128                   # 8-byte Folded Spill
	st.d	$s8, $sp, 120                   # 8-byte Folded Spill
	.cfi_offset 1, -8
	.cfi_offset 22, -16
	.cfi_offset 23, -24
	.cfi_offset 24, -32
	.cfi_offset 25, -40
	.cfi_offset 26, -48
	.cfi_offset 27, -56
	.cfi_offset 28, -64
	.cfi_offset 29, -72
	.cfi_offset 30, -80
	.cfi_offset 31, -88
	st.d	$a2, $sp, 16                    # 8-byte Folded Spill
	move	$s0, $a1
	st.d	$a0, $sp, 64                    # 8-byte Folded Spill
	pcaddu18i	$ra, %call36(clock)
	jirl	$ra, $ra, 0
	pcalau12i	$a1, %pc_hi20(iterations)
	st.d	$a1, $sp, 80                    # 8-byte Folded Spill
	ld.w	$a1, $a1, %pc_lo12(iterations)
	pcalau12i	$a2, %pc_hi20(start_time)
	st.d	$a2, $sp, 24                    # 8-byte Folded Spill
	st.d	$a0, $a2, %pc_lo12(start_time)
	pcalau12i	$a0, %pc_hi20(current_test)
	st.d	$a0, $sp, 88                    # 8-byte Folded Spill
	blez	$a1, .LBB23_17
# %bb.1:                                # %.preheader32.lr.ph
	move	$s5, $zero
	addi.w	$s6, $s0, -16
	bstrpick.d	$a0, $s0, 31, 0
	st.d	$a0, $sp, 96                    # 8-byte Folded Spill
	ld.d	$a0, $sp, 64                    # 8-byte Folded Reload
	addi.d	$a2, $a0, 32
	st.d	$a2, $sp, 72                    # 8-byte Folded Spill
	addi.d	$a0, $a0, 16
	st.d	$a0, $sp, 56                    # 8-byte Folded Spill
	lu12i.w	$a0, 65881
	ori	$fp, $a0, 1957
	lu12i.w	$a0, 518386
	ori	$s1, $a0, 1336
	lu12i.w	$a0, -277912
	ori	$s2, $a0, 2488
	vrepli.b	$vr0, 0
	vst	$vr0, $sp, 32                   # 16-byte Folded Spill
	lu12i.w	$a0, -381906
	ori	$a0, $a0, 1088
	st.d	$a0, $sp, 112                   # 8-byte Folded Spill
	lu12i.w	$a0, -310021
	ori	$a0, $a0, 1536
	st.d	$a0, $sp, 104                   # 8-byte Folded Spill
	b	.LBB23_3
	.p2align	4, , 16
.LBB23_2:                               # %_Z9check_sumIiEvT_.exit
                                        #   in Loop: Header=BB23_3 Depth=1
	addi.w	$s5, $s5, 1
	bge	$s5, $a1, .LBB23_17
.LBB23_3:                               # %.preheader32
                                        # =>This Loop Header: Depth=1
                                        #     Child Loop BB23_5 Depth 2
                                        #     Child Loop BB23_11 Depth 2
                                        #     Child Loop BB23_14 Depth 2
	ori	$a0, $zero, 17
	blt	$s0, $a0, .LBB23_7
# %bb.4:                                # %.lr.ph.preheader
                                        #   in Loop: Header=BB23_3 Depth=1
	move	$a2, $zero
	move	$a3, $zero
	move	$a0, $zero
	ld.d	$a4, $sp, 72                    # 8-byte Folded Reload
	.p2align	4, , 16
.LBB23_5:                               # %.lr.ph
                                        #   Parent Loop BB23_3 Depth=1
                                        # =>  This Inner Loop Header: Depth=2
	ld.w	$a5, $a4, -32
	ld.w	$a6, $a4, -28
	ld.w	$a7, $a4, -24
	ld.w	$t0, $a4, -20
	ld.w	$t1, $a4, -16
	ld.w	$t2, $a4, -12
	ld.w	$t3, $a4, -8
	ld.w	$t4, $a4, -4
	ld.w	$t5, $a4, 0
	ld.w	$t6, $a4, 4
	ld.w	$t7, $a4, 8
	ld.w	$t8, $a4, 12
	ld.w	$ra, $a4, 16
	ld.w	$s8, $a4, 20
	ld.w	$s7, $a4, 24
	ld.w	$s3, $a4, 28
	ld.w	$s4, $a4, 32
	add.d	$a5, $a6, $a5
	add.d	$a5, $a5, $a7
	add.d	$a5, $a5, $t0
	add.d	$a5, $a5, $t1
	add.d	$a5, $a5, $t2
	add.d	$a5, $a5, $t3
	add.d	$a5, $a5, $t4
	add.d	$a5, $a5, $t5
	add.d	$a5, $a5, $t6
	add.d	$a5, $a5, $t7
	add.d	$a5, $a5, $t8
	add.d	$a5, $a5, $ra
	add.d	$a5, $a5, $s8
	add.d	$a5, $a5, $s7
	add.d	$a5, $a5, $s3
	add.d	$a5, $a5, $s4
	mul.d	$a5, $a5, $fp
	add.d	$a0, $a0, $a5
	add.d	$a0, $a0, $s1
	addi.d	$a3, $a3, 17
	addi.d	$a2, $a2, 17
	addi.d	$a4, $a4, 68
	blt	$a3, $s6, .LBB23_5
# %bb.6:                                # %.preheader
                                        #   in Loop: Header=BB23_3 Depth=1
	addi.w	$a3, $a2, 0
	blt	$a3, $s0, .LBB23_8
	b	.LBB23_15
	.p2align	4, , 16
.LBB23_7:                               #   in Loop: Header=BB23_3 Depth=1
	move	$a0, $zero
	move	$a2, $zero
	addi.w	$a3, $a2, 0
	bge	$a3, $s0, .LBB23_15
.LBB23_8:                               # %.lr.ph38.preheader
                                        #   in Loop: Header=BB23_3 Depth=1
	ld.d	$a3, $sp, 96                    # 8-byte Folded Reload
	sub.d	$a4, $a3, $a2
	ori	$a3, $zero, 8
	bgeu	$a4, $a3, .LBB23_10
# %bb.9:                                #   in Loop: Header=BB23_3 Depth=1
	move	$a3, $a2
	b	.LBB23_13
	.p2align	4, , 16
.LBB23_10:                              # %vector.ph
                                        #   in Loop: Header=BB23_3 Depth=1
	move	$a5, $a4
	bstrins.d	$a5, $zero, 2, 0
	add.d	$a3, $a5, $a2
	vld	$vr1, $sp, 32                   # 16-byte Folded Reload
	vori.b	$vr0, $vr1, 0
	vinsgr2vr.w	$vr0, $a0, 0
	ld.d	$a0, $sp, 56                    # 8-byte Folded Reload
	alsl.d	$a0, $a2, $a0, 2
	move	$a2, $a5
	.p2align	4, , 16
.LBB23_11:                              # %vector.body
                                        #   Parent Loop BB23_3 Depth=1
                                        # =>  This Inner Loop Header: Depth=2
	vld	$vr2, $a0, -16
	vld	$vr3, $a0, 0
	vreplgr2vr.w	$vr4, $fp
	vmadd.w	$vr0, $vr2, $vr4
	vreplgr2vr.w	$vr2, $s2
	vmadd.w	$vr1, $vr3, $vr4
	vadd.w	$vr0, $vr0, $vr2
	vadd.w	$vr1, $vr1, $vr2
	addi.d	$a2, $a2, -8
	addi.d	$a0, $a0, 32
	bnez	$a2, .LBB23_11
# %bb.12:                               # %middle.block
                                        #   in Loop: Header=BB23_3 Depth=1
	vadd.w	$vr0, $vr1, $vr0
	vhaddw.d.w	$vr0, $vr0, $vr0
	vhaddw.q.d	$vr0, $vr0, $vr0
	vpickve2gr.d	$a0, $vr0, 0
	beq	$a4, $a5, .LBB23_15
.LBB23_13:                              # %.lr.ph38.preheader56
                                        #   in Loop: Header=BB23_3 Depth=1
	ld.d	$a2, $sp, 64                    # 8-byte Folded Reload
	alsl.d	$a2, $a3, $a2, 2
	ld.d	$a4, $sp, 96                    # 8-byte Folded Reload
	sub.d	$a3, $a4, $a3
	.p2align	4, , 16
.LBB23_14:                              # %.lr.ph38
                                        #   Parent Loop BB23_3 Depth=1
                                        # =>  This Inner Loop Header: Depth=2
	ld.w	$a4, $a2, 0
	mul.d	$a4, $a4, $fp
	add.d	$a0, $a0, $a4
	add.d	$a0, $a0, $s2
	addi.d	$a3, $a3, -1
	addi.d	$a2, $a2, 4
	bnez	$a3, .LBB23_14
.LBB23_15:                              # %._crit_edge
                                        #   in Loop: Header=BB23_3 Depth=1
	pcalau12i	$a2, %pc_hi20(init_value)
	fld.d	$fa0, $a2, %pc_lo12(init_value)
	ftintrz.w.d	$fa0, $fa0
	movfr2gr.s	$a2, $fa0
	ld.d	$a3, $sp, 112                   # 8-byte Folded Reload
	mul.d	$a2, $a2, $a3
	ld.d	$a3, $sp, 104                   # 8-byte Folded Reload
	add.w	$a2, $a2, $a3
	addi.w	$a0, $a0, 0
	beq	$a0, $a2, .LBB23_2
# %bb.16:                               #   in Loop: Header=BB23_3 Depth=1
	ld.d	$a0, $sp, 88                    # 8-byte Folded Reload
	ld.w	$a1, $a0, %pc_lo12(current_test)
	pcalau12i	$a0, %pc_hi20(.L.str.19)
	addi.d	$a0, $a0, %pc_lo12(.L.str.19)
	pcaddu18i	$ra, %call36(printf)
	jirl	$ra, $ra, 0
	ld.d	$a0, $sp, 80                    # 8-byte Folded Reload
	ld.w	$a1, $a0, %pc_lo12(iterations)
	b	.LBB23_2
.LBB23_17:                              # %._crit_edge41
	pcaddu18i	$ra, %call36(clock)
	jirl	$ra, $ra, 0
	ld.d	$a1, $sp, 24                    # 8-byte Folded Reload
	ld.d	$fp, $a1, %pc_lo12(start_time)
	pcalau12i	$s2, %pc_hi20(results)
	ld.d	$a2, $s2, %pc_lo12(results)
	pcalau12i	$s1, %pc_hi20(allocated_results)
	ld.w	$a1, $s1, %pc_lo12(allocated_results)
	move	$s0, $a0
	pcalau12i	$a0, %pc_hi20(end_time)
	st.d	$s0, $a0, %pc_lo12(end_time)
	ld.d	$s3, $sp, 88                    # 8-byte Folded Reload
	beqz	$a2, .LBB23_19
# %bb.18:                               # %._crit_edge41
	ld.w	$a0, $s3, %pc_lo12(current_test)
	blt	$a0, $a1, .LBB23_21
.LBB23_19:
	addi.w	$a0, $a1, 10
	st.w	$a0, $s1, %pc_lo12(allocated_results)
	slli.d	$a1, $a0, 4
	move	$a0, $a2
	pcaddu18i	$ra, %call36(realloc)
	jirl	$ra, $ra, 0
	st.d	$a0, $s2, %pc_lo12(results)
	beqz	$a0, .LBB23_22
# %bb.20:                               # %._crit_edge.i
	move	$a2, $a0
	ld.w	$a0, $s3, %pc_lo12(current_test)
.LBB23_21:                              # %_Z13record_resultdPKc.exit
	pcalau12i	$a1, %pc_hi20(.LCPI23_0)
	fld.d	$fa0, $a1, %pc_lo12(.LCPI23_0)
	sub.d	$a1, $s0, $fp
	movgr2fr.d	$fa1, $a1
	ffint.d.l	$fa1, $fa1
	fdiv.d	$fa0, $fa1, $fa0
	alsl.d	$a1, $a0, $a2, 4
	slli.d	$a3, $a0, 4
	fstx.d	$fa0, $a2, $a3
	ld.d	$a2, $sp, 16                    # 8-byte Folded Reload
	st.d	$a2, $a1, 8
	addi.d	$a0, $a0, 1
	st.w	$a0, $s3, %pc_lo12(current_test)
	ld.d	$s8, $sp, 120                   # 8-byte Folded Reload
	ld.d	$s7, $sp, 128                   # 8-byte Folded Reload
	ld.d	$s6, $sp, 136                   # 8-byte Folded Reload
	ld.d	$s5, $sp, 144                   # 8-byte Folded Reload
	ld.d	$s4, $sp, 152                   # 8-byte Folded Reload
	ld.d	$s3, $sp, 160                   # 8-byte Folded Reload
	ld.d	$s2, $sp, 168                   # 8-byte Folded Reload
	ld.d	$s1, $sp, 176                   # 8-byte Folded Reload
	ld.d	$s0, $sp, 184                   # 8-byte Folded Reload
	ld.d	$fp, $sp, 192                   # 8-byte Folded Reload
	ld.d	$ra, $sp, 200                   # 8-byte Folded Reload
	addi.d	$sp, $sp, 208
	ret
.LBB23_22:
	ld.w	$a1, $s1, %pc_lo12(allocated_results)
	pcalau12i	$a0, %pc_hi20(.L.str)
	addi.d	$a0, $a0, %pc_lo12(.L.str)
	pcaddu18i	$ra, %call36(printf)
	jirl	$ra, $ra, 0
	addi.w	$a0, $zero, -1
	pcaddu18i	$ra, %call36(exit)
	jirl	$ra, $ra, 0
.Lfunc_end23:
	.size	_Z27test_for_loop_unroll_factorILi17EiEvPKT0_iPKc, .Lfunc_end23-_Z27test_for_loop_unroll_factorILi17EiEvPKT0_iPKc
	.cfi_endproc
                                        # -- End function
	.section	.rodata.cst8,"aM",@progbits,8
	.p2align	3, 0x0                          # -- Begin function _Z27test_for_loop_unroll_factorILi16EiEvPKT0_iPKc
.LCPI24_0:
	.dword	0x412e848000000000              # double 1.0E+6
	.section	.text._Z27test_for_loop_unroll_factorILi16EiEvPKT0_iPKc,"axG",@progbits,_Z27test_for_loop_unroll_factorILi16EiEvPKT0_iPKc,comdat
	.weak	_Z27test_for_loop_unroll_factorILi16EiEvPKT0_iPKc
	.p2align	5
	.type	_Z27test_for_loop_unroll_factorILi16EiEvPKT0_iPKc,@function
_Z27test_for_loop_unroll_factorILi16EiEvPKT0_iPKc: # @_Z27test_for_loop_unroll_factorILi16EiEvPKT0_iPKc
	.cfi_startproc
# %bb.0:
	addi.d	$sp, $sp, -192
	.cfi_def_cfa_offset 192
	st.d	$ra, $sp, 184                   # 8-byte Folded Spill
	st.d	$fp, $sp, 176                   # 8-byte Folded Spill
	st.d	$s0, $sp, 168                   # 8-byte Folded Spill
	st.d	$s1, $sp, 160                   # 8-byte Folded Spill
	st.d	$s2, $sp, 152                   # 8-byte Folded Spill
	st.d	$s3, $sp, 144                   # 8-byte Folded Spill
	st.d	$s4, $sp, 136                   # 8-byte Folded Spill
	st.d	$s5, $sp, 128                   # 8-byte Folded Spill
	st.d	$s6, $sp, 120                   # 8-byte Folded Spill
	st.d	$s7, $sp, 112                   # 8-byte Folded Spill
	st.d	$s8, $sp, 104                   # 8-byte Folded Spill
	.cfi_offset 1, -8
	.cfi_offset 22, -16
	.cfi_offset 23, -24
	.cfi_offset 24, -32
	.cfi_offset 25, -40
	.cfi_offset 26, -48
	.cfi_offset 27, -56
	.cfi_offset 28, -64
	.cfi_offset 29, -72
	.cfi_offset 30, -80
	.cfi_offset 31, -88
	st.d	$a2, $sp, 16                    # 8-byte Folded Spill
	move	$s0, $a1
	st.d	$a0, $sp, 56                    # 8-byte Folded Spill
	pcaddu18i	$ra, %call36(clock)
	jirl	$ra, $ra, 0
	pcalau12i	$a1, %pc_hi20(iterations)
	st.d	$a1, $sp, 72                    # 8-byte Folded Spill
	ld.w	$a1, $a1, %pc_lo12(iterations)
	pcalau12i	$a2, %pc_hi20(start_time)
	st.d	$a2, $sp, 24                    # 8-byte Folded Spill
	st.d	$a0, $a2, %pc_lo12(start_time)
	pcalau12i	$a0, %pc_hi20(current_test)
	st.d	$a0, $sp, 80                    # 8-byte Folded Spill
	blez	$a1, .LBB24_17
# %bb.1:                                # %.preheader31.lr.ph
	move	$s5, $zero
	addi.w	$s6, $s0, -15
	bstrpick.d	$a0, $s0, 31, 0
	st.d	$a0, $sp, 88                    # 8-byte Folded Spill
	ld.d	$a0, $sp, 56                    # 8-byte Folded Reload
	addi.d	$a2, $a0, 32
	st.d	$a2, $sp, 64                    # 8-byte Folded Spill
	addi.d	$a0, $a0, 16
	st.d	$a0, $sp, 48                    # 8-byte Folded Spill
	lu12i.w	$a0, 65881
	ori	$fp, $a0, 1957
	lu12i.w	$a0, -252279
	ori	$s1, $a0, 2944
	lu12i.w	$a0, -277912
	ori	$s2, $a0, 2488
	vrepli.b	$vr0, 0
	vst	$vr0, $sp, 32                   # 16-byte Folded Spill
	lu12i.w	$a0, -381906
	ori	$a0, $a0, 1088
	st.d	$a0, $sp, 96                    # 8-byte Folded Spill
	lu12i.w	$a0, -310021
	ori	$s4, $a0, 1536
	b	.LBB24_3
	.p2align	4, , 16
.LBB24_2:                               # %_Z9check_sumIiEvT_.exit
                                        #   in Loop: Header=BB24_3 Depth=1
	addi.w	$s5, $s5, 1
	bge	$s5, $a1, .LBB24_17
.LBB24_3:                               # %.preheader31
                                        # =>This Loop Header: Depth=1
                                        #     Child Loop BB24_5 Depth 2
                                        #     Child Loop BB24_11 Depth 2
                                        #     Child Loop BB24_14 Depth 2
	ori	$a0, $zero, 16
	blt	$s0, $a0, .LBB24_7
# %bb.4:                                # %.lr.ph.preheader
                                        #   in Loop: Header=BB24_3 Depth=1
	move	$a2, $zero
	move	$a3, $zero
	move	$a0, $zero
	ld.d	$a4, $sp, 64                    # 8-byte Folded Reload
	.p2align	4, , 16
.LBB24_5:                               # %.lr.ph
                                        #   Parent Loop BB24_3 Depth=1
                                        # =>  This Inner Loop Header: Depth=2
	ld.w	$a5, $a4, -32
	ld.w	$a6, $a4, -28
	ld.w	$a7, $a4, -24
	ld.w	$t0, $a4, -20
	ld.w	$t1, $a4, -16
	ld.w	$t2, $a4, -12
	ld.w	$t3, $a4, -8
	ld.w	$t4, $a4, -4
	ld.w	$t5, $a4, 0
	ld.w	$t6, $a4, 4
	ld.w	$t7, $a4, 8
	ld.w	$t8, $a4, 12
	ld.w	$ra, $a4, 16
	ld.w	$s8, $a4, 20
	ld.w	$s7, $a4, 24
	ld.w	$s3, $a4, 28
	add.d	$a5, $a6, $a5
	add.d	$a5, $a5, $a7
	add.d	$a5, $a5, $t0
	add.d	$a5, $a5, $t1
	add.d	$a5, $a5, $t2
	add.d	$a5, $a5, $t3
	add.d	$a5, $a5, $t4
	add.d	$a5, $a5, $t5
	add.d	$a5, $a5, $t6
	add.d	$a5, $a5, $t7
	add.d	$a5, $a5, $t8
	add.d	$a5, $a5, $ra
	add.d	$a5, $a5, $s8
	add.d	$a5, $a5, $s7
	add.d	$a5, $a5, $s3
	mul.d	$a5, $a5, $fp
	add.d	$a0, $a0, $a5
	add.d	$a0, $a0, $s1
	addi.d	$a3, $a3, 16
	addi.d	$a2, $a2, 16
	addi.d	$a4, $a4, 64
	blt	$a3, $s6, .LBB24_5
# %bb.6:                                # %.preheader
                                        #   in Loop: Header=BB24_3 Depth=1
	addi.w	$a3, $a2, 0
	blt	$a3, $s0, .LBB24_8
	b	.LBB24_15
	.p2align	4, , 16
.LBB24_7:                               #   in Loop: Header=BB24_3 Depth=1
	move	$a0, $zero
	move	$a2, $zero
	addi.w	$a3, $a2, 0
	bge	$a3, $s0, .LBB24_15
.LBB24_8:                               # %.lr.ph37.preheader
                                        #   in Loop: Header=BB24_3 Depth=1
	ld.d	$a3, $sp, 88                    # 8-byte Folded Reload
	sub.d	$a4, $a3, $a2
	ori	$a3, $zero, 8
	bgeu	$a4, $a3, .LBB24_10
# %bb.9:                                #   in Loop: Header=BB24_3 Depth=1
	move	$a3, $a2
	b	.LBB24_13
	.p2align	4, , 16
.LBB24_10:                              # %vector.ph
                                        #   in Loop: Header=BB24_3 Depth=1
	move	$a5, $a4
	bstrins.d	$a5, $zero, 2, 0
	add.d	$a3, $a5, $a2
	vld	$vr1, $sp, 32                   # 16-byte Folded Reload
	vori.b	$vr0, $vr1, 0
	vinsgr2vr.w	$vr0, $a0, 0
	ld.d	$a0, $sp, 48                    # 8-byte Folded Reload
	alsl.d	$a0, $a2, $a0, 2
	move	$a2, $a5
	.p2align	4, , 16
.LBB24_11:                              # %vector.body
                                        #   Parent Loop BB24_3 Depth=1
                                        # =>  This Inner Loop Header: Depth=2
	vld	$vr2, $a0, -16
	vld	$vr3, $a0, 0
	vreplgr2vr.w	$vr4, $fp
	vmadd.w	$vr0, $vr2, $vr4
	vreplgr2vr.w	$vr2, $s2
	vmadd.w	$vr1, $vr3, $vr4
	vadd.w	$vr0, $vr0, $vr2
	vadd.w	$vr1, $vr1, $vr2
	addi.d	$a2, $a2, -8
	addi.d	$a0, $a0, 32
	bnez	$a2, .LBB24_11
# %bb.12:                               # %middle.block
                                        #   in Loop: Header=BB24_3 Depth=1
	vadd.w	$vr0, $vr1, $vr0
	vhaddw.d.w	$vr0, $vr0, $vr0
	vhaddw.q.d	$vr0, $vr0, $vr0
	vpickve2gr.d	$a0, $vr0, 0
	beq	$a4, $a5, .LBB24_15
.LBB24_13:                              # %.lr.ph37.preheader55
                                        #   in Loop: Header=BB24_3 Depth=1
	ld.d	$a2, $sp, 56                    # 8-byte Folded Reload
	alsl.d	$a2, $a3, $a2, 2
	ld.d	$a4, $sp, 88                    # 8-byte Folded Reload
	sub.d	$a3, $a4, $a3
	.p2align	4, , 16
.LBB24_14:                              # %.lr.ph37
                                        #   Parent Loop BB24_3 Depth=1
                                        # =>  This Inner Loop Header: Depth=2
	ld.w	$a4, $a2, 0
	mul.d	$a4, $a4, $fp
	add.d	$a0, $a0, $a4
	add.d	$a0, $a0, $s2
	addi.d	$a3, $a3, -1
	addi.d	$a2, $a2, 4
	bnez	$a3, .LBB24_14
.LBB24_15:                              # %._crit_edge
                                        #   in Loop: Header=BB24_3 Depth=1
	pcalau12i	$a2, %pc_hi20(init_value)
	fld.d	$fa0, $a2, %pc_lo12(init_value)
	ftintrz.w.d	$fa0, $fa0
	movfr2gr.s	$a2, $fa0
	ld.d	$a3, $sp, 96                    # 8-byte Folded Reload
	mul.d	$a2, $a2, $a3
	add.w	$a2, $a2, $s4
	addi.w	$a0, $a0, 0
	beq	$a0, $a2, .LBB24_2
# %bb.16:                               #   in Loop: Header=BB24_3 Depth=1
	ld.d	$a0, $sp, 80                    # 8-byte Folded Reload
	ld.w	$a1, $a0, %pc_lo12(current_test)
	pcalau12i	$a0, %pc_hi20(.L.str.19)
	addi.d	$a0, $a0, %pc_lo12(.L.str.19)
	pcaddu18i	$ra, %call36(printf)
	jirl	$ra, $ra, 0
	ld.d	$a0, $sp, 72                    # 8-byte Folded Reload
	ld.w	$a1, $a0, %pc_lo12(iterations)
	b	.LBB24_2
.LBB24_17:                              # %._crit_edge40
	pcaddu18i	$ra, %call36(clock)
	jirl	$ra, $ra, 0
	ld.d	$a1, $sp, 24                    # 8-byte Folded Reload
	ld.d	$fp, $a1, %pc_lo12(start_time)
	pcalau12i	$s2, %pc_hi20(results)
	ld.d	$a2, $s2, %pc_lo12(results)
	pcalau12i	$s1, %pc_hi20(allocated_results)
	ld.w	$a1, $s1, %pc_lo12(allocated_results)
	move	$s0, $a0
	pcalau12i	$a0, %pc_hi20(end_time)
	st.d	$s0, $a0, %pc_lo12(end_time)
	ld.d	$s3, $sp, 80                    # 8-byte Folded Reload
	beqz	$a2, .LBB24_19
# %bb.18:                               # %._crit_edge40
	ld.w	$a0, $s3, %pc_lo12(current_test)
	blt	$a0, $a1, .LBB24_21
.LBB24_19:
	addi.w	$a0, $a1, 10
	st.w	$a0, $s1, %pc_lo12(allocated_results)
	slli.d	$a1, $a0, 4
	move	$a0, $a2
	pcaddu18i	$ra, %call36(realloc)
	jirl	$ra, $ra, 0
	st.d	$a0, $s2, %pc_lo12(results)
	beqz	$a0, .LBB24_22
# %bb.20:                               # %._crit_edge.i
	move	$a2, $a0
	ld.w	$a0, $s3, %pc_lo12(current_test)
.LBB24_21:                              # %_Z13record_resultdPKc.exit
	pcalau12i	$a1, %pc_hi20(.LCPI24_0)
	fld.d	$fa0, $a1, %pc_lo12(.LCPI24_0)
	sub.d	$a1, $s0, $fp
	movgr2fr.d	$fa1, $a1
	ffint.d.l	$fa1, $fa1
	fdiv.d	$fa0, $fa1, $fa0
	alsl.d	$a1, $a0, $a2, 4
	slli.d	$a3, $a0, 4
	fstx.d	$fa0, $a2, $a3
	ld.d	$a2, $sp, 16                    # 8-byte Folded Reload
	st.d	$a2, $a1, 8
	addi.d	$a0, $a0, 1
	st.w	$a0, $s3, %pc_lo12(current_test)
	ld.d	$s8, $sp, 104                   # 8-byte Folded Reload
	ld.d	$s7, $sp, 112                   # 8-byte Folded Reload
	ld.d	$s6, $sp, 120                   # 8-byte Folded Reload
	ld.d	$s5, $sp, 128                   # 8-byte Folded Reload
	ld.d	$s4, $sp, 136                   # 8-byte Folded Reload
	ld.d	$s3, $sp, 144                   # 8-byte Folded Reload
	ld.d	$s2, $sp, 152                   # 8-byte Folded Reload
	ld.d	$s1, $sp, 160                   # 8-byte Folded Reload
	ld.d	$s0, $sp, 168                   # 8-byte Folded Reload
	ld.d	$fp, $sp, 176                   # 8-byte Folded Reload
	ld.d	$ra, $sp, 184                   # 8-byte Folded Reload
	addi.d	$sp, $sp, 192
	ret
.LBB24_22:
	ld.w	$a1, $s1, %pc_lo12(allocated_results)
	pcalau12i	$a0, %pc_hi20(.L.str)
	addi.d	$a0, $a0, %pc_lo12(.L.str)
	pcaddu18i	$ra, %call36(printf)
	jirl	$ra, $ra, 0
	addi.w	$a0, $zero, -1
	pcaddu18i	$ra, %call36(exit)
	jirl	$ra, $ra, 0
.Lfunc_end24:
	.size	_Z27test_for_loop_unroll_factorILi16EiEvPKT0_iPKc, .Lfunc_end24-_Z27test_for_loop_unroll_factorILi16EiEvPKT0_iPKc
	.cfi_endproc
                                        # -- End function
	.section	.rodata.cst8,"aM",@progbits,8
	.p2align	3, 0x0                          # -- Begin function _Z27test_for_loop_unroll_factorILi15EiEvPKT0_iPKc
.LCPI25_0:
	.dword	0x412e848000000000              # double 1.0E+6
	.section	.text._Z27test_for_loop_unroll_factorILi15EiEvPKT0_iPKc,"axG",@progbits,_Z27test_for_loop_unroll_factorILi15EiEvPKT0_iPKc,comdat
	.weak	_Z27test_for_loop_unroll_factorILi15EiEvPKT0_iPKc
	.p2align	5
	.type	_Z27test_for_loop_unroll_factorILi15EiEvPKT0_iPKc,@function
_Z27test_for_loop_unroll_factorILi15EiEvPKT0_iPKc: # @_Z27test_for_loop_unroll_factorILi15EiEvPKT0_iPKc
	.cfi_startproc
# %bb.0:
	addi.d	$sp, $sp, -192
	.cfi_def_cfa_offset 192
	st.d	$ra, $sp, 184                   # 8-byte Folded Spill
	st.d	$fp, $sp, 176                   # 8-byte Folded Spill
	st.d	$s0, $sp, 168                   # 8-byte Folded Spill
	st.d	$s1, $sp, 160                   # 8-byte Folded Spill
	st.d	$s2, $sp, 152                   # 8-byte Folded Spill
	st.d	$s3, $sp, 144                   # 8-byte Folded Spill
	st.d	$s4, $sp, 136                   # 8-byte Folded Spill
	st.d	$s5, $sp, 128                   # 8-byte Folded Spill
	st.d	$s6, $sp, 120                   # 8-byte Folded Spill
	st.d	$s7, $sp, 112                   # 8-byte Folded Spill
	st.d	$s8, $sp, 104                   # 8-byte Folded Spill
	.cfi_offset 1, -8
	.cfi_offset 22, -16
	.cfi_offset 23, -24
	.cfi_offset 24, -32
	.cfi_offset 25, -40
	.cfi_offset 26, -48
	.cfi_offset 27, -56
	.cfi_offset 28, -64
	.cfi_offset 29, -72
	.cfi_offset 30, -80
	.cfi_offset 31, -88
	st.d	$a2, $sp, 16                    # 8-byte Folded Spill
	move	$s0, $a1
	st.d	$a0, $sp, 64                    # 8-byte Folded Spill
	pcaddu18i	$ra, %call36(clock)
	jirl	$ra, $ra, 0
	pcalau12i	$a1, %pc_hi20(iterations)
	st.d	$a1, $sp, 80                    # 8-byte Folded Spill
	ld.w	$a1, $a1, %pc_lo12(iterations)
	pcalau12i	$a2, %pc_hi20(start_time)
	st.d	$a2, $sp, 24                    # 8-byte Folded Spill
	st.d	$a0, $a2, %pc_lo12(start_time)
	pcalau12i	$a0, %pc_hi20(current_test)
	st.d	$a0, $sp, 88                    # 8-byte Folded Spill
	blez	$a1, .LBB25_17
# %bb.1:                                # %.preheader30.lr.ph
	move	$s5, $zero
	addi.w	$s6, $s0, -14
	bstrpick.d	$a0, $s0, 31, 0
	st.d	$a0, $sp, 96                    # 8-byte Folded Spill
	ld.d	$a0, $sp, 64                    # 8-byte Folded Reload
	addi.d	$a2, $a0, 28
	st.d	$a2, $sp, 72                    # 8-byte Folded Spill
	addi.d	$a0, $a0, 16
	st.d	$a0, $sp, 56                    # 8-byte Folded Spill
	lu12i.w	$a0, 65881
	ori	$fp, $a0, 1957
	lu12i.w	$a0, 25633
	ori	$s1, $a0, 456
	lu12i.w	$a0, -277912
	ori	$s2, $a0, 2488
	vrepli.b	$vr0, 0
	vst	$vr0, $sp, 32                   # 16-byte Folded Spill
	lu12i.w	$a0, -381906
	ori	$s3, $a0, 1088
	lu12i.w	$a0, -310021
	ori	$s4, $a0, 1536
	b	.LBB25_3
	.p2align	4, , 16
.LBB25_2:                               # %_Z9check_sumIiEvT_.exit
                                        #   in Loop: Header=BB25_3 Depth=1
	addi.w	$s5, $s5, 1
	bge	$s5, $a1, .LBB25_17
.LBB25_3:                               # %.preheader30
                                        # =>This Loop Header: Depth=1
                                        #     Child Loop BB25_5 Depth 2
                                        #     Child Loop BB25_11 Depth 2
                                        #     Child Loop BB25_14 Depth 2
	ori	$a0, $zero, 15
	blt	$s0, $a0, .LBB25_7
# %bb.4:                                # %.lr.ph.preheader
                                        #   in Loop: Header=BB25_3 Depth=1
	move	$a2, $zero
	move	$a3, $zero
	move	$a0, $zero
	ld.d	$a4, $sp, 72                    # 8-byte Folded Reload
	.p2align	4, , 16
.LBB25_5:                               # %.lr.ph
                                        #   Parent Loop BB25_3 Depth=1
                                        # =>  This Inner Loop Header: Depth=2
	ld.w	$a5, $a4, -28
	ld.w	$a6, $a4, -24
	ld.w	$a7, $a4, -20
	ld.w	$t0, $a4, -16
	ld.w	$t1, $a4, -12
	ld.w	$t2, $a4, -8
	ld.w	$t3, $a4, -4
	ld.w	$t4, $a4, 0
	ld.w	$t5, $a4, 4
	ld.w	$t6, $a4, 8
	ld.w	$t7, $a4, 12
	ld.w	$t8, $a4, 16
	ld.w	$ra, $a4, 20
	ld.w	$s8, $a4, 24
	ld.w	$s7, $a4, 28
	add.d	$a5, $a6, $a5
	add.d	$a5, $a5, $a7
	add.d	$a5, $a5, $t0
	add.d	$a5, $a5, $t1
	add.d	$a5, $a5, $t2
	add.d	$a5, $a5, $t3
	add.d	$a5, $a5, $t4
	add.d	$a5, $a5, $t5
	add.d	$a5, $a5, $t6
	add.d	$a5, $a5, $t7
	add.d	$a5, $a5, $t8
	add.d	$a5, $a5, $ra
	add.d	$a5, $a5, $s8
	add.d	$a5, $a5, $s7
	mul.d	$a5, $a5, $fp
	add.d	$a0, $a0, $a5
	add.d	$a0, $a0, $s1
	addi.d	$a3, $a3, 15
	addi.d	$a2, $a2, 15
	addi.d	$a4, $a4, 60
	blt	$a3, $s6, .LBB25_5
# %bb.6:                                # %.preheader
                                        #   in Loop: Header=BB25_3 Depth=1
	addi.w	$a3, $a2, 0
	blt	$a3, $s0, .LBB25_8
	b	.LBB25_15
	.p2align	4, , 16
.LBB25_7:                               #   in Loop: Header=BB25_3 Depth=1
	move	$a0, $zero
	move	$a2, $zero
	addi.w	$a3, $a2, 0
	bge	$a3, $s0, .LBB25_15
.LBB25_8:                               # %.lr.ph36.preheader
                                        #   in Loop: Header=BB25_3 Depth=1
	ld.d	$a3, $sp, 96                    # 8-byte Folded Reload
	sub.d	$a4, $a3, $a2
	ori	$a3, $zero, 8
	bgeu	$a4, $a3, .LBB25_10
# %bb.9:                                #   in Loop: Header=BB25_3 Depth=1
	move	$a3, $a2
	b	.LBB25_13
	.p2align	4, , 16
.LBB25_10:                              # %vector.ph
                                        #   in Loop: Header=BB25_3 Depth=1
	move	$a5, $a4
	bstrins.d	$a5, $zero, 2, 0
	add.d	$a3, $a5, $a2
	vld	$vr1, $sp, 32                   # 16-byte Folded Reload
	vori.b	$vr0, $vr1, 0
	vinsgr2vr.w	$vr0, $a0, 0
	ld.d	$a0, $sp, 56                    # 8-byte Folded Reload
	alsl.d	$a0, $a2, $a0, 2
	move	$a2, $a5
	.p2align	4, , 16
.LBB25_11:                              # %vector.body
                                        #   Parent Loop BB25_3 Depth=1
                                        # =>  This Inner Loop Header: Depth=2
	vld	$vr2, $a0, -16
	vld	$vr3, $a0, 0
	vreplgr2vr.w	$vr4, $fp
	vmadd.w	$vr0, $vr2, $vr4
	vreplgr2vr.w	$vr2, $s2
	vmadd.w	$vr1, $vr3, $vr4
	vadd.w	$vr0, $vr0, $vr2
	vadd.w	$vr1, $vr1, $vr2
	addi.d	$a2, $a2, -8
	addi.d	$a0, $a0, 32
	bnez	$a2, .LBB25_11
# %bb.12:                               # %middle.block
                                        #   in Loop: Header=BB25_3 Depth=1
	vadd.w	$vr0, $vr1, $vr0
	vhaddw.d.w	$vr0, $vr0, $vr0
	vhaddw.q.d	$vr0, $vr0, $vr0
	vpickve2gr.d	$a0, $vr0, 0
	beq	$a4, $a5, .LBB25_15
.LBB25_13:                              # %.lr.ph36.preheader54
                                        #   in Loop: Header=BB25_3 Depth=1
	ld.d	$a2, $sp, 64                    # 8-byte Folded Reload
	alsl.d	$a2, $a3, $a2, 2
	ld.d	$a4, $sp, 96                    # 8-byte Folded Reload
	sub.d	$a3, $a4, $a3
	.p2align	4, , 16
.LBB25_14:                              # %.lr.ph36
                                        #   Parent Loop BB25_3 Depth=1
                                        # =>  This Inner Loop Header: Depth=2
	ld.w	$a4, $a2, 0
	mul.d	$a4, $a4, $fp
	add.d	$a0, $a0, $a4
	add.d	$a0, $a0, $s2
	addi.d	$a3, $a3, -1
	addi.d	$a2, $a2, 4
	bnez	$a3, .LBB25_14
.LBB25_15:                              # %._crit_edge
                                        #   in Loop: Header=BB25_3 Depth=1
	pcalau12i	$a2, %pc_hi20(init_value)
	fld.d	$fa0, $a2, %pc_lo12(init_value)
	ftintrz.w.d	$fa0, $fa0
	movfr2gr.s	$a2, $fa0
	mul.d	$a2, $a2, $s3
	add.w	$a2, $a2, $s4
	addi.w	$a0, $a0, 0
	beq	$a0, $a2, .LBB25_2
# %bb.16:                               #   in Loop: Header=BB25_3 Depth=1
	ld.d	$a0, $sp, 88                    # 8-byte Folded Reload
	ld.w	$a1, $a0, %pc_lo12(current_test)
	pcalau12i	$a0, %pc_hi20(.L.str.19)
	addi.d	$a0, $a0, %pc_lo12(.L.str.19)
	pcaddu18i	$ra, %call36(printf)
	jirl	$ra, $ra, 0
	ld.d	$a0, $sp, 80                    # 8-byte Folded Reload
	ld.w	$a1, $a0, %pc_lo12(iterations)
	b	.LBB25_2
.LBB25_17:                              # %._crit_edge39
	pcaddu18i	$ra, %call36(clock)
	jirl	$ra, $ra, 0
	ld.d	$a1, $sp, 24                    # 8-byte Folded Reload
	ld.d	$fp, $a1, %pc_lo12(start_time)
	pcalau12i	$s2, %pc_hi20(results)
	ld.d	$a2, $s2, %pc_lo12(results)
	pcalau12i	$s1, %pc_hi20(allocated_results)
	ld.w	$a1, $s1, %pc_lo12(allocated_results)
	move	$s0, $a0
	pcalau12i	$a0, %pc_hi20(end_time)
	st.d	$s0, $a0, %pc_lo12(end_time)
	ld.d	$s3, $sp, 88                    # 8-byte Folded Reload
	beqz	$a2, .LBB25_19
# %bb.18:                               # %._crit_edge39
	ld.w	$a0, $s3, %pc_lo12(current_test)
	blt	$a0, $a1, .LBB25_21
.LBB25_19:
	addi.w	$a0, $a1, 10
	st.w	$a0, $s1, %pc_lo12(allocated_results)
	slli.d	$a1, $a0, 4
	move	$a0, $a2
	pcaddu18i	$ra, %call36(realloc)
	jirl	$ra, $ra, 0
	st.d	$a0, $s2, %pc_lo12(results)
	beqz	$a0, .LBB25_22
# %bb.20:                               # %._crit_edge.i
	move	$a2, $a0
	ld.w	$a0, $s3, %pc_lo12(current_test)
.LBB25_21:                              # %_Z13record_resultdPKc.exit
	pcalau12i	$a1, %pc_hi20(.LCPI25_0)
	fld.d	$fa0, $a1, %pc_lo12(.LCPI25_0)
	sub.d	$a1, $s0, $fp
	movgr2fr.d	$fa1, $a1
	ffint.d.l	$fa1, $fa1
	fdiv.d	$fa0, $fa1, $fa0
	alsl.d	$a1, $a0, $a2, 4
	slli.d	$a3, $a0, 4
	fstx.d	$fa0, $a2, $a3
	ld.d	$a2, $sp, 16                    # 8-byte Folded Reload
	st.d	$a2, $a1, 8
	addi.d	$a0, $a0, 1
	st.w	$a0, $s3, %pc_lo12(current_test)
	ld.d	$s8, $sp, 104                   # 8-byte Folded Reload
	ld.d	$s7, $sp, 112                   # 8-byte Folded Reload
	ld.d	$s6, $sp, 120                   # 8-byte Folded Reload
	ld.d	$s5, $sp, 128                   # 8-byte Folded Reload
	ld.d	$s4, $sp, 136                   # 8-byte Folded Reload
	ld.d	$s3, $sp, 144                   # 8-byte Folded Reload
	ld.d	$s2, $sp, 152                   # 8-byte Folded Reload
	ld.d	$s1, $sp, 160                   # 8-byte Folded Reload
	ld.d	$s0, $sp, 168                   # 8-byte Folded Reload
	ld.d	$fp, $sp, 176                   # 8-byte Folded Reload
	ld.d	$ra, $sp, 184                   # 8-byte Folded Reload
	addi.d	$sp, $sp, 192
	ret
.LBB25_22:
	ld.w	$a1, $s1, %pc_lo12(allocated_results)
	pcalau12i	$a0, %pc_hi20(.L.str)
	addi.d	$a0, $a0, %pc_lo12(.L.str)
	pcaddu18i	$ra, %call36(printf)
	jirl	$ra, $ra, 0
	addi.w	$a0, $zero, -1
	pcaddu18i	$ra, %call36(exit)
	jirl	$ra, $ra, 0
.Lfunc_end25:
	.size	_Z27test_for_loop_unroll_factorILi15EiEvPKT0_iPKc, .Lfunc_end25-_Z27test_for_loop_unroll_factorILi15EiEvPKT0_iPKc
	.cfi_endproc
                                        # -- End function
	.section	.rodata.cst8,"aM",@progbits,8
	.p2align	3, 0x0                          # -- Begin function _Z27test_for_loop_unroll_factorILi14EiEvPKT0_iPKc
.LCPI26_0:
	.dword	0x412e848000000000              # double 1.0E+6
	.section	.text._Z27test_for_loop_unroll_factorILi14EiEvPKT0_iPKc,"axG",@progbits,_Z27test_for_loop_unroll_factorILi14EiEvPKT0_iPKc,comdat
	.weak	_Z27test_for_loop_unroll_factorILi14EiEvPKT0_iPKc
	.p2align	5
	.type	_Z27test_for_loop_unroll_factorILi14EiEvPKT0_iPKc,@function
_Z27test_for_loop_unroll_factorILi14EiEvPKT0_iPKc: # @_Z27test_for_loop_unroll_factorILi14EiEvPKT0_iPKc
	.cfi_startproc
# %bb.0:
	addi.d	$sp, $sp, -176
	.cfi_def_cfa_offset 176
	st.d	$ra, $sp, 168                   # 8-byte Folded Spill
	st.d	$fp, $sp, 160                   # 8-byte Folded Spill
	st.d	$s0, $sp, 152                   # 8-byte Folded Spill
	st.d	$s1, $sp, 144                   # 8-byte Folded Spill
	st.d	$s2, $sp, 136                   # 8-byte Folded Spill
	st.d	$s3, $sp, 128                   # 8-byte Folded Spill
	st.d	$s4, $sp, 120                   # 8-byte Folded Spill
	st.d	$s5, $sp, 112                   # 8-byte Folded Spill
	st.d	$s6, $sp, 104                   # 8-byte Folded Spill
	st.d	$s7, $sp, 96                    # 8-byte Folded Spill
	st.d	$s8, $sp, 88                    # 8-byte Folded Spill
	.cfi_offset 1, -8
	.cfi_offset 22, -16
	.cfi_offset 23, -24
	.cfi_offset 24, -32
	.cfi_offset 25, -40
	.cfi_offset 26, -48
	.cfi_offset 27, -56
	.cfi_offset 28, -64
	.cfi_offset 29, -72
	.cfi_offset 30, -80
	.cfi_offset 31, -88
	st.d	$a2, $sp, 16                    # 8-byte Folded Spill
	move	$s0, $a1
	st.d	$a0, $sp, 56                    # 8-byte Folded Spill
	pcaddu18i	$ra, %call36(clock)
	jirl	$ra, $ra, 0
	pcalau12i	$a1, %pc_hi20(iterations)
	st.d	$a1, $sp, 72                    # 8-byte Folded Spill
	ld.w	$a1, $a1, %pc_lo12(iterations)
	pcalau12i	$a2, %pc_hi20(start_time)
	st.d	$a2, $sp, 24                    # 8-byte Folded Spill
	st.d	$a0, $a2, %pc_lo12(start_time)
	pcalau12i	$a0, %pc_hi20(current_test)
	st.d	$a0, $sp, 80                    # 8-byte Folded Spill
	blez	$a1, .LBB26_17
# %bb.1:                                # %.preheader29.lr.ph
	move	$s5, $zero
	addi.w	$s6, $s0, -13
	bstrpick.d	$s7, $s0, 31, 0
	ld.d	$a0, $sp, 56                    # 8-byte Folded Reload
	addi.d	$a2, $a0, 28
	st.d	$a2, $sp, 64                    # 8-byte Folded Spill
	addi.d	$a0, $a0, 16
	st.d	$a0, $sp, 48                    # 8-byte Folded Spill
	lu12i.w	$a0, 65881
	ori	$fp, $a0, 1957
	lu12i.w	$a0, 303544
	ori	$s1, $a0, 2064
	lu12i.w	$a0, -277912
	ori	$s2, $a0, 2488
	vrepli.b	$vr0, 0
	vst	$vr0, $sp, 32                   # 16-byte Folded Spill
	lu12i.w	$a0, -381906
	ori	$s4, $a0, 1088
	lu12i.w	$a0, -310021
	ori	$s3, $a0, 1536
	b	.LBB26_3
	.p2align	4, , 16
.LBB26_2:                               # %_Z9check_sumIiEvT_.exit
                                        #   in Loop: Header=BB26_3 Depth=1
	addi.w	$s5, $s5, 1
	bge	$s5, $a1, .LBB26_17
.LBB26_3:                               # %.preheader29
                                        # =>This Loop Header: Depth=1
                                        #     Child Loop BB26_5 Depth 2
                                        #     Child Loop BB26_11 Depth 2
                                        #     Child Loop BB26_14 Depth 2
	ori	$a0, $zero, 14
	blt	$s0, $a0, .LBB26_7
# %bb.4:                                # %.lr.ph.preheader
                                        #   in Loop: Header=BB26_3 Depth=1
	move	$a2, $zero
	move	$a3, $zero
	move	$a0, $zero
	ld.d	$a4, $sp, 64                    # 8-byte Folded Reload
	.p2align	4, , 16
.LBB26_5:                               # %.lr.ph
                                        #   Parent Loop BB26_3 Depth=1
                                        # =>  This Inner Loop Header: Depth=2
	ld.w	$a5, $a4, -28
	ld.w	$a6, $a4, -24
	ld.w	$a7, $a4, -20
	ld.w	$t0, $a4, -16
	ld.w	$t1, $a4, -12
	ld.w	$t2, $a4, -8
	ld.w	$t3, $a4, -4
	ld.w	$t4, $a4, 0
	ld.w	$t5, $a4, 4
	ld.w	$t6, $a4, 8
	ld.w	$t7, $a4, 12
	ld.w	$t8, $a4, 16
	ld.w	$ra, $a4, 20
	ld.w	$s8, $a4, 24
	add.d	$a5, $a6, $a5
	add.d	$a5, $a5, $a7
	add.d	$a5, $a5, $t0
	add.d	$a5, $a5, $t1
	add.d	$a5, $a5, $t2
	add.d	$a5, $a5, $t3
	add.d	$a5, $a5, $t4
	add.d	$a5, $a5, $t5
	add.d	$a5, $a5, $t6
	add.d	$a5, $a5, $t7
	add.d	$a5, $a5, $t8
	add.d	$a5, $a5, $ra
	add.d	$a5, $a5, $s8
	mul.d	$a5, $a5, $fp
	add.d	$a0, $a0, $a5
	add.d	$a0, $a0, $s1
	addi.d	$a3, $a3, 14
	addi.d	$a2, $a2, 14
	addi.d	$a4, $a4, 56
	blt	$a3, $s6, .LBB26_5
# %bb.6:                                # %.preheader
                                        #   in Loop: Header=BB26_3 Depth=1
	addi.w	$a3, $a2, 0
	blt	$a3, $s0, .LBB26_8
	b	.LBB26_15
	.p2align	4, , 16
.LBB26_7:                               #   in Loop: Header=BB26_3 Depth=1
	move	$a0, $zero
	move	$a2, $zero
	addi.w	$a3, $a2, 0
	bge	$a3, $s0, .LBB26_15
.LBB26_8:                               # %.lr.ph35.preheader
                                        #   in Loop: Header=BB26_3 Depth=1
	sub.d	$a4, $s7, $a2
	ori	$a3, $zero, 8
	bgeu	$a4, $a3, .LBB26_10
# %bb.9:                                #   in Loop: Header=BB26_3 Depth=1
	move	$a3, $a2
	b	.LBB26_13
	.p2align	4, , 16
.LBB26_10:                              # %vector.ph
                                        #   in Loop: Header=BB26_3 Depth=1
	move	$a5, $a4
	bstrins.d	$a5, $zero, 2, 0
	add.d	$a3, $a5, $a2
	vld	$vr1, $sp, 32                   # 16-byte Folded Reload
	vori.b	$vr0, $vr1, 0
	vinsgr2vr.w	$vr0, $a0, 0
	ld.d	$a0, $sp, 48                    # 8-byte Folded Reload
	alsl.d	$a0, $a2, $a0, 2
	move	$a2, $a5
	.p2align	4, , 16
.LBB26_11:                              # %vector.body
                                        #   Parent Loop BB26_3 Depth=1
                                        # =>  This Inner Loop Header: Depth=2
	vld	$vr2, $a0, -16
	vld	$vr3, $a0, 0
	vreplgr2vr.w	$vr4, $fp
	vmadd.w	$vr0, $vr2, $vr4
	vreplgr2vr.w	$vr2, $s2
	vmadd.w	$vr1, $vr3, $vr4
	vadd.w	$vr0, $vr0, $vr2
	vadd.w	$vr1, $vr1, $vr2
	addi.d	$a2, $a2, -8
	addi.d	$a0, $a0, 32
	bnez	$a2, .LBB26_11
# %bb.12:                               # %middle.block
                                        #   in Loop: Header=BB26_3 Depth=1
	vadd.w	$vr0, $vr1, $vr0
	vhaddw.d.w	$vr0, $vr0, $vr0
	vhaddw.q.d	$vr0, $vr0, $vr0
	vpickve2gr.d	$a0, $vr0, 0
	beq	$a4, $a5, .LBB26_15
.LBB26_13:                              # %.lr.ph35.preheader53
                                        #   in Loop: Header=BB26_3 Depth=1
	ld.d	$a2, $sp, 56                    # 8-byte Folded Reload
	alsl.d	$a2, $a3, $a2, 2
	sub.d	$a3, $s7, $a3
	.p2align	4, , 16
.LBB26_14:                              # %.lr.ph35
                                        #   Parent Loop BB26_3 Depth=1
                                        # =>  This Inner Loop Header: Depth=2
	ld.w	$a4, $a2, 0
	mul.d	$a4, $a4, $fp
	add.d	$a0, $a0, $a4
	add.d	$a0, $a0, $s2
	addi.d	$a3, $a3, -1
	addi.d	$a2, $a2, 4
	bnez	$a3, .LBB26_14
.LBB26_15:                              # %._crit_edge
                                        #   in Loop: Header=BB26_3 Depth=1
	pcalau12i	$a2, %pc_hi20(init_value)
	fld.d	$fa0, $a2, %pc_lo12(init_value)
	ftintrz.w.d	$fa0, $fa0
	movfr2gr.s	$a2, $fa0
	mul.d	$a2, $a2, $s4
	add.w	$a2, $a2, $s3
	addi.w	$a0, $a0, 0
	beq	$a0, $a2, .LBB26_2
# %bb.16:                               #   in Loop: Header=BB26_3 Depth=1
	ld.d	$a0, $sp, 80                    # 8-byte Folded Reload
	ld.w	$a1, $a0, %pc_lo12(current_test)
	pcalau12i	$a0, %pc_hi20(.L.str.19)
	addi.d	$a0, $a0, %pc_lo12(.L.str.19)
	pcaddu18i	$ra, %call36(printf)
	jirl	$ra, $ra, 0
	ld.d	$a0, $sp, 72                    # 8-byte Folded Reload
	ld.w	$a1, $a0, %pc_lo12(iterations)
	b	.LBB26_2
.LBB26_17:                              # %._crit_edge38
	pcaddu18i	$ra, %call36(clock)
	jirl	$ra, $ra, 0
	ld.d	$a1, $sp, 24                    # 8-byte Folded Reload
	ld.d	$fp, $a1, %pc_lo12(start_time)
	pcalau12i	$s2, %pc_hi20(results)
	ld.d	$a2, $s2, %pc_lo12(results)
	pcalau12i	$s1, %pc_hi20(allocated_results)
	ld.w	$a1, $s1, %pc_lo12(allocated_results)
	move	$s0, $a0
	pcalau12i	$a0, %pc_hi20(end_time)
	st.d	$s0, $a0, %pc_lo12(end_time)
	ld.d	$s3, $sp, 80                    # 8-byte Folded Reload
	beqz	$a2, .LBB26_19
# %bb.18:                               # %._crit_edge38
	ld.w	$a0, $s3, %pc_lo12(current_test)
	blt	$a0, $a1, .LBB26_21
.LBB26_19:
	addi.w	$a0, $a1, 10
	st.w	$a0, $s1, %pc_lo12(allocated_results)
	slli.d	$a1, $a0, 4
	move	$a0, $a2
	pcaddu18i	$ra, %call36(realloc)
	jirl	$ra, $ra, 0
	st.d	$a0, $s2, %pc_lo12(results)
	beqz	$a0, .LBB26_22
# %bb.20:                               # %._crit_edge.i
	move	$a2, $a0
	ld.w	$a0, $s3, %pc_lo12(current_test)
.LBB26_21:                              # %_Z13record_resultdPKc.exit
	pcalau12i	$a1, %pc_hi20(.LCPI26_0)
	fld.d	$fa0, $a1, %pc_lo12(.LCPI26_0)
	sub.d	$a1, $s0, $fp
	movgr2fr.d	$fa1, $a1
	ffint.d.l	$fa1, $fa1
	fdiv.d	$fa0, $fa1, $fa0
	alsl.d	$a1, $a0, $a2, 4
	slli.d	$a3, $a0, 4
	fstx.d	$fa0, $a2, $a3
	ld.d	$a2, $sp, 16                    # 8-byte Folded Reload
	st.d	$a2, $a1, 8
	addi.d	$a0, $a0, 1
	st.w	$a0, $s3, %pc_lo12(current_test)
	ld.d	$s8, $sp, 88                    # 8-byte Folded Reload
	ld.d	$s7, $sp, 96                    # 8-byte Folded Reload
	ld.d	$s6, $sp, 104                   # 8-byte Folded Reload
	ld.d	$s5, $sp, 112                   # 8-byte Folded Reload
	ld.d	$s4, $sp, 120                   # 8-byte Folded Reload
	ld.d	$s3, $sp, 128                   # 8-byte Folded Reload
	ld.d	$s2, $sp, 136                   # 8-byte Folded Reload
	ld.d	$s1, $sp, 144                   # 8-byte Folded Reload
	ld.d	$s0, $sp, 152                   # 8-byte Folded Reload
	ld.d	$fp, $sp, 160                   # 8-byte Folded Reload
	ld.d	$ra, $sp, 168                   # 8-byte Folded Reload
	addi.d	$sp, $sp, 176
	ret
.LBB26_22:
	ld.w	$a1, $s1, %pc_lo12(allocated_results)
	pcalau12i	$a0, %pc_hi20(.L.str)
	addi.d	$a0, $a0, %pc_lo12(.L.str)
	pcaddu18i	$ra, %call36(printf)
	jirl	$ra, $ra, 0
	addi.w	$a0, $zero, -1
	pcaddu18i	$ra, %call36(exit)
	jirl	$ra, $ra, 0
.Lfunc_end26:
	.size	_Z27test_for_loop_unroll_factorILi14EiEvPKT0_iPKc, .Lfunc_end26-_Z27test_for_loop_unroll_factorILi14EiEvPKT0_iPKc
	.cfi_endproc
                                        # -- End function
	.section	.rodata.cst8,"aM",@progbits,8
	.p2align	3, 0x0                          # -- Begin function _Z27test_for_loop_unroll_factorILi13EiEvPKT0_iPKc
.LCPI27_0:
	.dword	0x412e848000000000              # double 1.0E+6
	.section	.text._Z27test_for_loop_unroll_factorILi13EiEvPKT0_iPKc,"axG",@progbits,_Z27test_for_loop_unroll_factorILi13EiEvPKT0_iPKc,comdat
	.weak	_Z27test_for_loop_unroll_factorILi13EiEvPKT0_iPKc
	.p2align	5
	.type	_Z27test_for_loop_unroll_factorILi13EiEvPKT0_iPKc,@function
_Z27test_for_loop_unroll_factorILi13EiEvPKT0_iPKc: # @_Z27test_for_loop_unroll_factorILi13EiEvPKT0_iPKc
	.cfi_startproc
# %bb.0:
	addi.d	$sp, $sp, -160
	.cfi_def_cfa_offset 160
	st.d	$ra, $sp, 152                   # 8-byte Folded Spill
	st.d	$fp, $sp, 144                   # 8-byte Folded Spill
	st.d	$s0, $sp, 136                   # 8-byte Folded Spill
	st.d	$s1, $sp, 128                   # 8-byte Folded Spill
	st.d	$s2, $sp, 120                   # 8-byte Folded Spill
	st.d	$s3, $sp, 112                   # 8-byte Folded Spill
	st.d	$s4, $sp, 104                   # 8-byte Folded Spill
	st.d	$s5, $sp, 96                    # 8-byte Folded Spill
	st.d	$s6, $sp, 88                    # 8-byte Folded Spill
	st.d	$s7, $sp, 80                    # 8-byte Folded Spill
	st.d	$s8, $sp, 72                    # 8-byte Folded Spill
	.cfi_offset 1, -8
	.cfi_offset 22, -16
	.cfi_offset 23, -24
	.cfi_offset 24, -32
	.cfi_offset 25, -40
	.cfi_offset 26, -48
	.cfi_offset 27, -56
	.cfi_offset 28, -64
	.cfi_offset 29, -72
	.cfi_offset 30, -80
	.cfi_offset 31, -88
	st.d	$a2, $sp, 16                    # 8-byte Folded Spill
	move	$s0, $a1
	st.d	$a0, $sp, 56                    # 8-byte Folded Spill
	pcaddu18i	$ra, %call36(clock)
	jirl	$ra, $ra, 0
	pcalau12i	$s4, %pc_hi20(iterations)
	ld.w	$a1, $s4, %pc_lo12(iterations)
	pcalau12i	$a2, %pc_hi20(start_time)
	st.d	$a2, $sp, 24                    # 8-byte Folded Spill
	st.d	$a0, $a2, %pc_lo12(start_time)
	pcalau12i	$a0, %pc_hi20(current_test)
	st.d	$a0, $sp, 64                    # 8-byte Folded Spill
	blez	$a1, .LBB27_17
# %bb.1:                                # %.preheader28.lr.ph
	move	$s5, $zero
	addi.w	$s6, $s0, -12
	bstrpick.d	$s7, $s0, 31, 0
	ld.d	$a0, $sp, 56                    # 8-byte Folded Reload
	addi.d	$s8, $a0, 24
	addi.d	$a0, $a0, 16
	st.d	$a0, $sp, 48                    # 8-byte Folded Spill
	lu12i.w	$a0, 65881
	ori	$fp, $a0, 1957
	lu12i.w	$a0, -277912
	ori	$s1, $a0, 2488
	vrepli.b	$vr0, 0
	vst	$vr0, $sp, 32                   # 16-byte Folded Spill
	lu12i.w	$a0, -381906
	ori	$s2, $a0, 1088
	lu12i.w	$a0, -310021
	ori	$s3, $a0, 1536
	b	.LBB27_3
	.p2align	4, , 16
.LBB27_2:                               # %_Z9check_sumIiEvT_.exit
                                        #   in Loop: Header=BB27_3 Depth=1
	addi.w	$s5, $s5, 1
	bge	$s5, $a1, .LBB27_17
.LBB27_3:                               # %.preheader28
                                        # =>This Loop Header: Depth=1
                                        #     Child Loop BB27_5 Depth 2
                                        #     Child Loop BB27_11 Depth 2
                                        #     Child Loop BB27_14 Depth 2
	ori	$a0, $zero, 13
	blt	$s0, $a0, .LBB27_7
# %bb.4:                                # %.lr.ph.preheader
                                        #   in Loop: Header=BB27_3 Depth=1
	move	$a2, $zero
	move	$a3, $zero
	move	$a0, $zero
	move	$a4, $s8
	.p2align	4, , 16
.LBB27_5:                               # %.lr.ph
                                        #   Parent Loop BB27_3 Depth=1
                                        # =>  This Inner Loop Header: Depth=2
	ld.w	$a5, $a4, -24
	ld.w	$a6, $a4, -20
	ld.w	$a7, $a4, -16
	ld.w	$t0, $a4, -12
	ld.w	$t1, $a4, -8
	ld.w	$t2, $a4, -4
	ld.w	$t3, $a4, 0
	ld.w	$t4, $a4, 4
	ld.w	$t5, $a4, 8
	ld.w	$t6, $a4, 12
	ld.w	$t7, $a4, 16
	ld.w	$t8, $a4, 20
	ld.w	$ra, $a4, 24
	add.d	$a5, $a6, $a5
	add.d	$a5, $a5, $a7
	add.d	$a5, $a5, $t0
	add.d	$a5, $a5, $t1
	add.d	$a5, $a5, $t2
	add.d	$a5, $a5, $t3
	add.d	$a5, $a5, $t4
	add.d	$a5, $a5, $t5
	add.d	$a5, $a5, $t6
	add.w	$a5, $a5, $t7
	add.d	$a5, $a5, $t8
	add.d	$a5, $a5, $ra
	mul.d	$a5, $a5, $fp
	add.d	$a0, $a0, $a5
	addu16i.d	$a0, $a0, -29195
	addi.w	$a0, $a0, -424
	addi.d	$a3, $a3, 13
	addi.d	$a2, $a2, 13
	addi.d	$a4, $a4, 52
	blt	$a3, $s6, .LBB27_5
# %bb.6:                                # %.preheader
                                        #   in Loop: Header=BB27_3 Depth=1
	addi.w	$a3, $a2, 0
	blt	$a3, $s0, .LBB27_8
	b	.LBB27_15
	.p2align	4, , 16
.LBB27_7:                               #   in Loop: Header=BB27_3 Depth=1
	move	$a0, $zero
	move	$a2, $zero
	addi.w	$a3, $a2, 0
	bge	$a3, $s0, .LBB27_15
.LBB27_8:                               # %.lr.ph34.preheader
                                        #   in Loop: Header=BB27_3 Depth=1
	sub.d	$a4, $s7, $a2
	ori	$a3, $zero, 8
	bgeu	$a4, $a3, .LBB27_10
# %bb.9:                                #   in Loop: Header=BB27_3 Depth=1
	move	$a3, $a2
	b	.LBB27_13
	.p2align	4, , 16
.LBB27_10:                              # %vector.ph
                                        #   in Loop: Header=BB27_3 Depth=1
	move	$a5, $a4
	bstrins.d	$a5, $zero, 2, 0
	add.d	$a3, $a5, $a2
	vld	$vr1, $sp, 32                   # 16-byte Folded Reload
	vori.b	$vr0, $vr1, 0
	vinsgr2vr.w	$vr0, $a0, 0
	ld.d	$a0, $sp, 48                    # 8-byte Folded Reload
	alsl.d	$a0, $a2, $a0, 2
	move	$a2, $a5
	.p2align	4, , 16
.LBB27_11:                              # %vector.body
                                        #   Parent Loop BB27_3 Depth=1
                                        # =>  This Inner Loop Header: Depth=2
	vld	$vr2, $a0, -16
	vld	$vr3, $a0, 0
	vreplgr2vr.w	$vr4, $fp
	vmadd.w	$vr0, $vr2, $vr4
	vreplgr2vr.w	$vr2, $s1
	vmadd.w	$vr1, $vr3, $vr4
	vadd.w	$vr0, $vr0, $vr2
	vadd.w	$vr1, $vr1, $vr2
	addi.d	$a2, $a2, -8
	addi.d	$a0, $a0, 32
	bnez	$a2, .LBB27_11
# %bb.12:                               # %middle.block
                                        #   in Loop: Header=BB27_3 Depth=1
	vadd.w	$vr0, $vr1, $vr0
	vhaddw.d.w	$vr0, $vr0, $vr0
	vhaddw.q.d	$vr0, $vr0, $vr0
	vpickve2gr.d	$a0, $vr0, 0
	beq	$a4, $a5, .LBB27_15
.LBB27_13:                              # %.lr.ph34.preheader52
                                        #   in Loop: Header=BB27_3 Depth=1
	ld.d	$a2, $sp, 56                    # 8-byte Folded Reload
	alsl.d	$a2, $a3, $a2, 2
	sub.d	$a3, $s7, $a3
	.p2align	4, , 16
.LBB27_14:                              # %.lr.ph34
                                        #   Parent Loop BB27_3 Depth=1
                                        # =>  This Inner Loop Header: Depth=2
	ld.w	$a4, $a2, 0
	mul.d	$a4, $a4, $fp
	add.d	$a0, $a0, $a4
	add.d	$a0, $a0, $s1
	addi.d	$a3, $a3, -1
	addi.d	$a2, $a2, 4
	bnez	$a3, .LBB27_14
.LBB27_15:                              # %._crit_edge
                                        #   in Loop: Header=BB27_3 Depth=1
	pcalau12i	$a2, %pc_hi20(init_value)
	fld.d	$fa0, $a2, %pc_lo12(init_value)
	ftintrz.w.d	$fa0, $fa0
	movfr2gr.s	$a2, $fa0
	mul.d	$a2, $a2, $s2
	add.w	$a2, $a2, $s3
	addi.w	$a0, $a0, 0
	beq	$a0, $a2, .LBB27_2
# %bb.16:                               #   in Loop: Header=BB27_3 Depth=1
	ld.d	$a0, $sp, 64                    # 8-byte Folded Reload
	ld.w	$a1, $a0, %pc_lo12(current_test)
	pcalau12i	$a0, %pc_hi20(.L.str.19)
	addi.d	$a0, $a0, %pc_lo12(.L.str.19)
	pcaddu18i	$ra, %call36(printf)
	jirl	$ra, $ra, 0
	ld.w	$a1, $s4, %pc_lo12(iterations)
	b	.LBB27_2
.LBB27_17:                              # %._crit_edge37
	pcaddu18i	$ra, %call36(clock)
	jirl	$ra, $ra, 0
	ld.d	$a1, $sp, 24                    # 8-byte Folded Reload
	ld.d	$fp, $a1, %pc_lo12(start_time)
	pcalau12i	$s2, %pc_hi20(results)
	ld.d	$a2, $s2, %pc_lo12(results)
	pcalau12i	$s1, %pc_hi20(allocated_results)
	ld.w	$a1, $s1, %pc_lo12(allocated_results)
	move	$s0, $a0
	pcalau12i	$a0, %pc_hi20(end_time)
	st.d	$s0, $a0, %pc_lo12(end_time)
	ld.d	$s3, $sp, 64                    # 8-byte Folded Reload
	beqz	$a2, .LBB27_19
# %bb.18:                               # %._crit_edge37
	ld.w	$a0, $s3, %pc_lo12(current_test)
	blt	$a0, $a1, .LBB27_21
.LBB27_19:
	addi.w	$a0, $a1, 10
	st.w	$a0, $s1, %pc_lo12(allocated_results)
	slli.d	$a1, $a0, 4
	move	$a0, $a2
	pcaddu18i	$ra, %call36(realloc)
	jirl	$ra, $ra, 0
	st.d	$a0, $s2, %pc_lo12(results)
	beqz	$a0, .LBB27_22
# %bb.20:                               # %._crit_edge.i
	move	$a2, $a0
	ld.w	$a0, $s3, %pc_lo12(current_test)
.LBB27_21:                              # %_Z13record_resultdPKc.exit
	pcalau12i	$a1, %pc_hi20(.LCPI27_0)
	fld.d	$fa0, $a1, %pc_lo12(.LCPI27_0)
	sub.d	$a1, $s0, $fp
	movgr2fr.d	$fa1, $a1
	ffint.d.l	$fa1, $fa1
	fdiv.d	$fa0, $fa1, $fa0
	alsl.d	$a1, $a0, $a2, 4
	slli.d	$a3, $a0, 4
	fstx.d	$fa0, $a2, $a3
	ld.d	$a2, $sp, 16                    # 8-byte Folded Reload
	st.d	$a2, $a1, 8
	addi.d	$a0, $a0, 1
	st.w	$a0, $s3, %pc_lo12(current_test)
	ld.d	$s8, $sp, 72                    # 8-byte Folded Reload
	ld.d	$s7, $sp, 80                    # 8-byte Folded Reload
	ld.d	$s6, $sp, 88                    # 8-byte Folded Reload
	ld.d	$s5, $sp, 96                    # 8-byte Folded Reload
	ld.d	$s4, $sp, 104                   # 8-byte Folded Reload
	ld.d	$s3, $sp, 112                   # 8-byte Folded Reload
	ld.d	$s2, $sp, 120                   # 8-byte Folded Reload
	ld.d	$s1, $sp, 128                   # 8-byte Folded Reload
	ld.d	$s0, $sp, 136                   # 8-byte Folded Reload
	ld.d	$fp, $sp, 144                   # 8-byte Folded Reload
	ld.d	$ra, $sp, 152                   # 8-byte Folded Reload
	addi.d	$sp, $sp, 160
	ret
.LBB27_22:
	ld.w	$a1, $s1, %pc_lo12(allocated_results)
	pcalau12i	$a0, %pc_hi20(.L.str)
	addi.d	$a0, $a0, %pc_lo12(.L.str)
	pcaddu18i	$ra, %call36(printf)
	jirl	$ra, $ra, 0
	addi.w	$a0, $zero, -1
	pcaddu18i	$ra, %call36(exit)
	jirl	$ra, $ra, 0
.Lfunc_end27:
	.size	_Z27test_for_loop_unroll_factorILi13EiEvPKT0_iPKc, .Lfunc_end27-_Z27test_for_loop_unroll_factorILi13EiEvPKT0_iPKc
	.cfi_endproc
                                        # -- End function
	.section	.rodata.cst8,"aM",@progbits,8
	.p2align	3, 0x0                          # -- Begin function _Z27test_for_loop_unroll_factorILi12EiEvPKT0_iPKc
.LCPI28_0:
	.dword	0x412e848000000000              # double 1.0E+6
	.section	.text._Z27test_for_loop_unroll_factorILi12EiEvPKT0_iPKc,"axG",@progbits,_Z27test_for_loop_unroll_factorILi12EiEvPKT0_iPKc,comdat
	.weak	_Z27test_for_loop_unroll_factorILi12EiEvPKT0_iPKc
	.p2align	5
	.type	_Z27test_for_loop_unroll_factorILi12EiEvPKT0_iPKc,@function
_Z27test_for_loop_unroll_factorILi12EiEvPKT0_iPKc: # @_Z27test_for_loop_unroll_factorILi12EiEvPKT0_iPKc
	.cfi_startproc
# %bb.0:
	addi.d	$sp, $sp, -176
	.cfi_def_cfa_offset 176
	st.d	$ra, $sp, 168                   # 8-byte Folded Spill
	st.d	$fp, $sp, 160                   # 8-byte Folded Spill
	st.d	$s0, $sp, 152                   # 8-byte Folded Spill
	st.d	$s1, $sp, 144                   # 8-byte Folded Spill
	st.d	$s2, $sp, 136                   # 8-byte Folded Spill
	st.d	$s3, $sp, 128                   # 8-byte Folded Spill
	st.d	$s4, $sp, 120                   # 8-byte Folded Spill
	st.d	$s5, $sp, 112                   # 8-byte Folded Spill
	st.d	$s6, $sp, 104                   # 8-byte Folded Spill
	st.d	$s7, $sp, 96                    # 8-byte Folded Spill
	st.d	$s8, $sp, 88                    # 8-byte Folded Spill
	.cfi_offset 1, -8
	.cfi_offset 22, -16
	.cfi_offset 23, -24
	.cfi_offset 24, -32
	.cfi_offset 25, -40
	.cfi_offset 26, -48
	.cfi_offset 27, -56
	.cfi_offset 28, -64
	.cfi_offset 29, -72
	.cfi_offset 30, -80
	.cfi_offset 31, -88
