	.file	"LCALSSuite.cxx"
                                        # Start of file scope inline assembly
	.globl	_ZSt21ios_base_library_initv

                                        # End of file scope inline assembly
	.text
	.globl	_Z11getLoopDatav                # -- Begin function _Z11getLoopDatav
	.p2align	5
	.type	_Z11getLoopDatav,@function
_Z11getLoopDatav:                       # @_Z11getLoopDatav
# %bb.0:
	pcalau12i	$a0, %pc_hi20(_ZL11s_loop_data)
	ld.d	$a0, $a0, %pc_lo12(_ZL11s_loop_data)
	ret
.Lfunc_end0:
	.size	_Z11getLoopDatav, .Lfunc_end0-_Z11getLoopDatav
                                        # -- End function
	.section	.rodata.cst16,"aM",@progbits,16
	.p2align	4, 0x0                          # -- Begin function _Z22defineLoopSuiteRunInfoRKSt6vectorI13LoopVariantIDSaIS0_EEPbdd
.LCPI1_0:
	.dword	0x4000000000000000              # double 2
	.dword	0x3ffccccccccccccd              # double 1.8
.LCPI1_1:
	.dword	0x3ff6666666666666              # double 1.3999999999999999
	.dword	0x3ff0000000000000              # double 1
.LCPI1_5:
	.dword	8                               # 0x8
	.dword	4923084613239392580             # 0x44524f5f43534944
.LCPI1_6:
	.dword	8                               # 0x8
	.dword	4914094937701898568             # 0x44325f4f52445948
.LCPI1_7:
	.dword	8                               # 0x8
	.dword	4913813462725187912             # 0x44315f4f52445948
.LCPI1_8:
	.dword	8                               # 0x8
	.dword	6074873621086556756             # 0x544e495f50415254
.LCPI1_11:
	.dword	8                               # 0x8
	.dword	5786931235628926290             # 0x504f4f4c5f464552
	.section	.rodata.cst8,"aM",@progbits,8
	.p2align	3, 0x0
.LCPI1_2:
	.dword	0x40e5972000000000              # double 44217
.LCPI1_3:
	.dword	0x40b3890000000000              # double 5001
.LCPI1_4:
	.dword	0x4065600000000000              # double 171
.LCPI1_9:
	.dword	0x4063800000000000              # double 156
.LCPI1_10:
	.dword	0x4050000000000000              # double 64
	.text
	.globl	_Z22defineLoopSuiteRunInfoRKSt6vectorI13LoopVariantIDSaIS0_EEPbdd
	.p2align	5
	.type	_Z22defineLoopSuiteRunInfoRKSt6vectorI13LoopVariantIDSaIS0_EEPbdd,@function
_Z22defineLoopSuiteRunInfoRKSt6vectorI13LoopVariantIDSaIS0_EEPbdd: # @_Z22defineLoopSuiteRunInfoRKSt6vectorI13LoopVariantIDSaIS0_EEPbdd
.Lfunc_begin0:
	.cfi_startproc
	.cfi_personality 155, DW.ref.__gxx_personality_v0
	.cfi_lsda 27, .Lexception0
# %bb.0:
	addi.d	$sp, $sp, -784
	.cfi_def_cfa_offset 784
	st.d	$ra, $sp, 776                   # 8-byte Folded Spill
	st.d	$fp, $sp, 768                   # 8-byte Folded Spill
	st.d	$s0, $sp, 760                   # 8-byte Folded Spill
	st.d	$s1, $sp, 752                   # 8-byte Folded Spill
	st.d	$s2, $sp, 744                   # 8-byte Folded Spill
	st.d	$s3, $sp, 736                   # 8-byte Folded Spill
	st.d	$s4, $sp, 728                   # 8-byte Folded Spill
	st.d	$s5, $sp, 720                   # 8-byte Folded Spill
	st.d	$s6, $sp, 712                   # 8-byte Folded Spill
	st.d	$s7, $sp, 704                   # 8-byte Folded Spill
	st.d	$s8, $sp, 696                   # 8-byte Folded Spill
	fst.d	$fs0, $sp, 688                  # 8-byte Folded Spill
	fst.d	$fs1, $sp, 680                  # 8-byte Folded Spill
	.cfi_offset 1, -8
	.cfi_offset 22, -16
	.cfi_offset 23, -24
	.cfi_offset 24, -32
	.cfi_offset 25, -40
	.cfi_offset 26, -48
	.cfi_offset 27, -56
	.cfi_offset 28, -64
	.cfi_offset 29, -72
	.cfi_offset 30, -80
	.cfi_offset 31, -88
	.cfi_offset 56, -96
	.cfi_offset 57, -104
	fmov.d	$fs0, $fa1
	fmov.d	$fs1, $fa0
	st.d	$a1, $sp, 40                    # 8-byte Folded Spill
	move	$a1, $a0
	addi.d	$a0, $sp, 656
	pcaddu18i	$ra, %call36(_Z15getVariantNamesB5cxx11RKSt6vectorI13LoopVariantIDSaIS0_EE)
	jirl	$ra, $ra, 0
	pcalau12i	$fp, %pc_hi20(_ZL11s_loop_data)
	ld.d	$a0, $fp, %pc_lo12(_ZL11s_loop_data)
	bnez	$a0, .LBB1_3
# %bb.1:
.Ltmp0:                                 # EH_LABEL
	ori	$a0, $zero, 1616
	pcaddu18i	$ra, %call36(_Znwm)
	jirl	$ra, $ra, 0
.Ltmp1:                                 # EH_LABEL
# %bb.2:
	move	$s0, $a0
	ori	$a2, $zero, 1616
	move	$a1, $zero
	pcaddu18i	$ra, %call36(memset)
	jirl	$ra, $ra, 0
	st.d	$s0, $fp, %pc_lo12(_ZL11s_loop_data)
.LBB1_3:
.Ltmp3:                                 # EH_LABEL
	st.d	$fp, $sp, 24                    # 8-byte Folded Spill
	pcaddu18i	$ra, %call36(_Z19getLoopSuiteRunInfov)
	jirl	$ra, $ra, 0
.Ltmp4:                                 # EH_LABEL
# %bb.4:
	move	$s0, $a0
	ld.d	$a1, $a0, 440
	ld.d	$a5, $a0, 432
	fst.d	$fs1, $a0, 144
	sub.d	$a2, $a1, $a5
	srai.d	$a3, $a2, 3
	ori	$a4, $zero, 5
	addi.d	$a0, $a0, 432
	st.d	$a0, $sp, 32                    # 8-byte Folded Spill
	bltu	$a4, $a3, .LBB1_7
# %bb.5:
	ori	$a1, $zero, 6
	sub.d	$a1, $a1, $a3
.Ltmp5:                                 # EH_LABEL
	pcaddu18i	$ra, %call36(_ZNSt6vectorIdSaIdEE17_M_default_appendEm)
	jirl	$ra, $ra, 0
.Ltmp6:                                 # EH_LABEL
# %bb.6:                                # %._ZNSt6vectorIdSaIdEE6resizeEm.exit_crit_edge
	ld.d	$a0, $sp, 32                    # 8-byte Folded Reload
	ld.d	$a5, $a0, 0
	b	.LBB1_10
.LBB1_7:
	ori	$a3, $zero, 48
	beq	$a2, $a3, .LBB1_10
# %bb.8:
	addi.d	$a2, $a5, 48
	beq	$a1, $a2, .LBB1_10
# %bb.9:                                # %_ZSt8_DestroyIPddEvT_S1_RSaIT0_E.exit.i.i
	st.d	$a2, $s0, 440
.LBB1_10:                               # %_ZNSt6vectorIdSaIdEE6resizeEm.exit
	pcalau12i	$a1, %pc_hi20(.LCPI1_0)
	vld	$vr0, $a1, %pc_lo12(.LCPI1_0)
	vst	$vr0, $a5, 0
	lu12i.w	$a1, 209715
	ori	$a1, $a1, 819
	lu32i.d	$a1, -314573
	pcalau12i	$a2, %pc_hi20(.LCPI1_1)
	vld	$vr0, $a2, %pc_lo12(.LCPI1_1)
	lu52i.d	$a1, $a1, 1023
	vreplgr2vr.d	$vr1, $a1
	vst	$vr1, $a5, 16
	vst	$vr0, $a5, 32
	ld.d	$fp, $s0, 120
	ld.d	$a0, $s0, 112
	sub.d	$a1, $fp, $a0
	srai.d	$a2, $a1, 5
	ori	$a3, $zero, 2
	addi.d	$s2, $s0, 112
	bltu	$a3, $a2, .LBB1_12
# %bb.11:
	ori	$a0, $zero, 3
	sub.d	$a1, $a0, $a2
.Ltmp7:                                 # EH_LABEL
	move	$a0, $s2
	pcaddu18i	$ra, %call36(_ZNSt6vectorINSt7__cxx1112basic_stringIcSt11char_traitsIcESaIcEEESaIS5_EE17_M_default_appendEm)
	jirl	$ra, $ra, 0
.Ltmp8:                                 # EH_LABEL
	b	.LBB1_19
.LBB1_12:
	ori	$a2, $zero, 96
	beq	$a1, $a2, .LBB1_19
# %bb.13:
	addi.d	$s1, $a0, 96
	beq	$fp, $s1, .LBB1_19
# %bb.14:                               # %.lr.ph.i.i.i.i.preheader
	move	$a1, $s1
	b	.LBB1_16
	.p2align	4, , 16
.LBB1_15:                               # %_ZSt8_DestroyINSt7__cxx1112basic_stringIcSt11char_traitsIcESaIcEEEEvPT_.exit.i.i.i.i
                                        #   in Loop: Header=BB1_16 Depth=1
	addi.d	$a1, $s3, 16
	beq	$a1, $fp, .LBB1_18
.LBB1_16:                               # %.lr.ph.i.i.i.i
                                        # =>This Inner Loop Header: Depth=1
	ld.d	$a0, $a1, 0
	addi.d	$s3, $a1, 16
	beq	$a0, $s3, .LBB1_15
# %bb.17:                               # %_ZNKSt7__cxx1112basic_stringIcSt11char_traitsIcESaIcEE11_M_is_localEv.exit.i.i.i.i.i.i.i
                                        #   in Loop: Header=BB1_16 Depth=1
	pcaddu18i	$ra, %call36(_ZdlPv)
	jirl	$ra, $ra, 0
	b	.LBB1_15
.LBB1_18:                               # %_ZSt8_DestroyIPNSt7__cxx1112basic_stringIcSt11char_traitsIcESaIcEEES5_EvT_S7_RSaIT0_E.exit.i.i
	st.d	$s1, $s0, 120
.LBB1_19:                               # %_ZNSt6vectorINSt7__cxx1112basic_stringIcSt11char_traitsIcESaIcEEESaIS5_EE6resizeEm.exit
	addi.d	$a1, $sp, 352
	st.d	$a1, $sp, 336
	lu12i.w	$a0, 292068
	ori	$a0, $a0, 3916
	st.w	$a0, $sp, 352
	ld.d	$a0, $s2, 0
	ori	$a2, $zero, 4
	st.d	$a2, $sp, 344
	addi.d	$a3, $sp, 336
	st.b	$zero, $sp, 356
	move	$a2, $a1
	beq	$a3, $a0, .LBB1_21
# %bb.20:                               # %_ZNSt7__cxx1112basic_stringIcSt11char_traitsIcESaIcEE7_S_copyEPcPKcm.exit.i
	ld.d	$a2, $a0, 0
	ld.w	$a3, $sp, 352
	st.w	$a3, $a2, 0
	ld.d	$a2, $sp, 344
	ld.d	$a3, $a0, 0
	st.d	$a2, $a0, 8
	stx.b	$zero, $a3, $a2
	ld.d	$a2, $sp, 336
.LBB1_21:                               # %_ZNSt7__cxx1112basic_stringIcSt11char_traitsIcESaIcEEaSEOS4_.exit
	st.d	$zero, $sp, 344
	st.b	$zero, $a2, 0
	ld.d	$a0, $sp, 336
	beq	$a0, $a1, .LBB1_23
# %bb.22:                               # %_ZNKSt7__cxx1112basic_stringIcSt11char_traitsIcESaIcEE11_M_is_localEv.exit.i.i
	pcaddu18i	$ra, %call36(_ZdlPv)
	jirl	$ra, $ra, 0
.LBB1_23:                               # %_ZNSt7__cxx1112basic_stringIcSt11char_traitsIcESaIcEED2Ev.exit
	addi.d	$a1, $sp, 352
	st.d	$a1, $sp, 336
	pcalau12i	$a0, %pc_hi20(.L.str.1)
	addi.d	$a2, $a0, %pc_lo12(.L.str.1)
	ld.w	$a0, $a2, 0
	ld.h	$a2, $a2, 4
	st.w	$a0, $sp, 352
	ld.d	$a3, $s2, 0
	st.h	$a2, $sp, 356
	ori	$a4, $zero, 6
	st.d	$a4, $sp, 344
	addi.d	$a5, $a3, 32
	addi.d	$a6, $sp, 336
	st.b	$zero, $sp, 358
	move	$a4, $a1
	beq	$a6, $a5, .LBB1_25
# %bb.24:                               # %_ZNSt7__cxx1112basic_stringIcSt11char_traitsIcESaIcEE7_S_copyEPcPKcm.exit.i286
	ld.d	$a4, $a3, 32
	st.h	$a2, $a4, 4
	st.w	$a0, $a4, 0
	ld.d	$a0, $sp, 344
	ld.d	$a2, $a3, 32
	st.d	$a0, $a3, 40
	stx.b	$zero, $a2, $a0
	ld.d	$a4, $sp, 336
.LBB1_25:                               # %_ZNSt7__cxx1112basic_stringIcSt11char_traitsIcESaIcEEaSEOS4_.exit290
	st.d	$zero, $sp, 344
	st.b	$zero, $a4, 0
	ld.d	$a0, $sp, 336
	beq	$a0, $a1, .LBB1_27
# %bb.26:                               # %_ZNKSt7__cxx1112basic_stringIcSt11char_traitsIcESaIcEE11_M_is_localEv.exit.i.i291
	pcaddu18i	$ra, %call36(_ZdlPv)
	jirl	$ra, $ra, 0
.LBB1_27:                               # %_ZNSt7__cxx1112basic_stringIcSt11char_traitsIcESaIcEED2Ev.exit293
	addi.d	$a1, $sp, 352
	st.d	$a1, $sp, 336
	pcalau12i	$a0, %pc_hi20(.L.str.2)
	addi.d	$a2, $a0, %pc_lo12(.L.str.2)
	ld.w	$a0, $a2, 0
	ld.b	$a2, $a2, 4
	st.w	$a0, $sp, 352
	ld.d	$a3, $s2, 0
	st.b	$a2, $sp, 356
	ori	$a4, $zero, 5
	st.d	$a4, $sp, 344
	addi.d	$a5, $a3, 64
	addi.d	$a6, $sp, 336
	st.b	$zero, $sp, 357
	move	$a4, $a1
	beq	$a6, $a5, .LBB1_29
# %bb.28:                               # %_ZNSt7__cxx1112basic_stringIcSt11char_traitsIcESaIcEE7_S_copyEPcPKcm.exit.i302
	ld.d	$a4, $a3, 64
	st.b	$a2, $a4, 4
	st.w	$a0, $a4, 0
	ld.d	$a0, $sp, 344
	ld.d	$a2, $a3, 64
	st.d	$a0, $a3, 72
	stx.b	$zero, $a2, $a0
	ld.d	$a4, $sp, 336
.LBB1_29:                               # %_ZNSt7__cxx1112basic_stringIcSt11char_traitsIcESaIcEEaSEOS4_.exit306
	st.d	$zero, $sp, 344
	st.b	$zero, $a4, 0
	ld.d	$a0, $sp, 336
	beq	$a0, $a1, .LBB1_31
# %bb.30:                               # %_ZNKSt7__cxx1112basic_stringIcSt11char_traitsIcESaIcEE11_M_is_localEv.exit.i.i307
	pcaddu18i	$ra, %call36(_ZdlPv)
	jirl	$ra, $ra, 0
.LBB1_31:                               # %_ZNSt7__cxx1112basic_stringIcSt11char_traitsIcESaIcEED2Ev.exit309
	ld.d	$a1, $sp, 664
	ld.d	$a2, $sp, 656
	ld.d	$s1, $s0, 464
	ld.d	$a0, $s0, 456
	sub.d	$a1, $a1, $a2
	srai.d	$a1, $a1, 5
	sub.d	$a2, $s1, $a0
	srai.d	$a2, $a2, 3
	lu12i.w	$a3, -349526
	ori	$a3, $a3, 2731
	lu32i.d	$a3, -349526
	lu52i.d	$fp, $a3, -1366
	mul.d	$a2, $a2, $fp
	addi.d	$s2, $s0, 456
	bgeu	$a2, $a1, .LBB1_33
# %bb.32:
	sub.d	$a1, $a1, $a2
.Ltmp9:                                 # EH_LABEL
	move	$a0, $s2
	pcaddu18i	$ra, %call36(_ZNSt6vectorIS_IiSaIiEESaIS1_EE17_M_default_appendEm)
	jirl	$ra, $ra, 0
.Ltmp10:                                # EH_LABEL
	b	.LBB1_40
.LBB1_33:
	bgeu	$a1, $a2, .LBB1_40
# %bb.34:
	slli.d	$a2, $a1, 4
	alsl.d	$a1, $a1, $a2, 3
	add.d	$s3, $a0, $a1
	beq	$s1, $s3, .LBB1_40
# %bb.35:                               # %.lr.ph.i.i.i.i311.preheader
	move	$s4, $s3
	b	.LBB1_37
	.p2align	4, , 16
.LBB1_36:                               # %_ZSt8_DestroyISt6vectorIiSaIiEEEvPT_.exit.i.i.i.i
                                        #   in Loop: Header=BB1_37 Depth=1
	addi.d	$s4, $s4, 24
	beq	$s4, $s1, .LBB1_39
.LBB1_37:                               # %.lr.ph.i.i.i.i311
                                        # =>This Inner Loop Header: Depth=1
	ld.d	$a0, $s4, 0
	beqz	$a0, .LBB1_36
# %bb.38:                               #   in Loop: Header=BB1_37 Depth=1
	pcaddu18i	$ra, %call36(_ZdlPv)
	jirl	$ra, $ra, 0
	b	.LBB1_36
.LBB1_39:                               # %_ZSt8_DestroyIPSt6vectorIiSaIiEES2_EvT_S4_RSaIT0_E.exit.i.i
	st.d	$s3, $s0, 464
.LBB1_40:                               # %_ZNSt6vectorIS_IiSaIiEESaIS1_EE6resizeEm.exit
	ld.d	$a1, $sp, 664
	ld.d	$a2, $sp, 656
	ld.d	$s1, $s0, 488
	ld.d	$a0, $s0, 480
	sub.d	$a1, $a1, $a2
	srai.d	$a1, $a1, 5
	sub.d	$a2, $s1, $a0
	srai.d	$a2, $a2, 3
	mul.d	$a2, $a2, $fp
	addi.d	$s3, $s0, 480
	bgeu	$a2, $a1, .LBB1_42
# %bb.41:
	sub.d	$a1, $a1, $a2
.Ltmp11:                                # EH_LABEL
	move	$a0, $s3
	pcaddu18i	$ra, %call36(_ZNSt6vectorIS_IeSaIeEESaIS1_EE17_M_default_appendEm)
	jirl	$ra, $ra, 0
.Ltmp12:                                # EH_LABEL
	b	.LBB1_49
.LBB1_42:
	bgeu	$a1, $a2, .LBB1_49
# %bb.43:
	slli.d	$a2, $a1, 4
	alsl.d	$a1, $a1, $a2, 3
	add.d	$s4, $a0, $a1
	beq	$s1, $s4, .LBB1_49
# %bb.44:                               # %.lr.ph.i.i.i.i316.preheader
	move	$s5, $s4
	b	.LBB1_46
	.p2align	4, , 16
.LBB1_45:                               # %_ZSt8_DestroyISt6vectorIeSaIeEEEvPT_.exit.i.i.i.i
                                        #   in Loop: Header=BB1_46 Depth=1
	addi.d	$s5, $s5, 24
	beq	$s5, $s1, .LBB1_48
.LBB1_46:                               # %.lr.ph.i.i.i.i316
                                        # =>This Inner Loop Header: Depth=1
	ld.d	$a0, $s5, 0
	beqz	$a0, .LBB1_45
# %bb.47:                               #   in Loop: Header=BB1_46 Depth=1
	pcaddu18i	$ra, %call36(_ZdlPv)
	jirl	$ra, $ra, 0
	b	.LBB1_45
.LBB1_48:                               # %_ZSt8_DestroyIPSt6vectorIeSaIeEES2_EvT_S4_RSaIT0_E.exit.i.i
	st.d	$s4, $s0, 488
.LBB1_49:                               # %_ZNSt6vectorIS_IeSaIeEESaIS1_EE6resizeEm.exit
	ld.d	$a1, $sp, 664
	ld.d	$a2, $sp, 656
	ld.d	$s1, $s0, 512
	ld.d	$a0, $s0, 504
	sub.d	$a1, $a1, $a2
	srai.d	$a1, $a1, 5
	sub.d	$a2, $s1, $a0
	srai.d	$a2, $a2, 3
	mul.d	$a2, $a2, $fp
	addi.d	$s4, $s0, 504
	bgeu	$a2, $a1, .LBB1_51
# %bb.50:
	sub.d	$a1, $a1, $a2
.Ltmp13:                                # EH_LABEL
	move	$a0, $s4
	pcaddu18i	$ra, %call36(_ZNSt6vectorIS_IeSaIeEESaIS1_EE17_M_default_appendEm)
	jirl	$ra, $ra, 0
.Ltmp14:                                # EH_LABEL
	b	.LBB1_58
.LBB1_51:
	bgeu	$a1, $a2, .LBB1_58
# %bb.52:
	slli.d	$a2, $a1, 4
	alsl.d	$a1, $a1, $a2, 3
	add.d	$s5, $a0, $a1
	beq	$s1, $s5, .LBB1_58
# %bb.53:                               # %.lr.ph.i.i.i.i322.preheader
	move	$s6, $s5
	b	.LBB1_55
	.p2align	4, , 16
.LBB1_54:                               # %_ZSt8_DestroyISt6vectorIeSaIeEEEvPT_.exit.i.i.i.i325
                                        #   in Loop: Header=BB1_55 Depth=1
	addi.d	$s6, $s6, 24
	beq	$s6, $s1, .LBB1_57
.LBB1_55:                               # %.lr.ph.i.i.i.i322
                                        # =>This Inner Loop Header: Depth=1
	ld.d	$a0, $s6, 0
	beqz	$a0, .LBB1_54
# %bb.56:                               #   in Loop: Header=BB1_55 Depth=1
	pcaddu18i	$ra, %call36(_ZdlPv)
	jirl	$ra, $ra, 0
	b	.LBB1_54
.LBB1_57:                               # %_ZSt8_DestroyIPSt6vectorIeSaIeEES2_EvT_S4_RSaIT0_E.exit.i.i327
	st.d	$s5, $s0, 512
.LBB1_58:                               # %_ZNSt6vectorIS_IeSaIeEESaIS1_EE6resizeEm.exit329
	ld.d	$a1, $sp, 664
	ld.d	$a2, $sp, 656
	ld.d	$s1, $s0, 536
	ld.d	$a0, $s0, 528
	sub.d	$a1, $a1, $a2
	srai.d	$a1, $a1, 5
	sub.d	$a2, $s1, $a0
	srai.d	$a2, $a2, 3
	mul.d	$a2, $a2, $fp
	addi.d	$s5, $s0, 528
	bgeu	$a2, $a1, .LBB1_60
# %bb.59:
	sub.d	$a1, $a1, $a2
.Ltmp15:                                # EH_LABEL
	move	$a0, $s5
	pcaddu18i	$ra, %call36(_ZNSt6vectorIS_IeSaIeEESaIS1_EE17_M_default_appendEm)
	jirl	$ra, $ra, 0
.Ltmp16:                                # EH_LABEL
	b	.LBB1_67
.LBB1_60:
	bgeu	$a1, $a2, .LBB1_67
# %bb.61:
	slli.d	$a2, $a1, 4
	alsl.d	$a1, $a1, $a2, 3
	add.d	$fp, $a0, $a1
	beq	$s1, $fp, .LBB1_67
# %bb.62:                               # %.lr.ph.i.i.i.i331.preheader
	move	$s6, $fp
	b	.LBB1_64
	.p2align	4, , 16
.LBB1_63:                               # %_ZSt8_DestroyISt6vectorIeSaIeEEEvPT_.exit.i.i.i.i334
                                        #   in Loop: Header=BB1_64 Depth=1
	addi.d	$s6, $s6, 24
	beq	$s6, $s1, .LBB1_66
.LBB1_64:                               # %.lr.ph.i.i.i.i331
                                        # =>This Inner Loop Header: Depth=1
	ld.d	$a0, $s6, 0
	beqz	$a0, .LBB1_63
# %bb.65:                               #   in Loop: Header=BB1_64 Depth=1
	pcaddu18i	$ra, %call36(_ZdlPv)
	jirl	$ra, $ra, 0
	b	.LBB1_63
.LBB1_66:                               # %_ZSt8_DestroyIPSt6vectorIeSaIeEES2_EvT_S4_RSaIT0_E.exit.i.i336
	st.d	$fp, $s0, 536
.LBB1_67:                               # %_ZNSt6vectorIS_IeSaIeEESaIS1_EE6resizeEm.exit338
	ld.d	$a1, $sp, 664
	ld.d	$a0, $sp, 656
	beq	$a1, $a0, .LBB1_91
# %bb.68:                               # %.lr.ph.preheader
	move	$s8, $zero
	ori	$fp, $zero, 1
	ori	$s1, $zero, 2
	ori	$s6, $zero, 3
	vrepli.b	$vr0, 0
	vst	$vr0, $sp, 48                   # 16-byte Folded Spill
	ori	$s7, $zero, 48
	b	.LBB1_71
	.p2align	4, , 16
.LBB1_69:                               #   in Loop: Header=BB1_71 Depth=1
	sub.d	$a2, $s6, $a4
.Ltmp30:                                # EH_LABEL
	addi.d	$a3, $sp, 336
	pcaddu18i	$ra, %call36(_ZNSt6vectorIeSaIeEE14_M_fill_insertEN9__gnu_cxx17__normal_iteratorIPeS1_EEmRKe)
	jirl	$ra, $ra, 0
.Ltmp31:                                # EH_LABEL
.LBB1_70:                               # %_ZNSt6vectorIeSaIeEE6resizeEmRKe.exit351
                                        #   in Loop: Header=BB1_71 Depth=1
	ld.d	$a1, $sp, 664
	ld.d	$a0, $sp, 656
	bstrpick.d	$s8, $fp, 31, 0
	sub.d	$a1, $a1, $a0
	srai.d	$a1, $a1, 5
	addi.w	$fp, $fp, 1
	bgeu	$s8, $a1, .LBB1_91
.LBB1_71:                               # %.lr.ph
                                        # =>This Inner Loop Header: Depth=1
	slli.d	$a1, $s8, 5
	add.d	$a1, $a0, $a1
.Ltmp18:                                # EH_LABEL
	move	$a0, $s0
	pcaddu18i	$ra, %call36(_ZN16LoopSuiteRunInfo12addLoopStatsERKNSt7__cxx1112basic_stringIcSt11char_traitsIcESaIcEEE)
	jirl	$ra, $ra, 0
.Ltmp19:                                # EH_LABEL
# %bb.72:                               #   in Loop: Header=BB1_71 Depth=1
	ld.d	$a2, $s2, 0
	slli.d	$a0, $s8, 4
	alsl.d	$s8, $s8, $a0, 3
	add.d	$a0, $a2, $s8
	st.w	$zero, $sp, 336
	ld.d	$a1, $a0, 8
	ldx.d	$a2, $a2, $s8
	sub.d	$a3, $a1, $a2
	srai.d	$a4, $a3, 2
	bltu	$s1, $a4, .LBB1_74
# %bb.73:                               #   in Loop: Header=BB1_71 Depth=1
	sub.d	$a2, $s6, $a4
.Ltmp21:                                # EH_LABEL
	addi.d	$a3, $sp, 336
	pcaddu18i	$ra, %call36(_ZNSt6vectorIiSaIiEE14_M_fill_insertEN9__gnu_cxx17__normal_iteratorIPiS1_EEmRKi)
	jirl	$ra, $ra, 0
.Ltmp22:                                # EH_LABEL
	b	.LBB1_77
	.p2align	4, , 16
.LBB1_74:                               #   in Loop: Header=BB1_71 Depth=1
	ori	$a4, $zero, 12
	beq	$a3, $a4, .LBB1_77
# %bb.75:                               #   in Loop: Header=BB1_71 Depth=1
	addi.d	$a2, $a2, 12
	beq	$a1, $a2, .LBB1_77
# %bb.76:                               # %_ZSt8_DestroyIPiiEvT_S1_RSaIT0_E.exit.i.i
                                        #   in Loop: Header=BB1_71 Depth=1
	st.d	$a2, $a0, 8
	.p2align	4, , 16
.LBB1_77:                               # %_ZNSt6vectorIiSaIiEE6resizeEmRKi.exit
                                        #   in Loop: Header=BB1_71 Depth=1
	ld.d	$a2, $s3, 0
	add.d	$a0, $a2, $s8
	vld	$vr0, $sp, 48                   # 16-byte Folded Reload
	vst	$vr0, $sp, 336
	ld.d	$a1, $a0, 8
	ldx.d	$a2, $a2, $s8
	sub.d	$a3, $a1, $a2
	srai.d	$a4, $a3, 4
	bltu	$s1, $a4, .LBB1_79
# %bb.78:                               #   in Loop: Header=BB1_71 Depth=1
	sub.d	$a2, $s6, $a4
.Ltmp24:                                # EH_LABEL
	addi.d	$a3, $sp, 336
	pcaddu18i	$ra, %call36(_ZNSt6vectorIeSaIeEE14_M_fill_insertEN9__gnu_cxx17__normal_iteratorIPeS1_EEmRKe)
	jirl	$ra, $ra, 0
.Ltmp25:                                # EH_LABEL
	b	.LBB1_82
	.p2align	4, , 16
.LBB1_79:                               #   in Loop: Header=BB1_71 Depth=1
	beq	$a3, $s7, .LBB1_82
# %bb.80:                               #   in Loop: Header=BB1_71 Depth=1
	addi.d	$a2, $a2, 48
	beq	$a1, $a2, .LBB1_82
# %bb.81:                               # %_ZSt8_DestroyIPeeEvT_S1_RSaIT0_E.exit.i.i
                                        #   in Loop: Header=BB1_71 Depth=1
	st.d	$a2, $a0, 8
	.p2align	4, , 16
.LBB1_82:                               # %_ZNSt6vectorIeSaIeEE6resizeEmRKe.exit
                                        #   in Loop: Header=BB1_71 Depth=1
	ld.d	$a2, $s4, 0
	add.d	$a0, $a2, $s8
	vld	$vr0, $sp, 48                   # 16-byte Folded Reload
	vst	$vr0, $sp, 336
	ld.d	$a1, $a0, 8
	ldx.d	$a2, $a2, $s8
	sub.d	$a3, $a1, $a2
	srai.d	$a4, $a3, 4
	bltu	$s1, $a4, .LBB1_84
# %bb.83:                               #   in Loop: Header=BB1_71 Depth=1
	sub.d	$a2, $s6, $a4
.Ltmp27:                                # EH_LABEL
	addi.d	$a3, $sp, 336
	pcaddu18i	$ra, %call36(_ZNSt6vectorIeSaIeEE14_M_fill_insertEN9__gnu_cxx17__normal_iteratorIPeS1_EEmRKe)
	jirl	$ra, $ra, 0
.Ltmp28:                                # EH_LABEL
	b	.LBB1_87
	.p2align	4, , 16
.LBB1_84:                               #   in Loop: Header=BB1_71 Depth=1
	beq	$a3, $s7, .LBB1_87
# %bb.85:                               #   in Loop: Header=BB1_71 Depth=1
	addi.d	$a2, $a2, 48
	beq	$a1, $a2, .LBB1_87
# %bb.86:                               # %_ZSt8_DestroyIPeeEvT_S1_RSaIT0_E.exit.i.i345
                                        #   in Loop: Header=BB1_71 Depth=1
	st.d	$a2, $a0, 8
	.p2align	4, , 16
.LBB1_87:                               # %_ZNSt6vectorIeSaIeEE6resizeEmRKe.exit347
                                        #   in Loop: Header=BB1_71 Depth=1
	ld.d	$a2, $s5, 0
	add.d	$a0, $a2, $s8
	vld	$vr0, $sp, 48                   # 16-byte Folded Reload
	vst	$vr0, $sp, 336
	ld.d	$a1, $a0, 8
	ldx.d	$a2, $a2, $s8
	sub.d	$a3, $a1, $a2
	srai.d	$a4, $a3, 4
	bgeu	$s1, $a4, .LBB1_69
# %bb.88:                               #   in Loop: Header=BB1_71 Depth=1
	beq	$a3, $s7, .LBB1_70
# %bb.89:                               #   in Loop: Header=BB1_71 Depth=1
	addi.d	$a2, $a2, 48
	beq	$a1, $a2, .LBB1_70
# %bb.90:                               # %_ZSt8_DestroyIPeeEvT_S1_RSaIT0_E.exit.i.i349
                                        #   in Loop: Header=BB1_71 Depth=1
	st.d	$a2, $a0, 8
	b	.LBB1_70
.LBB1_91:                               # %._crit_edge
.Ltmp33:                                # EH_LABEL
	ori	$a0, $zero, 12
	pcaddu18i	$ra, %call36(_Znwm)
	jirl	$ra, $ra, 0
.Ltmp34:                                # EH_LABEL
# %bb.92:
	move	$s2, $a0
	pcalau12i	$a0, %pc_hi20(.LCPI1_2)
	fld.d	$fa0, $a0, %pc_lo12(.LCPI1_2)
	pcalau12i	$a0, %pc_hi20(.LCPI1_3)
	fld.d	$fa1, $a0, %pc_lo12(.LCPI1_3)
	fmul.d	$fa0, $fs0, $fa0
	ftintrz.w.d	$fa0, $fa0
	movfr2gr.s	$a0, $fa0
	fmul.d	$fa0, $fs0, $fa1
	ftintrz.w.d	$fa0, $fa0
	pcalau12i	$a1, %pc_hi20(.LCPI1_4)
	fld.d	$fa1, $a1, %pc_lo12(.LCPI1_4)
	movfr2gr.s	$a1, $fa0
	st.w	$a0, $s2, 0
	st.w	$a1, $s2, 4
	fmul.d	$fa0, $fs0, $fa1
	ftintrz.w.d	$fa0, $fa0
	ld.w	$a0, $s0, 32
	movfr2gr.s	$a1, $fa0
	st.w	$a1, $s2, 8
	pcalau12i	$a1, %pc_hi20(_ZN7ADomain18loop_length_factorE)
	fst.d	$fs0, $a1, %pc_lo12(_ZN7ADomain18loop_length_factorE)
	beqz	$a0, .LBB1_274
# %bb.93:                               # %.lr.ph1169
	st.d	$a1, $sp, 16                    # 8-byte Folded Spill
	move	$s3, $zero
	move	$s1, $zero
	addi.d	$s4, $sp, 640
	addi.d	$a0, $s0, 40
	st.d	$a0, $sp, 48                    # 8-byte Folded Spill
	addi.d	$s5, $s0, 592
	b	.LBB1_95
	.p2align	4, , 16
.LBB1_94:                               # %_ZNSt7__cxx1112basic_stringIcSt11char_traitsIcESaIcEED2Ev.exit948
                                        #   in Loop: Header=BB1_95 Depth=1
	slt	$a0, $fp, $s1
	ld.wu	$a1, $s0, 32
	masknez	$a2, $fp, $a0
	maskeqz	$a0, $s1, $a0
	addi.d	$s3, $s3, 1
	or	$s1, $a0, $a2
	bgeu	$s3, $a1, .LBB1_275
.LBB1_95:                               # =>This Loop Header: Depth=1
                                        #     Child Loop BB1_177 Depth 2
                                        #     Child Loop BB1_226 Depth 2
                                        #     Child Loop BB1_230 Depth 2
                                        #     Child Loop BB1_258 Depth 2
                                        #     Child Loop BB1_264 Depth 2
	ld.w	$a1, $s0, 64
	st.d	$s4, $sp, 624
	st.d	$zero, $sp, 632
	st.b	$zero, $sp, 640
.Ltmp36:                                # EH_LABEL
	addi.d	$a0, $sp, 336
	pcaddu18i	$ra, %call36(_ZN8LoopStatC2Ej)
	jirl	$ra, $ra, 0
.Ltmp37:                                # EH_LABEL
# %bb.96:                               #   in Loop: Header=BB1_95 Depth=1
	ld.d	$a0, $sp, 40                    # 8-byte Folded Reload
	ldx.bu	$a0, $a0, $s3
	beqz	$a0, .LBB1_243
# %bb.97:                               #   in Loop: Header=BB1_95 Depth=1
	addi.w	$a0, $s3, 0
	ori	$a1, $zero, 32
	bltu	$a1, $a0, .LBB1_218
# %bb.98:                               #   in Loop: Header=BB1_95 Depth=1
	slli.d	$a0, $a0, 2
	pcalau12i	$a1, %pc_hi20(.LJTI1_0)
	addi.d	$a1, $a1, %pc_lo12(.LJTI1_0)
	ldx.w	$a0, $a1, $a0
	add.d	$a0, $a1, $a0
	jr	$a0
.LBB1_99:                               # %._crit_edge.i.i352
                                        #   in Loop: Header=BB1_95 Depth=1
	pcalau12i	$a0, %pc_hi20(.LCPI1_11)
	vld	$vr0, $a0, %pc_lo12(.LCPI1_11)
	vst	$vr0, $sp, 256
	ld.d	$a0, $sp, 624
	ld.d	$a1, $sp, 264
	addi.d	$a2, $sp, 264
	st.d	$a2, $sp, 248
	st.b	$zero, $sp, 272
	st.d	$a1, $a0, 0
	ld.d	$a0, $sp, 256
	ld.d	$a1, $sp, 624
	st.d	$a0, $sp, 632
	stx.b	$zero, $a1, $a0
	ld.d	$a0, $sp, 248
	st.d	$zero, $sp, 256
	st.b	$zero, $a0, 0
	ld.d	$a0, $sp, 248
	beq	$a0, $a2, .LBB1_243
# %bb.100:                              # %_ZNKSt7__cxx1112basic_stringIcSt11char_traitsIcESaIcEE11_M_is_localEv.exit.i.i365
                                        #   in Loop: Header=BB1_95 Depth=1
	pcaddu18i	$ra, %call36(_ZdlPv)
	jirl	$ra, $ra, 0
	b	.LBB1_243
.LBB1_101:                              # %._crit_edge.i.i844
                                        #   in Loop: Header=BB1_95 Depth=1
	addi.d	$a3, $sp, 264
	st.d	$a3, $sp, 248
	pcalau12i	$a0, %pc_hi20(.L.str.30)
	addi.d	$a0, $a0, %pc_lo12(.L.str.30)
	ld.d	$a1, $a0, 0
	ld.d	$a0, $a0, 5
	ori	$a2, $zero, 13
	st.d	$a2, $sp, 256
	ld.d	$a2, $sp, 624
	st.d	$a1, $a3, 0
	st.d	$a0, $a3, 5
	st.b	$zero, $sp, 277
	st.d	$a0, $a2, 5
	st.d	$a1, $a2, 0
	ld.d	$a0, $sp, 256
	ld.d	$a1, $sp, 624
	st.d	$a0, $sp, 632
	stx.b	$zero, $a1, $a0
	ld.d	$a0, $sp, 248
	st.d	$zero, $sp, 256
	st.b	$zero, $a0, 0
	ld.d	$a0, $sp, 248
	beq	$a0, $a3, .LBB1_103
# %bb.102:                              # %_ZNKSt7__cxx1112basic_stringIcSt11char_traitsIcESaIcEE11_M_is_localEv.exit.i.i857
                                        #   in Loop: Header=BB1_95 Depth=1
	pcaddu18i	$ra, %call36(_ZdlPv)
	jirl	$ra, $ra, 0
.LBB1_103:                              # %_ZNSt7__cxx1112basic_stringIcSt11char_traitsIcESaIcEED2Ev.exit859
                                        #   in Loop: Header=BB1_95 Depth=1
	ld.d	$a0, $sp, 32                    # 8-byte Folded Reload
	ld.d	$a0, $a0, 0
	fld.d	$fa0, $a0, 8
	ld.d	$a0, $sp, 544
	ld.w	$fp, $s2, 0
	fst.d	$fa0, $sp, 344
	st.w	$fp, $a0, 0
	ld.w	$a1, $s2, 4
	st.w	$a1, $a0, 4
	ld.w	$a1, $s2, 8
	st.w	$a1, $a0, 8
	ld.d	$a0, $sp, 568
	ori	$a1, $zero, 4000
	lu32i.d	$a1, 36000
	b	.LBB1_193
.LBB1_104:                              # %._crit_edge.i.i668
                                        #   in Loop: Header=BB1_95 Depth=1
	addi.d	$a3, $sp, 264
	st.d	$a3, $sp, 248
	pcalau12i	$a0, %pc_hi20(.L.str.19)
	addi.d	$a0, $a0, %pc_lo12(.L.str.19)
	ld.d	$a1, $a0, 0
	ld.w	$a0, $a0, 7
	ori	$a2, $zero, 11
	st.d	$a2, $sp, 256
	ld.d	$a2, $sp, 624
	st.d	$a1, $a3, 0
	st.w	$a0, $a3, 7
	st.b	$zero, $sp, 275
	st.w	$a0, $a2, 7
	st.d	$a1, $a2, 0
	ld.d	$a0, $sp, 256
	ld.d	$a1, $sp, 624
	st.d	$a0, $sp, 632
	stx.b	$zero, $a1, $a0
	ld.d	$a0, $sp, 248
	st.d	$zero, $sp, 256
	st.b	$zero, $a0, 0
	ld.d	$a0, $sp, 248
	beq	$a0, $a3, .LBB1_106
# %bb.105:                              # %_ZNKSt7__cxx1112basic_stringIcSt11char_traitsIcESaIcEE11_M_is_localEv.exit.i.i681
                                        #   in Loop: Header=BB1_95 Depth=1
	pcaddu18i	$ra, %call36(_ZdlPv)
	jirl	$ra, $ra, 0
.LBB1_106:                              # %_ZNSt7__cxx1112basic_stringIcSt11char_traitsIcESaIcEED2Ev.exit683
                                        #   in Loop: Header=BB1_95 Depth=1
	ld.d	$a0, $sp, 32                    # 8-byte Folded Reload
	ld.d	$a0, $a0, 0
	fld.d	$fa0, $a0, 40
	ld.d	$a0, $sp, 544
	ld.w	$fp, $s2, 0
	fst.d	$fa0, $sp, 344
	st.w	$fp, $a0, 0
	ld.w	$a1, $s2, 4
	st.w	$a1, $a0, 4
	ld.w	$a1, $s2, 8
	st.w	$a1, $a0, 8
	ld.d	$a0, $sp, 568
	lu12i.w	$a1, 9
	ori	$a1, $a1, 3136
	lu32i.d	$a1, -448576
	lu52i.d	$a1, $a1, 0
	st.d	$a1, $a0, 0
	lu12i.w	$a1, 4882
	ori	$a1, $a1, 3328
	b	.LBB1_217
.LBB1_107:                              # %._crit_edge.i.i636
                                        #   in Loop: Header=BB1_95 Depth=1
	addi.d	$a2, $sp, 264
	st.d	$a2, $sp, 248
	lu12i.w	$a0, 291892
	ori	$a1, $zero, 4
	st.d	$a1, $sp, 256
	ld.d	$a1, $sp, 624
	ori	$a0, $a0, 841
	st.w	$a0, $sp, 264
	st.b	$zero, $sp, 268
	st.w	$a0, $a1, 0
	ld.d	$a0, $sp, 256
	ld.d	$a1, $sp, 624
	st.d	$a0, $sp, 632
	stx.b	$zero, $a1, $a0
	ld.d	$a0, $sp, 248
	st.d	$zero, $sp, 256
	st.b	$zero, $a0, 0
	ld.d	$a0, $sp, 248
	beq	$a0, $a2, .LBB1_109
# %bb.108:                              # %_ZNKSt7__cxx1112basic_stringIcSt11char_traitsIcESaIcEE11_M_is_localEv.exit.i.i649
                                        #   in Loop: Header=BB1_95 Depth=1
	pcaddu18i	$ra, %call36(_ZdlPv)
	jirl	$ra, $ra, 0
.LBB1_109:                              # %_ZNSt7__cxx1112basic_stringIcSt11char_traitsIcESaIcEED2Ev.exit651
                                        #   in Loop: Header=BB1_95 Depth=1
	ld.d	$a0, $sp, 32                    # 8-byte Folded Reload
	ld.d	$a0, $a0, 0
	fld.d	$fa0, $a0, 40
	ld.d	$a0, $sp, 544
	ld.w	$fp, $s2, 0
	fst.d	$fa0, $sp, 344
	st.w	$fp, $a0, 0
	ld.w	$a1, $s2, 4
	st.w	$a1, $a0, 4
	ld.w	$a1, $s2, 8
	st.w	$a1, $a0, 8
	ld.d	$a0, $sp, 568
	lu12i.w	$a1, 4
	ori	$a1, $a1, 3616
	lu32i.d	$a1, 200000
	st.d	$a1, $a0, 0
	lu12i.w	$a1, 1464
	ori	$a1, $a1, 3456
	b	.LBB1_217
.LBB1_110:                              # %._crit_edge.i.i588
                                        #   in Loop: Header=BB1_95 Depth=1
	addi.d	$a3, $sp, 264
	st.d	$a3, $sp, 248
	pcalau12i	$a0, %pc_hi20(.L.str.14)
	addi.d	$a0, $a0, %pc_lo12(.L.str.14)
	ld.w	$a1, $a0, 0
	ld.w	$a0, $a0, 3
	ori	$a2, $zero, 7
	st.d	$a2, $sp, 256
	ld.d	$a2, $sp, 624
	st.w	$a1, $a3, 0
	st.w	$a0, $a3, 3
	st.b	$zero, $sp, 271
	st.w	$a0, $a2, 3
	st.w	$a1, $a2, 0
	b	.LBB1_134
.LBB1_111:                              # %._crit_edge.i.i416
                                        #   in Loop: Header=BB1_95 Depth=1
	addi.d	$a3, $sp, 264
	st.d	$a3, $sp, 248
	pcalau12i	$a0, %pc_hi20(.L.str.7)
	addi.d	$a0, $a0, %pc_lo12(.L.str.7)
	ld.d	$a1, $a0, 0
	ld.d	$a0, $a0, 7
	ori	$a2, $zero, 15
	st.d	$a2, $sp, 256
	ld.d	$a2, $sp, 624
	st.d	$a1, $a3, 0
	st.d	$a0, $a3, 7
	st.b	$zero, $sp, 279
	st.d	$a0, $a2, 7
	b	.LBB1_133
.LBB1_112:                              # %._crit_edge.i.i604
                                        #   in Loop: Header=BB1_95 Depth=1
	pcalau12i	$a0, %pc_hi20(.LCPI1_8)
	vld	$vr0, $a0, %pc_lo12(.LCPI1_8)
	vst	$vr0, $sp, 256
	ld.d	$a0, $sp, 624
	ld.d	$a1, $sp, 264
	addi.d	$a2, $sp, 264
	st.d	$a2, $sp, 248
	st.b	$zero, $sp, 272
	st.d	$a1, $a0, 0
	ld.d	$a0, $sp, 256
	ld.d	$a1, $sp, 624
	st.d	$a0, $sp, 632
	stx.b	$zero, $a1, $a0
	ld.d	$a0, $sp, 248
	st.d	$zero, $sp, 256
	st.b	$zero, $a0, 0
	ld.d	$a0, $sp, 248
	beq	$a0, $a2, .LBB1_114
# %bb.113:                              # %_ZNKSt7__cxx1112basic_stringIcSt11char_traitsIcESaIcEE11_M_is_localEv.exit.i.i617
                                        #   in Loop: Header=BB1_95 Depth=1
	pcaddu18i	$ra, %call36(_ZdlPv)
	jirl	$ra, $ra, 0
.LBB1_114:                              # %_ZNSt7__cxx1112basic_stringIcSt11char_traitsIcESaIcEED2Ev.exit619
                                        #   in Loop: Header=BB1_95 Depth=1
	ld.d	$a0, $sp, 32                    # 8-byte Folded Reload
	ld.d	$a0, $a0, 0
	fld.d	$fa0, $a0, 8
	ld.d	$a0, $sp, 544
	ld.w	$fp, $s2, 0
	fst.d	$fa0, $sp, 344
	st.w	$fp, $a0, 0
	ld.w	$a1, $s2, 4
	st.w	$a1, $a0, 4
	ld.w	$a1, $s2, 8
	st.w	$a1, $a0, 8
	ld.d	$a0, $sp, 568
	ori	$a1, $zero, 4000
	lu32i.d	$a1, 32000
	b	.LBB1_193
.LBB1_115:                              # %._crit_edge.i.i556
                                        #   in Loop: Header=BB1_95 Depth=1
	addi.d	$a3, $sp, 264
	st.d	$a3, $sp, 248
	pcalau12i	$a0, %pc_hi20(.L.str.12)
	addi.d	$a0, $a0, %pc_lo12(.L.str.12)
	ld.w	$a1, $a0, 0
	ld.b	$a0, $a0, 4
	ori	$a2, $zero, 5
	st.d	$a2, $sp, 256
	ld.d	$a2, $sp, 624
	st.w	$a1, $a3, 0
	st.b	$a0, $a3, 4
	st.b	$zero, $sp, 269
	st.b	$a0, $a2, 4
	st.w	$a1, $a2, 0
	ld.d	$a0, $sp, 256
	ld.d	$a1, $sp, 624
	st.d	$a0, $sp, 632
	stx.b	$zero, $a1, $a0
	ld.d	$a0, $sp, 248
	st.d	$zero, $sp, 256
	st.b	$zero, $a0, 0
	ld.d	$a0, $sp, 248
	beq	$a0, $a3, .LBB1_117
# %bb.116:                              # %_ZNKSt7__cxx1112basic_stringIcSt11char_traitsIcESaIcEE11_M_is_localEv.exit.i.i569
                                        #   in Loop: Header=BB1_95 Depth=1
	pcaddu18i	$ra, %call36(_ZdlPv)
	jirl	$ra, $ra, 0
.LBB1_117:                              # %_ZNSt7__cxx1112basic_stringIcSt11char_traitsIcESaIcEED2Ev.exit571
                                        #   in Loop: Header=BB1_95 Depth=1
	ld.d	$a0, $sp, 32                    # 8-byte Folded Reload
	ld.d	$a0, $a0, 0
	fld.d	$fa0, $a0, 0
	ld.d	$a0, $sp, 544
	ld.w	$fp, $s2, 0
	fst.d	$fa0, $sp, 344
	st.w	$fp, $a0, 0
	ld.w	$a1, $s2, 4
	st.w	$a1, $a0, 4
	ld.w	$a1, $s2, 8
	st.w	$a1, $a0, 8
	ld.d	$a0, $sp, 568
	lu12i.w	$a1, 2
	ori	$a1, $a1, 1808
	lu32i.d	$a1, 110000
	st.d	$a1, $a0, 0
	lu12i.w	$a1, 2929
	ori	$a1, $a1, 2816
	b	.LBB1_217
.LBB1_118:                              # %._crit_edge.i.i812
                                        #   in Loop: Header=BB1_95 Depth=1
	addi.d	$a3, $sp, 264
	st.d	$a3, $sp, 248
	pcalau12i	$a0, %pc_hi20(.L.str.28)
	addi.d	$a0, $a0, %pc_lo12(.L.str.28)
	ld.w	$a1, $a0, 0
	ld.h	$a0, $a0, 4
	ori	$a2, $zero, 6
	st.d	$a2, $sp, 256
	ld.d	$a2, $sp, 624
	st.w	$a1, $a3, 0
	st.h	$a0, $a3, 4
	st.b	$zero, $sp, 270
	st.h	$a0, $a2, 4
	st.w	$a1, $a2, 0
	ld.d	$a0, $sp, 256
	ld.d	$a1, $sp, 624
	st.d	$a0, $sp, 632
	stx.b	$zero, $a1, $a0
	ld.d	$a0, $sp, 248
	st.d	$zero, $sp, 256
	st.b	$zero, $a0, 0
	ld.d	$a0, $sp, 248
	beq	$a0, $a3, .LBB1_120
# %bb.119:                              # %_ZNKSt7__cxx1112basic_stringIcSt11char_traitsIcESaIcEE11_M_is_localEv.exit.i.i825
                                        #   in Loop: Header=BB1_95 Depth=1
	pcaddu18i	$ra, %call36(_ZdlPv)
	jirl	$ra, $ra, 0
.LBB1_120:                              # %_ZNSt7__cxx1112basic_stringIcSt11char_traitsIcESaIcEED2Ev.exit827
                                        #   in Loop: Header=BB1_95 Depth=1
	ld.d	$a0, $sp, 32                    # 8-byte Folded Reload
	ld.d	$a0, $a0, 0
	fld.d	$fa0, $a0, 24
	ld.d	$a0, $sp, 544
	ld.w	$fp, $s2, 0
	fst.d	$fa0, $sp, 344
	st.w	$fp, $a0, 0
	ld.w	$a1, $s2, 4
	st.w	$a1, $a0, 4
	ld.w	$a1, $s2, 8
	st.w	$a1, $a0, 8
	ld.d	$a0, $sp, 568
	ori	$a1, $zero, 3000
	lu32i.d	$a1, 24000
	b	.LBB1_193
.LBB1_121:                              # %._crit_edge.i.i796
                                        #   in Loop: Header=BB1_95 Depth=1
	addi.d	$a3, $sp, 264
	st.d	$a3, $sp, 248
	pcalau12i	$a0, %pc_hi20(.L.str.27)
	addi.d	$a0, $a0, %pc_lo12(.L.str.27)
	ld.w	$a1, $a0, 0
	ld.h	$a0, $a0, 4
	ori	$a2, $zero, 6
	st.d	$a2, $sp, 256
	ld.d	$a2, $sp, 624
	st.w	$a1, $a3, 0
	st.h	$a0, $a3, 4
	st.b	$zero, $sp, 270
	st.h	$a0, $a2, 4
	st.w	$a1, $a2, 0
	ld.d	$a0, $sp, 256
	ld.d	$a1, $sp, 624
	st.d	$a0, $sp, 632
	stx.b	$zero, $a1, $a0
	ld.d	$a0, $sp, 248
	st.d	$zero, $sp, 256
	st.b	$zero, $a0, 0
	ld.d	$a0, $sp, 248
	beq	$a0, $a3, .LBB1_123
# %bb.122:                              # %_ZNKSt7__cxx1112basic_stringIcSt11char_traitsIcESaIcEE11_M_is_localEv.exit.i.i809
                                        #   in Loop: Header=BB1_95 Depth=1
	pcaddu18i	$ra, %call36(_ZdlPv)
	jirl	$ra, $ra, 0
.LBB1_123:                              # %_ZNSt7__cxx1112basic_stringIcSt11char_traitsIcESaIcEED2Ev.exit811
                                        #   in Loop: Header=BB1_95 Depth=1
	ld.d	$a0, $sp, 32                    # 8-byte Folded Reload
	ld.d	$a0, $a0, 0
	fld.d	$fa0, $a0, 40
	ld.d	$a0, $sp, 544
	ld.w	$fp, $s2, 0
	fst.d	$fa0, $sp, 344
	st.w	$fp, $a0, 0
	ld.w	$a1, $s2, 4
	st.w	$a1, $a0, 4
	ld.w	$a1, $s2, 8
	st.w	$a1, $a0, 8
	ld.d	$a0, $sp, 568
	ori	$a1, $zero, 2000
	lu32i.d	$a1, 18000
	st.d	$a1, $a0, 0
	lu12i.w	$a1, 170
	ori	$a1, $a1, 3680
	b	.LBB1_217
.LBB1_124:                              # %.noexc.i385
                                        #   in Loop: Header=BB1_95 Depth=1
	addi.d	$a0, $sp, 264
	st.d	$a0, $sp, 248
	ori	$a0, $zero, 17
	st.d	$a0, $sp, 160
.Ltmp57:                                # EH_LABEL
	addi.d	$a0, $sp, 248
	addi.d	$a1, $sp, 160
	move	$a2, $zero
	pcaddu18i	$ra, %call36(_ZNSt7__cxx1112basic_stringIcSt11char_traitsIcESaIcEE9_M_createERmm)
	jirl	$ra, $ra, 0
.Ltmp58:                                # EH_LABEL
# %bb.125:                              # %.noexc386
                                        #   in Loop: Header=BB1_95 Depth=1
	ld.d	$a1, $sp, 160
	st.d	$a0, $sp, 248
	st.d	$a1, $sp, 264
	pcalau12i	$a2, %pc_hi20(.L.str.5)
	addi.d	$a2, $a2, %pc_lo12(.L.str.5)
	vld	$vr0, $a2, 0
	ld.b	$a2, $a2, 16
	vst	$vr0, $a0, 0
	st.b	$a2, $a0, 16
	ld.d	$a0, $sp, 248
	st.d	$a1, $sp, 256
	stx.b	$zero, $a0, $a1
	ld.d	$a0, $sp, 624
	beq	$a0, $s4, .LBB1_233
# %bb.126:                              # %_ZNKSt7__cxx1112basic_stringIcSt11char_traitsIcESaIcEE11_M_is_localEv.exit.thread.i388
                                        #   in Loop: Header=BB1_95 Depth=1
	ld.d	$a1, $sp, 248
	addi.d	$a2, $sp, 264
	beq	$a1, $a2, .LBB1_236
# %bb.127:                              # %_ZNKSt7__cxx1112basic_stringIcSt11char_traitsIcESaIcEE11_M_is_localEv.exit23.thread25.i389
                                        #   in Loop: Header=BB1_95 Depth=1
	vld	$vr0, $sp, 256
	ld.d	$a2, $sp, 640
	st.d	$a1, $sp, 624
	vst	$vr0, $sp, 632
	beqz	$a0, .LBB1_235
# %bb.128:                              #   in Loop: Header=BB1_95 Depth=1
	st.d	$a0, $sp, 248
	st.d	$a2, $sp, 264
	b	.LBB1_272
.LBB1_129:                              # %._crit_edge.i.i652
                                        #   in Loop: Header=BB1_95 Depth=1
	addi.d	$a3, $sp, 264
	st.d	$a3, $sp, 248
	pcalau12i	$a0, %pc_hi20(.L.str.18)
	addi.d	$a0, $a0, %pc_lo12(.L.str.18)
	ld.d	$a1, $a0, 0
	ld.h	$a0, $a0, 8
	ori	$a2, $zero, 10
	st.d	$a2, $sp, 256
	ld.d	$a2, $sp, 624
	st.d	$a1, $a3, 0
	st.h	$a0, $a3, 8
	st.b	$zero, $sp, 274
	st.h	$a0, $a2, 8
	st.d	$a1, $a2, 0
	ld.d	$a0, $sp, 256
	ld.d	$a1, $sp, 624
	st.d	$a0, $sp, 632
	stx.b	$zero, $a1, $a0
	ld.d	$a0, $sp, 248
	st.d	$zero, $sp, 256
	st.b	$zero, $a0, 0
	ld.d	$a0, $sp, 248
	beq	$a0, $a3, .LBB1_131
# %bb.130:                              # %_ZNKSt7__cxx1112basic_stringIcSt11char_traitsIcESaIcEE11_M_is_localEv.exit.i.i665
                                        #   in Loop: Header=BB1_95 Depth=1
	pcaddu18i	$ra, %call36(_ZdlPv)
	jirl	$ra, $ra, 0
.LBB1_131:                              # %_ZNSt7__cxx1112basic_stringIcSt11char_traitsIcESaIcEED2Ev.exit667
                                        #   in Loop: Header=BB1_95 Depth=1
	ld.d	$a0, $sp, 32                    # 8-byte Folded Reload
	ld.d	$a0, $a0, 0
	fld.d	$fa0, $a0, 8
	ld.d	$a0, $sp, 544
	ld.w	$fp, $s2, 0
	fst.d	$fa0, $sp, 344
	st.w	$fp, $a0, 0
	ld.w	$a1, $s2, 4
	st.w	$a1, $a0, 4
	ld.w	$a1, $s2, 8
	st.w	$a1, $a0, 8
	ld.d	$a0, $sp, 568
	lu12i.w	$a1, 12
	ori	$a1, $a1, 848
	lu32i.d	$a1, -448576
	lu52i.d	$a1, $a1, 0
	b	.LBB1_207
.LBB1_132:                              # %._crit_edge.i.i400
                                        #   in Loop: Header=BB1_95 Depth=1
	addi.d	$a3, $sp, 264
	st.d	$a3, $sp, 248
	pcalau12i	$a0, %pc_hi20(.L.str.6)
	addi.d	$a0, $a0, %pc_lo12(.L.str.6)
	ld.d	$a1, $a0, 0
	ld.w	$a0, $a0, 7
	ori	$a2, $zero, 11
	st.d	$a2, $sp, 256
	ld.d	$a2, $sp, 624
	st.d	$a1, $a3, 0
	st.w	$a0, $a3, 7
	st.b	$zero, $sp, 275
	st.w	$a0, $a2, 7
.LBB1_133:                              # %._crit_edge.i.i416
                                        #   in Loop: Header=BB1_95 Depth=1
	st.d	$a1, $a2, 0
.LBB1_134:                              # %._crit_edge.i.i416
                                        #   in Loop: Header=BB1_95 Depth=1
	ld.d	$a0, $sp, 256
	ld.d	$a1, $sp, 624
	st.d	$a0, $sp, 632
	stx.b	$zero, $a1, $a0
	ld.d	$a0, $sp, 248
	st.d	$zero, $sp, 256
	st.b	$zero, $a0, 0
	ld.d	$a0, $sp, 248
	beq	$a0, $a3, .LBB1_136
# %bb.135:                              # %_ZNKSt7__cxx1112basic_stringIcSt11char_traitsIcESaIcEE11_M_is_localEv.exit.i.i429
                                        #   in Loop: Header=BB1_95 Depth=1
	pcaddu18i	$ra, %call36(_ZdlPv)
	jirl	$ra, $ra, 0
.LBB1_136:                              #   in Loop: Header=BB1_95 Depth=1
	ld.d	$a0, $sp, 32                    # 8-byte Folded Reload
	ld.d	$a0, $a0, 0
	fld.d	$fa0, $a0, 24
	ld.d	$a0, $sp, 544
	ld.w	$fp, $s2, 0
	fst.d	$fa0, $sp, 344
	st.w	$fp, $a0, 0
	ld.w	$a1, $s2, 4
	st.w	$a1, $a0, 4
	ld.w	$a1, $s2, 8
	st.w	$a1, $a0, 8
	ld.d	$a0, $sp, 568
	ori	$a1, $zero, 3000
	b	.LBB1_192
.LBB1_137:                              # %._crit_edge.i.i514
                                        #   in Loop: Header=BB1_95 Depth=1
	addi.d	$a3, $sp, 264
	st.d	$a3, $sp, 248
	pcalau12i	$a0, %pc_hi20(.L.str.10)
	addi.d	$a0, $a0, %pc_lo12(.L.str.10)
	ld.w	$a1, $a0, 0
	ld.h	$a0, $a0, 4
	ori	$a2, $zero, 6
	st.d	$a2, $sp, 256
	ld.d	$a2, $sp, 624
	st.w	$a1, $a3, 0
	st.h	$a0, $a3, 4
	st.b	$zero, $sp, 270
	st.h	$a0, $a2, 4
	st.w	$a1, $a2, 0
	ld.d	$a0, $sp, 256
	ld.d	$a1, $sp, 624
	st.d	$a0, $sp, 632
	stx.b	$zero, $a1, $a0
	ld.d	$a0, $sp, 248
	st.d	$zero, $sp, 256
	st.b	$zero, $a0, 0
	ld.d	$a0, $sp, 248
	beq	$a0, $a3, .LBB1_139
# %bb.138:                              # %_ZNKSt7__cxx1112basic_stringIcSt11char_traitsIcESaIcEE11_M_is_localEv.exit.i.i527
                                        #   in Loop: Header=BB1_95 Depth=1
	pcaddu18i	$ra, %call36(_ZdlPv)
	jirl	$ra, $ra, 0
.LBB1_139:                              # %_ZNSt7__cxx1112basic_stringIcSt11char_traitsIcESaIcEED2Ev.exit529
                                        #   in Loop: Header=BB1_95 Depth=1
	ld.d	$a0, $sp, 32                    # 8-byte Folded Reload
	ld.d	$a0, $a0, 0
	fld.d	$fa0, $a0, 16
	fst.d	$fa0, $sp, 344
.Ltmp39:                                # EH_LABEL
	addi.d	$a0, $sp, 248
	ori	$a2, $zero, 3
	move	$a1, $zero
	pcaddu18i	$ra, %call36(_ZN7ADomainC2Eii)
	jirl	$ra, $ra, 0
.Ltmp40:                                # EH_LABEL
# %bb.140:                              #   in Loop: Header=BB1_95 Depth=1
	ld.w	$a0, $sp, 316
	ld.w	$a1, $sp, 312
	ld.d	$a2, $sp, 544
	sub.d	$a0, $a0, $a1
	addi.d	$a0, $a0, 1
	st.w	$a0, $a2, 0
.Ltmp42:                                # EH_LABEL
	addi.d	$a0, $sp, 160
	ori	$a1, $zero, 1
	ori	$a2, $zero, 3
	pcaddu18i	$ra, %call36(_ZN7ADomainC2Eii)
	jirl	$ra, $ra, 0
.Ltmp43:                                # EH_LABEL
# %bb.141:                              #   in Loop: Header=BB1_95 Depth=1
	ld.w	$a0, $sp, 228
	ld.w	$a1, $sp, 224
	ld.d	$a2, $sp, 544
	sub.d	$a0, $a0, $a1
	addi.d	$a0, $a0, 1
	st.w	$a0, $a2, 4
.Ltmp45:                                # EH_LABEL
	addi.d	$a0, $sp, 72
	ori	$a1, $zero, 2
	ori	$a2, $zero, 3
	pcaddu18i	$ra, %call36(_ZN7ADomainC2Eii)
	jirl	$ra, $ra, 0
.Ltmp46:                                # EH_LABEL
# %bb.142:                              #   in Loop: Header=BB1_95 Depth=1
	ld.w	$a0, $sp, 140
	ld.w	$a1, $sp, 136
	ld.d	$a2, $sp, 544
	sub.d	$a0, $a0, $a1
	addi.d	$a0, $a0, 1
	st.w	$a0, $a2, 8
	ld.d	$a0, $sp, 568
	ld.w	$fp, $sp, 308
	ori	$a1, $zero, 2000
	lu32i.d	$a1, 10000
	st.d	$a1, $a0, 0
	lu12i.w	$a1, 146
	ori	$a1, $a1, 1984
	b	.LBB1_161
.LBB1_143:                              # %._crit_edge.i.i368
                                        #   in Loop: Header=BB1_95 Depth=1
	addi.d	$a3, $sp, 264
	st.d	$a3, $sp, 248
	pcalau12i	$a0, %pc_hi20(.L.str.4)
	addi.d	$a0, $a0, %pc_lo12(.L.str.4)
	ld.d	$a1, $a0, 0
	ld.d	$a0, $a0, 5
	ori	$a2, $zero, 13
	st.d	$a2, $sp, 256
	ld.d	$a2, $sp, 624
	st.d	$a1, $a3, 0
	st.d	$a0, $a3, 5
	st.b	$zero, $sp, 277
	st.d	$a0, $a2, 5
	st.d	$a1, $a2, 0
	ld.d	$a0, $sp, 256
	ld.d	$a1, $sp, 624
	st.d	$a0, $sp, 632
	stx.b	$zero, $a1, $a0
	ld.d	$a0, $sp, 248
	st.d	$zero, $sp, 256
	st.b	$zero, $a0, 0
	ld.d	$a0, $sp, 248
	beq	$a0, $a3, .LBB1_145
.LBB1_144:                              # %_ZNKSt7__cxx1112basic_stringIcSt11char_traitsIcESaIcEE11_M_is_localEv.exit.i.i397
                                        #   in Loop: Header=BB1_95 Depth=1
	pcaddu18i	$ra, %call36(_ZdlPv)
	jirl	$ra, $ra, 0
.LBB1_145:                              #   in Loop: Header=BB1_95 Depth=1
	ld.d	$a0, $sp, 32                    # 8-byte Folded Reload
	ld.d	$a0, $a0, 0
	fld.d	$fa0, $a0, 24
	ld.d	$a0, $sp, 544
	ld.w	$fp, $s2, 0
	fst.d	$fa0, $sp, 344
	st.w	$fp, $a0, 0
	ld.w	$a1, $s2, 4
	st.w	$a1, $a0, 4
	ld.w	$a1, $s2, 8
	st.w	$a1, $a0, 8
	ld.d	$a0, $sp, 568
	lu12i.w	$a1, 3
	ori	$a1, $a1, 2712
	lu32i.d	$a1, 200000
	st.d	$a1, $a0, 0
	lu12i.w	$a1, 2441
	ori	$a1, $a1, 1664
	b	.LBB1_217
.LBB1_146:                              # %._crit_edge.i.i908
                                        #   in Loop: Header=BB1_95 Depth=1
	addi.d	$a3, $sp, 264
	st.d	$a3, $sp, 248
	pcalau12i	$a0, %pc_hi20(.L.str.34)
	addi.d	$a0, $a0, %pc_lo12(.L.str.34)
	ld.d	$a1, $a0, 0
	ld.w	$a0, $a0, 8
	ori	$a2, $zero, 12
	st.d	$a2, $sp, 256
	ld.d	$a2, $sp, 624
	st.d	$a1, $a3, 0
	st.w	$a0, $a3, 8
	st.b	$zero, $sp, 276
	st.w	$a0, $a2, 8
	st.d	$a1, $a2, 0
	ld.d	$a0, $sp, 256
	ld.d	$a1, $sp, 624
	st.d	$a0, $sp, 632
	stx.b	$zero, $a1, $a0
	ld.d	$a0, $sp, 248
	st.d	$zero, $sp, 256
	st.b	$zero, $a0, 0
	ld.d	$a0, $sp, 248
	beq	$a0, $a3, .LBB1_148
# %bb.147:                              # %_ZNKSt7__cxx1112basic_stringIcSt11char_traitsIcESaIcEE11_M_is_localEv.exit.i.i921
                                        #   in Loop: Header=BB1_95 Depth=1
	pcaddu18i	$ra, %call36(_ZdlPv)
	jirl	$ra, $ra, 0
.LBB1_148:                              # %_ZNSt7__cxx1112basic_stringIcSt11char_traitsIcESaIcEED2Ev.exit923
                                        #   in Loop: Header=BB1_95 Depth=1
	ld.d	$a0, $sp, 32                    # 8-byte Folded Reload
	ld.d	$a0, $a0, 0
	fld.d	$fa0, $a0, 8
	ld.d	$a0, $sp, 544
	ld.w	$fp, $s2, 0
	fst.d	$fa0, $sp, 344
	st.w	$fp, $a0, 0
	ld.w	$a1, $s2, 4
	st.w	$a1, $a0, 4
	ld.w	$a1, $s2, 8
	st.w	$a1, $a0, 8
	ld.d	$a0, $sp, 568
	ori	$a1, $zero, 800
	lu32i.d	$a1, 6000
	st.d	$a1, $a0, 0
	lu12i.w	$a1, 36
	ori	$a1, $a1, 2544
	b	.LBB1_217
.LBB1_149:                              # %._crit_edge.i.i684
                                        #   in Loop: Header=BB1_95 Depth=1
	addi.d	$a3, $sp, 264
	st.d	$a3, $sp, 248
	pcalau12i	$a0, %pc_hi20(.L.str.20)
	addi.d	$a0, $a0, %pc_lo12(.L.str.20)
	ld.d	$a1, $a0, 0
	ld.w	$a0, $a0, 8
	ori	$a2, $zero, 12
	st.d	$a2, $sp, 256
	ld.d	$a2, $sp, 624
	st.d	$a1, $a3, 0
	st.w	$a0, $a3, 8
	st.b	$zero, $sp, 276
	st.w	$a0, $a2, 8
	st.d	$a1, $a2, 0
	ld.d	$a0, $sp, 256
	ld.d	$a1, $sp, 624
	st.d	$a0, $sp, 632
	stx.b	$zero, $a1, $a0
	ld.d	$a0, $sp, 248
	st.d	$zero, $sp, 256
	st.b	$zero, $a0, 0
	ld.d	$a0, $sp, 248
	beq	$a0, $a3, .LBB1_151
# %bb.150:                              # %_ZNKSt7__cxx1112basic_stringIcSt11char_traitsIcESaIcEE11_M_is_localEv.exit.i.i697
                                        #   in Loop: Header=BB1_95 Depth=1
	pcaddu18i	$ra, %call36(_ZdlPv)
	jirl	$ra, $ra, 0
.LBB1_151:                              # %_ZNSt7__cxx1112basic_stringIcSt11char_traitsIcESaIcEED2Ev.exit699
                                        #   in Loop: Header=BB1_95 Depth=1
	ld.d	$a0, $sp, 32                    # 8-byte Folded Reload
	ld.d	$a0, $a0, 0
	fld.d	$fa0, $a0, 8
	ld.d	$a0, $sp, 544
	ld.w	$fp, $s2, 0
	fst.d	$fa0, $sp, 344
	st.w	$fp, $a0, 0
	ld.w	$a1, $s2, 4
	st.w	$a1, $a0, 4
	ld.w	$a1, $s2, 8
	st.w	$a1, $a0, 8
	ld.d	$a0, $sp, 568
	lu12i.w	$a1, 2
	ori	$a1, $a1, 1808
	lu32i.d	$a1, 100000
	b	.LBB1_188
.LBB1_152:                              # %._crit_edge.i.i732
                                        #   in Loop: Header=BB1_95 Depth=1
	addi.d	$a3, $sp, 264
	st.d	$a3, $sp, 248
	pcalau12i	$a0, %pc_hi20(.L.str.23)
	addi.d	$a0, $a0, %pc_lo12(.L.str.23)
	ld.d	$a1, $a0, 0
	ld.w	$a0, $a0, 7
	ori	$a2, $zero, 11
	st.d	$a2, $sp, 256
	ld.d	$a2, $sp, 624
	st.d	$a1, $a3, 0
	st.w	$a0, $a3, 7
	st.b	$zero, $sp, 275
	st.w	$a0, $a2, 7
	st.d	$a1, $a2, 0
	ld.d	$a0, $sp, 256
	ld.d	$a1, $sp, 624
	st.d	$a0, $sp, 632
	stx.b	$zero, $a1, $a0
	ld.d	$a0, $sp, 248
	st.d	$zero, $sp, 256
	st.b	$zero, $a0, 0
	ld.d	$a0, $sp, 248
	beq	$a0, $a3, .LBB1_154
# %bb.153:                              # %_ZNKSt7__cxx1112basic_stringIcSt11char_traitsIcESaIcEE11_M_is_localEv.exit.i.i745
                                        #   in Loop: Header=BB1_95 Depth=1
	pcaddu18i	$ra, %call36(_ZdlPv)
	jirl	$ra, $ra, 0
.LBB1_154:                              # %_ZNSt7__cxx1112basic_stringIcSt11char_traitsIcESaIcEED2Ev.exit747
                                        #   in Loop: Header=BB1_95 Depth=1
	ld.d	$a0, $sp, 32                    # 8-byte Folded Reload
	ld.d	$a0, $a0, 0
	fld.d	$fa0, $a0, 32
	ld.d	$a0, $sp, 544
	ld.w	$fp, $s2, 0
	fst.d	$fa0, $sp, 344
	st.w	$fp, $a0, 0
	ld.w	$a1, $s2, 4
	st.w	$a1, $a0, 4
	ld.w	$a1, $s2, 8
	st.w	$a1, $a0, 8
	ld.d	$a0, $sp, 568
	ori	$a1, $zero, 3000
	lu32i.d	$a1, 30000
	st.d	$a1, $a0, 0
	lu12i.w	$a1, 488
	ori	$a1, $a1, 1152
	b	.LBB1_217
.LBB1_155:                              # %._crit_edge.i.i432
                                        #   in Loop: Header=BB1_95 Depth=1
	addi.d	$a3, $sp, 264
	st.d	$a3, $sp, 248
	pcalau12i	$a0, %pc_hi20(.L.str.8)
	addi.d	$a0, $a0, %pc_lo12(.L.str.8)
	ld.d	$a1, $a0, 0
	ld.h	$a0, $a0, 8
	ori	$a2, $zero, 10
	st.d	$a2, $sp, 256
	ld.d	$a2, $sp, 624
	st.d	$a1, $a3, 0
	st.h	$a0, $a3, 8
	st.b	$zero, $sp, 274
	st.h	$a0, $a2, 8
	st.d	$a1, $a2, 0
	ld.d	$a0, $sp, 256
	ld.d	$a1, $sp, 624
	st.d	$a0, $sp, 632
	stx.b	$zero, $a1, $a0
	ld.d	$a0, $sp, 248
	st.d	$zero, $sp, 256
	st.b	$zero, $a0, 0
	ld.d	$a0, $sp, 248
	beq	$a0, $a3, .LBB1_157
# %bb.156:                              # %_ZNKSt7__cxx1112basic_stringIcSt11char_traitsIcESaIcEE11_M_is_localEv.exit.i.i445
                                        #   in Loop: Header=BB1_95 Depth=1
	pcaddu18i	$ra, %call36(_ZdlPv)
	jirl	$ra, $ra, 0
.LBB1_157:                              # %_ZNSt7__cxx1112basic_stringIcSt11char_traitsIcESaIcEED2Ev.exit447
                                        #   in Loop: Header=BB1_95 Depth=1
	ld.d	$a0, $sp, 32                    # 8-byte Folded Reload
	ld.d	$a0, $a0, 0
	fld.d	$fa0, $a0, 8
	fst.d	$fa0, $sp, 344
.Ltmp48:                                # EH_LABEL
	addi.d	$a0, $sp, 248
	ori	$a2, $zero, 3
	move	$a1, $zero
	pcaddu18i	$ra, %call36(_ZN7ADomainC2Eii)
	jirl	$ra, $ra, 0
.Ltmp49:                                # EH_LABEL
# %bb.158:                              #   in Loop: Header=BB1_95 Depth=1
	ld.w	$a0, $sp, 316
	ld.w	$a1, $sp, 312
	ld.d	$a2, $sp, 544
	sub.d	$a0, $a0, $a1
	addi.d	$a0, $a0, 1
	st.w	$a0, $a2, 0
.Ltmp51:                                # EH_LABEL
	addi.d	$a0, $sp, 160
	ori	$a1, $zero, 1
	ori	$a2, $zero, 3
	pcaddu18i	$ra, %call36(_ZN7ADomainC2Eii)
	jirl	$ra, $ra, 0
.Ltmp52:                                # EH_LABEL
# %bb.159:                              #   in Loop: Header=BB1_95 Depth=1
	ld.w	$a0, $sp, 228
	ld.w	$a1, $sp, 224
	ld.d	$a2, $sp, 544
	sub.d	$a0, $a0, $a1
	addi.d	$a0, $a0, 1
	st.w	$a0, $a2, 4
.Ltmp54:                                # EH_LABEL
	addi.d	$a0, $sp, 72
	ori	$a1, $zero, 2
	ori	$a2, $zero, 3
	pcaddu18i	$ra, %call36(_ZN7ADomainC2Eii)
	jirl	$ra, $ra, 0
.Ltmp55:                                # EH_LABEL
# %bb.160:                              #   in Loop: Header=BB1_95 Depth=1
	ld.w	$a0, $sp, 140
	ld.w	$a1, $sp, 136
	ld.d	$a2, $sp, 544
	sub.d	$a0, $a0, $a1
	addi.d	$a0, $a0, 1
	st.w	$a0, $a2, 8
	ld.w	$fp, $sp, 300
	ld.d	$a0, $sp, 568
	lu12i.w	$a1, 1
	ori	$a1, $a1, 2404
	lu32i.d	$a1, 30000
	st.d	$a1, $a0, 0
	lu12i.w	$a1, 195
	ori	$a1, $a1, 1280
.LBB1_161:                              #   in Loop: Header=BB1_95 Depth=1
	st.w	$a1, $a0, 8
	ld.d	$a0, $sp, 144
	beqz	$a0, .LBB1_163
# %bb.162:                              #   in Loop: Header=BB1_95 Depth=1
	pcaddu18i	$ra, %call36(_ZdaPv)
	jirl	$ra, $ra, 0
.LBB1_163:                              # %_ZN7ADomainD2Ev.exit
                                        #   in Loop: Header=BB1_95 Depth=1
	ld.d	$a0, $sp, 232
	beqz	$a0, .LBB1_165
# %bb.164:                              #   in Loop: Header=BB1_95 Depth=1
	pcaddu18i	$ra, %call36(_ZdaPv)
	jirl	$ra, $ra, 0
.LBB1_165:                              # %_ZN7ADomainD2Ev.exit450
                                        #   in Loop: Header=BB1_95 Depth=1
	ld.d	$a0, $sp, 320
	beqz	$a0, .LBB1_244
# %bb.166:                              #   in Loop: Header=BB1_95 Depth=1
	pcaddu18i	$ra, %call36(_ZdaPv)
	jirl	$ra, $ra, 0
	b	.LBB1_244
.LBB1_167:                              # %._crit_edge.i.i748
                                        #   in Loop: Header=BB1_95 Depth=1
	addi.d	$a3, $sp, 264
	st.d	$a3, $sp, 248
	pcalau12i	$a0, %pc_hi20(.L.str.24)
	addi.d	$a0, $a0, %pc_lo12(.L.str.24)
	ld.d	$a1, $a0, 0
	ld.w	$a0, $a0, 8
	ori	$a2, $zero, 12
	st.d	$a2, $sp, 256
	ld.d	$a2, $sp, 624
	st.d	$a1, $a3, 0
	st.w	$a0, $a3, 8
	st.b	$zero, $sp, 276
	st.w	$a0, $a2, 8
	st.d	$a1, $a2, 0
	ld.d	$a0, $sp, 256
	ld.d	$a1, $sp, 624
	st.d	$a0, $sp, 632
	stx.b	$zero, $a1, $a0
	ld.d	$a0, $sp, 248
	st.d	$zero, $sp, 256
	st.b	$zero, $a0, 0
	ld.d	$a0, $sp, 248
	beq	$a0, $a3, .LBB1_169
# %bb.168:                              # %_ZNKSt7__cxx1112basic_stringIcSt11char_traitsIcESaIcEE11_M_is_localEv.exit.i.i761
                                        #   in Loop: Header=BB1_95 Depth=1
	pcaddu18i	$ra, %call36(_ZdlPv)
	jirl	$ra, $ra, 0
.LBB1_169:                              # %_ZNSt7__cxx1112basic_stringIcSt11char_traitsIcESaIcEED2Ev.exit763
                                        #   in Loop: Header=BB1_95 Depth=1
	ld.d	$a0, $sp, 32                    # 8-byte Folded Reload
	ld.d	$a0, $a0, 0
	fld.d	$fa0, $a0, 32
	ld.d	$a0, $sp, 544
	ld.w	$fp, $s2, 0
	fst.d	$fa0, $sp, 344
	st.w	$fp, $a0, 0
	ld.w	$a1, $s2, 4
	st.w	$a1, $a0, 4
	ld.w	$a1, $s2, 8
	st.w	$a1, $a0, 8
	ld.d	$a0, $sp, 568
	ori	$a1, $zero, 2000
	lu32i.d	$a1, 22000
	st.d	$a1, $a0, 0
	lu12i.w	$a1, 439
	ori	$a1, $a1, 1856
	b	.LBB1_217
.LBB1_170:                              # %._crit_edge.i.i620
                                        #   in Loop: Header=BB1_95 Depth=1
	pcalau12i	$a0, %pc_hi20(.LCPI1_7)
	vld	$vr0, $a0, %pc_lo12(.LCPI1_7)
	vst	$vr0, $sp, 256
	ld.d	$a0, $sp, 624
	ld.d	$a1, $sp, 264
	addi.d	$a2, $sp, 264
	st.d	$a2, $sp, 248
	st.b	$zero, $sp, 272
	st.d	$a1, $a0, 0
	ld.d	$a0, $sp, 256
	ld.d	$a1, $sp, 624
	st.d	$a0, $sp, 632
	stx.b	$zero, $a1, $a0
	ld.d	$a0, $sp, 248
	st.d	$zero, $sp, 256
	st.b	$zero, $a0, 0
	ld.d	$a0, $sp, 248
	beq	$a0, $a2, .LBB1_172
# %bb.171:                              # %_ZNKSt7__cxx1112basic_stringIcSt11char_traitsIcESaIcEE11_M_is_localEv.exit.i.i633
                                        #   in Loop: Header=BB1_95 Depth=1
	pcaddu18i	$ra, %call36(_ZdlPv)
	jirl	$ra, $ra, 0
.LBB1_172:                              # %_ZNSt7__cxx1112basic_stringIcSt11char_traitsIcESaIcEED2Ev.exit635
                                        #   in Loop: Header=BB1_95 Depth=1
	ld.d	$a0, $sp, 32                    # 8-byte Folded Reload
	ld.d	$a0, $a0, 0
	fld.d	$fa0, $a0, 0
	ld.d	$a0, $sp, 544
	ld.w	$fp, $s2, 0
	fst.d	$fa0, $sp, 344
	st.w	$fp, $a0, 0
	ld.w	$a1, $s2, 4
	st.w	$a1, $a0, 4
	ld.w	$a1, $s2, 8
	st.w	$a1, $a0, 8
	ld.d	$a0, $sp, 568
	lu12i.w	$a1, 7
	ori	$a1, $a1, 1328
	lu32i.d	$a1, 320000
	b	.LBB1_184
.LBB1_173:                              # %._crit_edge.i.i457
                                        #   in Loop: Header=BB1_95 Depth=1
	addi.d	$a3, $sp, 264
	st.d	$a3, $sp, 248
	pcalau12i	$a0, %pc_hi20(.L.str.9)
	addi.d	$a0, $a0, %pc_lo12(.L.str.9)
	ld.d	$a1, $a0, 0
	ld.d	$a0, $a0, 6
	ori	$a2, $zero, 14
	st.d	$a2, $sp, 256
	ld.d	$a2, $sp, 624
	st.d	$a1, $a3, 0
	st.d	$a0, $a3, 6
	st.b	$zero, $sp, 278
	st.d	$a0, $a2, 6
	st.d	$a1, $a2, 0
	ld.d	$a0, $sp, 256
	ld.d	$a1, $sp, 624
	st.d	$a0, $sp, 632
	stx.b	$zero, $a1, $a0
	ld.d	$a0, $sp, 248
	st.d	$zero, $sp, 256
	st.b	$zero, $a0, 0
	ld.d	$a0, $sp, 248
	beq	$a0, $a3, .LBB1_175
# %bb.174:                              # %_ZNKSt7__cxx1112basic_stringIcSt11char_traitsIcESaIcEE11_M_is_localEv.exit.i.i470
                                        #   in Loop: Header=BB1_95 Depth=1
	pcaddu18i	$ra, %call36(_ZdlPv)
	jirl	$ra, $ra, 0
.LBB1_175:                              # %_ZNSt7__cxx1112basic_stringIcSt11char_traitsIcESaIcEED2Ev.exit472
                                        #   in Loop: Header=BB1_95 Depth=1
	ld.d	$a0, $sp, 32                    # 8-byte Folded Reload
	ld.d	$a0, $a0, 0
	ld.d	$a1, $sp, 16                    # 8-byte Folded Reload
	fld.d	$fa0, $a1, %pc_lo12(_ZN7ADomain18loop_length_factorE)
	pcalau12i	$a1, %pc_hi20(.LCPI1_9)
	fld.d	$fa1, $a1, %pc_lo12(.LCPI1_9)
	fld.d	$fa2, $a0, 0
	fmul.d	$fa1, $fa0, $fa1
	ftintrz.w.d	$fa1, $fa1
	movfr2gr.s	$a0, $fa1
	ori	$a2, $zero, 2
	fst.d	$fa2, $sp, 344
	blt	$a0, $a2, .LBB1_223
# %bb.176:                              # %.lr.ph70.i.preheader
                                        #   in Loop: Header=BB1_95 Depth=1
	addi.d	$a1, $a0, -1
	move	$a3, $zero
	move	$a4, $a1
	.p2align	4, , 16
.LBB1_177:                              # %.lr.ph70.i
                                        #   Parent Loop BB1_95 Depth=1
                                        # =>  This Inner Loop Header: Depth=2
	addi.w	$a4, $a4, -1
	add.d	$a3, $a1, $a3
	bnez	$a4, .LBB1_177
	b	.LBB1_224
.LBB1_178:                              # %._crit_edge.i.i700
                                        #   in Loop: Header=BB1_95 Depth=1
	addi.d	$a3, $sp, 264
	st.d	$a3, $sp, 248
	pcalau12i	$a0, %pc_hi20(.L.str.21)
	addi.d	$a0, $a0, %pc_lo12(.L.str.21)
	ld.h	$a1, $a0, 0
	ld.b	$a0, $a0, 2
	ori	$a2, $zero, 3
	st.d	$a2, $sp, 256
	ld.d	$a2, $sp, 624
	st.h	$a1, $a3, 0
	st.b	$a0, $a3, 2
	st.b	$zero, $sp, 267
	st.b	$a0, $a2, 2
	st.h	$a1, $a2, 0
	ld.d	$a0, $sp, 256
	ld.d	$a1, $sp, 624
	st.d	$a0, $sp, 632
	stx.b	$zero, $a1, $a0
	ld.d	$a0, $sp, 248
	st.d	$zero, $sp, 256
	st.b	$zero, $a0, 0
	ld.d	$a0, $sp, 248
	beq	$a0, $a3, .LBB1_180
# %bb.179:                              # %_ZNKSt7__cxx1112basic_stringIcSt11char_traitsIcESaIcEE11_M_is_localEv.exit.i.i713
                                        #   in Loop: Header=BB1_95 Depth=1
	pcaddu18i	$ra, %call36(_ZdlPv)
	jirl	$ra, $ra, 0
.LBB1_180:                              # %_ZNSt7__cxx1112basic_stringIcSt11char_traitsIcESaIcEED2Ev.exit715
                                        #   in Loop: Header=BB1_95 Depth=1
	ld.d	$a0, $sp, 32                    # 8-byte Folded Reload
	ld.d	$a0, $a0, 0
	fld.d	$fa0, $a0, 0
	ld.d	$a0, $sp, 544
	ld.w	$fp, $s2, 0
	fst.d	$fa0, $sp, 344
	st.w	$fp, $a0, 0
	ld.w	$a1, $s2, 4
	st.w	$a1, $a0, 4
	ld.w	$a1, $s2, 8
	st.w	$a1, $a0, 8
	ld.d	$a0, $sp, 568
	lu12i.w	$a1, 4
	ori	$a1, $a1, 1616
	lu32i.d	$a1, 140000
	st.d	$a1, $a0, 0
	lu12i.w	$a1, 1220
	ori	$a1, $a1, 2880
	b	.LBB1_217
.LBB1_181:                              # %._crit_edge.i.i572
                                        #   in Loop: Header=BB1_95 Depth=1
	addi.d	$a3, $sp, 264
	st.d	$a3, $sp, 248
	pcalau12i	$a0, %pc_hi20(.L.str.13)
	addi.d	$a0, $a0, %pc_lo12(.L.str.13)
	ld.d	$a1, $a0, 0
	ld.b	$a0, $a0, 8
	ori	$a2, $zero, 9
	st.d	$a2, $sp, 256
	ld.d	$a2, $sp, 624
	st.d	$a1, $a3, 0
	st.b	$a0, $a3, 8
	st.b	$zero, $sp, 273
	st.b	$a0, $a2, 8
	st.d	$a1, $a2, 0
	ld.d	$a0, $sp, 256
	ld.d	$a1, $sp, 624
	st.d	$a0, $sp, 632
	stx.b	$zero, $a1, $a0
	ld.d	$a0, $sp, 248
	st.d	$zero, $sp, 256
	st.b	$zero, $a0, 0
	ld.d	$a0, $sp, 248
	beq	$a0, $a3, .LBB1_183
# %bb.182:                              # %_ZNKSt7__cxx1112basic_stringIcSt11char_traitsIcESaIcEE11_M_is_localEv.exit.i.i585
                                        #   in Loop: Header=BB1_95 Depth=1
	pcaddu18i	$ra, %call36(_ZdlPv)
	jirl	$ra, $ra, 0
.LBB1_183:                              # %_ZNSt7__cxx1112basic_stringIcSt11char_traitsIcESaIcEED2Ev.exit587
                                        #   in Loop: Header=BB1_95 Depth=1
	ld.d	$a0, $sp, 32                    # 8-byte Folded Reload
	ld.d	$a0, $a0, 0
	fld.d	$fa0, $a0, 0
	ld.d	$a0, $sp, 544
	ld.w	$fp, $s2, 0
	fst.d	$fa0, $sp, 344
	st.w	$fp, $a0, 0
	ld.w	$a1, $s2, 4
	st.w	$a1, $a0, 4
	ld.w	$a1, $s2, 8
	st.w	$a1, $a0, 8
	ld.d	$a0, $sp, 568
	lu12i.w	$a1, 2
	ori	$a1, $a1, 3808
	lu32i.d	$a1, 140000
.LBB1_184:                              # %_ZNSolsEPFRSoS_E.exit
                                        #   in Loop: Header=BB1_95 Depth=1
	st.d	$a1, $a0, 0
	lu12i.w	$a1, 3662
	ori	$a1, $a1, 448
	b	.LBB1_217
.LBB1_185:                              # %._crit_edge.i.i540
                                        #   in Loop: Header=BB1_95 Depth=1
	addi.d	$a3, $sp, 264
	st.d	$a3, $sp, 248
	pcalau12i	$a0, %pc_hi20(.L.str.11)
	addi.d	$a0, $a0, %pc_lo12(.L.str.11)
	ld.h	$a1, $a0, 0
	ld.b	$a0, $a0, 2
	ori	$a2, $zero, 3
	st.d	$a2, $sp, 256
	ld.d	$a2, $sp, 624
	st.h	$a1, $a3, 0
	st.b	$a0, $a3, 2
	st.b	$zero, $sp, 267
	st.b	$a0, $a2, 2
	st.h	$a1, $a2, 0
	ld.d	$a0, $sp, 256
	ld.d	$a1, $sp, 624
	st.d	$a0, $sp, 632
	stx.b	$zero, $a1, $a0
	ld.d	$a0, $sp, 248
	st.d	$zero, $sp, 256
	st.b	$zero, $a0, 0
	ld.d	$a0, $sp, 248
	beq	$a0, $a3, .LBB1_187
# %bb.186:                              # %_ZNKSt7__cxx1112basic_stringIcSt11char_traitsIcESaIcEE11_M_is_localEv.exit.i.i553
                                        #   in Loop: Header=BB1_95 Depth=1
	pcaddu18i	$ra, %call36(_ZdlPv)
	jirl	$ra, $ra, 0
.LBB1_187:                              # %_ZNSt7__cxx1112basic_stringIcSt11char_traitsIcESaIcEED2Ev.exit555
                                        #   in Loop: Header=BB1_95 Depth=1
	ld.d	$a0, $sp, 32                    # 8-byte Folded Reload
	ld.d	$a0, $a0, 0
	fld.d	$fa0, $a0, 8
	ld.d	$a0, $sp, 544
	ld.w	$fp, $s2, 0
	fst.d	$fa0, $sp, 344
	st.w	$fp, $a0, 0
	ld.w	$a1, $s2, 4
	st.w	$a1, $a0, 4
	ld.w	$a1, $s2, 8
	st.w	$a1, $a0, 8
	ld.d	$a0, $sp, 568
	lu12i.w	$a1, 2
	ori	$a1, $a1, 1808
	lu32i.d	$a1, 80000
.LBB1_188:                              # %_ZNSolsEPFRSoS_E.exit
                                        #   in Loop: Header=BB1_95 Depth=1
	st.d	$a1, $a0, 0
	lu12i.w	$a1, 732
	ori	$a1, $a1, 1728
	b	.LBB1_217
.LBB1_189:                              # %._crit_edge.i.i892
                                        #   in Loop: Header=BB1_95 Depth=1
	addi.d	$a3, $sp, 264
	st.d	$a3, $sp, 248
	pcalau12i	$a0, %pc_hi20(.L.str.33)
	addi.d	$a0, $a0, %pc_lo12(.L.str.33)
	ld.d	$a1, $a0, 0
	ld.b	$a0, $a0, 8
	ori	$a2, $zero, 9
	st.d	$a2, $sp, 256
	ld.d	$a2, $sp, 624
	st.d	$a1, $a3, 0
	st.b	$a0, $a3, 8
	st.b	$zero, $sp, 273
	st.b	$a0, $a2, 8
	st.d	$a1, $a2, 0
	ld.d	$a0, $sp, 256
	ld.d	$a1, $sp, 624
	st.d	$a0, $sp, 632
	stx.b	$zero, $a1, $a0
	ld.d	$a0, $sp, 248
	st.d	$zero, $sp, 256
	st.b	$zero, $a0, 0
	ld.d	$a0, $sp, 248
	beq	$a0, $a3, .LBB1_191
# %bb.190:                              # %_ZNKSt7__cxx1112basic_stringIcSt11char_traitsIcESaIcEE11_M_is_localEv.exit.i.i905
                                        #   in Loop: Header=BB1_95 Depth=1
	pcaddu18i	$ra, %call36(_ZdlPv)
	jirl	$ra, $ra, 0
.LBB1_191:                              # %_ZNSt7__cxx1112basic_stringIcSt11char_traitsIcESaIcEED2Ev.exit907
                                        #   in Loop: Header=BB1_95 Depth=1
	ld.d	$a0, $sp, 32                    # 8-byte Folded Reload
	ld.d	$a0, $a0, 0
	fld.d	$fa0, $a0, 16
	ld.d	$a0, $sp, 544
	ld.w	$fp, $s2, 0
	fst.d	$fa0, $sp, 344
	st.w	$fp, $a0, 0
	ld.w	$a1, $s2, 4
	st.w	$a1, $a0, 4
	ld.w	$a1, $s2, 8
	st.w	$a1, $a0, 8
	ld.d	$a0, $sp, 568
	ori	$a1, $zero, 4000
.LBB1_192:                              # %_ZNSolsEPFRSoS_E.exit
                                        #   in Loop: Header=BB1_95 Depth=1
	lu32i.d	$a1, 30000
.LBB1_193:                              # %_ZNSolsEPFRSoS_E.exit
                                        #   in Loop: Header=BB1_95 Depth=1
	st.d	$a1, $a0, 0
	lu12i.w	$a1, 244
	ori	$a1, $a1, 576
	b	.LBB1_217
.LBB1_194:                              # %._crit_edge.i.i924
                                        #   in Loop: Header=BB1_95 Depth=1
	addi.d	$a3, $sp, 264
	st.d	$a3, $sp, 248
	pcalau12i	$a0, %pc_hi20(.L.str.35)
	addi.d	$a0, $a0, %pc_lo12(.L.str.35)
	ld.d	$a1, $a0, 0
	ld.d	$a0, $a0, 6
	ori	$a2, $zero, 14
	st.d	$a2, $sp, 256
	ld.d	$a2, $sp, 624
	st.d	$a1, $a3, 0
	st.d	$a0, $a3, 6
	st.b	$zero, $sp, 278
	st.d	$a0, $a2, 6
	st.d	$a1, $a2, 0
	ld.d	$a0, $sp, 256
	ld.d	$a1, $sp, 624
	st.d	$a0, $sp, 632
	stx.b	$zero, $a1, $a0
	ld.d	$a0, $sp, 248
	st.d	$zero, $sp, 256
	st.b	$zero, $a0, 0
	ld.d	$a0, $sp, 248
	beq	$a0, $a3, .LBB1_196
# %bb.195:                              # %_ZNKSt7__cxx1112basic_stringIcSt11char_traitsIcESaIcEE11_M_is_localEv.exit.i.i937
                                        #   in Loop: Header=BB1_95 Depth=1
	pcaddu18i	$ra, %call36(_ZdlPv)
	jirl	$ra, $ra, 0
.LBB1_196:                              # %_ZNSt7__cxx1112basic_stringIcSt11char_traitsIcESaIcEED2Ev.exit939
                                        #   in Loop: Header=BB1_95 Depth=1
	ld.d	$a0, $sp, 32                    # 8-byte Folded Reload
	ld.d	$a0, $a0, 0
	fld.d	$fa0, $a0, 24
	ld.d	$a0, $sp, 544
	ld.w	$fp, $s2, 0
	fst.d	$fa0, $sp, 344
	st.w	$fp, $a0, 0
	ld.w	$a1, $s2, 4
	st.w	$a1, $a0, 4
	ld.w	$a1, $s2, 8
	st.w	$a1, $a0, 8
	ld.d	$a0, $sp, 568
	lu12i.w	$a1, 12
	ori	$a1, $a1, 848
	lu32i.d	$a1, 330000
	b	.LBB1_200
.LBB1_197:                              # %._crit_edge.i.i764
                                        #   in Loop: Header=BB1_95 Depth=1
	addi.d	$a3, $sp, 264
	st.d	$a3, $sp, 248
	pcalau12i	$a0, %pc_hi20(.L.str.25)
	addi.d	$a0, $a0, %pc_lo12(.L.str.25)
	ld.d	$a1, $a0, 0
	ld.b	$a0, $a0, 8
	ori	$a2, $zero, 9
	st.d	$a2, $sp, 256
	ld.d	$a2, $sp, 624
	st.d	$a1, $a3, 0
	st.b	$a0, $a3, 8
	st.b	$zero, $sp, 273
	st.b	$a0, $a2, 8
	st.d	$a1, $a2, 0
	ld.d	$a0, $sp, 256
	ld.d	$a1, $sp, 624
	st.d	$a0, $sp, 632
	stx.b	$zero, $a1, $a0
	ld.d	$a0, $sp, 248
	st.d	$zero, $sp, 256
	st.b	$zero, $a0, 0
	ld.d	$a0, $sp, 248
	beq	$a0, $a3, .LBB1_199
# %bb.198:                              # %_ZNKSt7__cxx1112basic_stringIcSt11char_traitsIcESaIcEE11_M_is_localEv.exit.i.i777
                                        #   in Loop: Header=BB1_95 Depth=1
	pcaddu18i	$ra, %call36(_ZdlPv)
	jirl	$ra, $ra, 0
.LBB1_199:                              # %_ZNSt7__cxx1112basic_stringIcSt11char_traitsIcESaIcEED2Ev.exit779
                                        #   in Loop: Header=BB1_95 Depth=1
	ld.d	$a0, $sp, 32                    # 8-byte Folded Reload
	ld.d	$a0, $a0, 0
	fld.d	$fa0, $a0, 8
	ld.d	$a0, $sp, 544
	ld.w	$fp, $s2, 0
	fst.d	$fa0, $sp, 344
	st.w	$fp, $a0, 0
	ld.w	$a1, $s2, 4
	st.w	$a1, $a0, 4
	ld.w	$a1, $s2, 8
	st.w	$a1, $a0, 8
	ld.d	$a0, $sp, 568
	lu12i.w	$a1, 7
	ori	$a1, $a1, 1328
	lu32i.d	$a1, 250000
.LBB1_200:                              # %_ZNSolsEPFRSoS_E.exit
                                        #   in Loop: Header=BB1_95 Depth=1
	st.d	$a1, $a0, 0
	lu12i.w	$a1, 1953
	ori	$a1, $a1, 512
	b	.LBB1_217
.LBB1_201:                              # %._crit_edge.i.i716
                                        #   in Loop: Header=BB1_95 Depth=1
	addi.d	$a3, $sp, 264
	st.d	$a3, $sp, 248
	pcalau12i	$a0, %pc_hi20(.L.str.22)
	addi.d	$a0, $a0, %pc_lo12(.L.str.22)
	ld.h	$a1, $a0, 0
	ld.b	$a0, $a0, 2
	ori	$a2, $zero, 3
	st.d	$a2, $sp, 256
	ld.d	$a2, $sp, 624
	st.h	$a1, $a3, 0
	st.b	$a0, $a3, 2
	st.b	$zero, $sp, 267
	st.b	$a0, $a2, 2
	st.h	$a1, $a2, 0
	ld.d	$a0, $sp, 256
	ld.d	$a1, $sp, 624
	st.d	$a0, $sp, 632
	stx.b	$zero, $a1, $a0
	ld.d	$a0, $sp, 248
	st.d	$zero, $sp, 256
	st.b	$zero, $a0, 0
	ld.d	$a0, $sp, 248
	beq	$a0, $a3, .LBB1_203
# %bb.202:                              # %_ZNKSt7__cxx1112basic_stringIcSt11char_traitsIcESaIcEE11_M_is_localEv.exit.i.i729
                                        #   in Loop: Header=BB1_95 Depth=1
	pcaddu18i	$ra, %call36(_ZdlPv)
	jirl	$ra, $ra, 0
.LBB1_203:                              # %_ZNSt7__cxx1112basic_stringIcSt11char_traitsIcESaIcEED2Ev.exit731
                                        #   in Loop: Header=BB1_95 Depth=1
	ld.d	$a0, $sp, 32                    # 8-byte Folded Reload
	ld.d	$a0, $a0, 0
	fld.d	$fa0, $a0, 40
	ld.d	$a0, $sp, 544
	ld.w	$fp, $s2, 0
	fst.d	$fa0, $sp, 344
	st.w	$fp, $a0, 0
	ld.w	$a1, $s2, 4
	st.w	$a1, $a0, 4
	ld.w	$a1, $s2, 8
	st.w	$a1, $a0, 8
	ld.d	$a0, $sp, 568
	ori	$a1, $zero, 1000
	lu32i.d	$a1, 9000
	st.d	$a1, $a0, 0
	lu12i.w	$a1, 73
	ori	$a1, $a1, 992
	b	.LBB1_217
.LBB1_204:                              # %._crit_edge.i.i780
                                        #   in Loop: Header=BB1_95 Depth=1
	addi.d	$a3, $sp, 264
	st.d	$a3, $sp, 248
	pcalau12i	$a0, %pc_hi20(.L.str.26)
	addi.d	$a0, $a0, %pc_lo12(.L.str.26)
	ld.d	$a1, $a0, 0
	ld.h	$a0, $a0, 8
	ori	$a2, $zero, 10
	st.d	$a2, $sp, 256
	ld.d	$a2, $sp, 624
	st.d	$a1, $a3, 0
	st.h	$a0, $a3, 8
	st.b	$zero, $sp, 274
	st.h	$a0, $a2, 8
	st.d	$a1, $a2, 0
	ld.d	$a0, $sp, 256
	ld.d	$a1, $sp, 624
	st.d	$a0, $sp, 632
	stx.b	$zero, $a1, $a0
	ld.d	$a0, $sp, 248
	st.d	$zero, $sp, 256
	st.b	$zero, $a0, 0
	ld.d	$a0, $sp, 248
	beq	$a0, $a3, .LBB1_206
# %bb.205:                              # %_ZNKSt7__cxx1112basic_stringIcSt11char_traitsIcESaIcEE11_M_is_localEv.exit.i.i793
                                        #   in Loop: Header=BB1_95 Depth=1
	pcaddu18i	$ra, %call36(_ZdlPv)
	jirl	$ra, $ra, 0
.LBB1_206:                              # %_ZNSt7__cxx1112basic_stringIcSt11char_traitsIcESaIcEED2Ev.exit795
                                        #   in Loop: Header=BB1_95 Depth=1
	ld.d	$a0, $sp, 32                    # 8-byte Folded Reload
	ld.d	$a0, $a0, 0
	fld.d	$fa0, $a0, 0
	ld.d	$a0, $sp, 544
	ld.w	$fp, $s2, 0
	fst.d	$fa0, $sp, 344
	st.w	$fp, $a0, 0
	ld.w	$a1, $s2, 4
	st.w	$a1, $a0, 4
	ld.w	$a1, $s2, 8
	st.w	$a1, $a0, 8
	ld.d	$a0, $sp, 568
	lu12i.w	$a1, 7
	ori	$a1, $a1, 1328
	lu32i.d	$a1, 500000
.LBB1_207:                              # %_ZNSolsEPFRSoS_E.exit
                                        #   in Loop: Header=BB1_95 Depth=1
	st.d	$a1, $a0, 0
	lu12i.w	$a1, 7324
	ori	$a1, $a1, 896
	b	.LBB1_217
.LBB1_208:                              # %._crit_edge.i.i860
                                        #   in Loop: Header=BB1_95 Depth=1
	pcalau12i	$a0, %pc_hi20(.LCPI1_5)
	vld	$vr0, $a0, %pc_lo12(.LCPI1_5)
	vst	$vr0, $sp, 256
	ld.d	$a0, $sp, 624
	ld.d	$a1, $sp, 264
	addi.d	$a2, $sp, 264
	st.d	$a2, $sp, 248
	st.b	$zero, $sp, 272
	st.d	$a1, $a0, 0
	ld.d	$a0, $sp, 256
	ld.d	$a1, $sp, 624
	st.d	$a0, $sp, 632
	stx.b	$zero, $a1, $a0
	ld.d	$a0, $sp, 248
	st.d	$zero, $sp, 256
	st.b	$zero, $a0, 0
	ld.d	$a0, $sp, 248
	beq	$a0, $a2, .LBB1_210
# %bb.209:                              # %_ZNKSt7__cxx1112basic_stringIcSt11char_traitsIcESaIcEE11_M_is_localEv.exit.i.i873
                                        #   in Loop: Header=BB1_95 Depth=1
	pcaddu18i	$ra, %call36(_ZdlPv)
	jirl	$ra, $ra, 0
.LBB1_210:                              # %_ZNSt7__cxx1112basic_stringIcSt11char_traitsIcESaIcEED2Ev.exit875
                                        #   in Loop: Header=BB1_95 Depth=1
	ld.d	$a0, $sp, 32                    # 8-byte Folded Reload
	ld.d	$a0, $a0, 0
	fld.d	$fa0, $a0, 8
	ld.d	$a0, $sp, 544
	ld.w	$fp, $s2, 0
	fst.d	$fa0, $sp, 344
	st.w	$fp, $a0, 0
	ld.w	$a1, $s2, 4
	st.w	$a1, $a0, 4
	ld.w	$a1, $s2, 8
	st.w	$a1, $a0, 8
	ld.d	$a0, $sp, 568
	ori	$a1, $zero, 1000
	lu32i.d	$a1, 8000
	st.d	$a1, $a0, 0
	lu12i.w	$a1, 48
	ori	$a1, $a1, 3392
	b	.LBB1_217
.LBB1_211:                              # %._crit_edge.i.i876
                                        #   in Loop: Header=BB1_95 Depth=1
	addi.d	$a3, $sp, 264
	st.d	$a3, $sp, 248
	pcalau12i	$a0, %pc_hi20(.L.str.32)
	addi.d	$a0, $a0, %pc_lo12(.L.str.32)
	ld.d	$a1, $a0, 0
	ld.b	$a0, $a0, 8
	ori	$a2, $zero, 9
	st.d	$a2, $sp, 256
	ld.d	$a2, $sp, 624
	st.d	$a1, $a3, 0
	st.b	$a0, $a3, 8
	st.b	$zero, $sp, 273
	st.b	$a0, $a2, 8
	st.d	$a1, $a2, 0
	ld.d	$a0, $sp, 256
	ld.d	$a1, $sp, 624
	st.d	$a0, $sp, 632
	stx.b	$zero, $a1, $a0
	ld.d	$a0, $sp, 248
	st.d	$zero, $sp, 256
	st.b	$zero, $a0, 0
	ld.d	$a0, $sp, 248
	beq	$a0, $a3, .LBB1_213
# %bb.212:                              # %_ZNKSt7__cxx1112basic_stringIcSt11char_traitsIcESaIcEE11_M_is_localEv.exit.i.i889
                                        #   in Loop: Header=BB1_95 Depth=1
	pcaddu18i	$ra, %call36(_ZdlPv)
	jirl	$ra, $ra, 0
.LBB1_213:                              # %_ZNSt7__cxx1112basic_stringIcSt11char_traitsIcESaIcEED2Ev.exit891
                                        #   in Loop: Header=BB1_95 Depth=1
	ld.d	$a0, $sp, 32                    # 8-byte Folded Reload
	ld.d	$a0, $a0, 0
	fld.d	$fa0, $a0, 8
	ld.d	$a0, $sp, 544
	ld.w	$fp, $s2, 0
	fst.d	$fa0, $sp, 344
	st.w	$fp, $a0, 0
	ld.w	$a1, $s2, 4
	st.w	$a1, $a0, 4
	ld.w	$a1, $s2, 8
	st.w	$a1, $a0, 8
	ld.d	$a0, $sp, 568
	ori	$a1, $zero, 8
	lu32i.d	$a1, 70
	st.d	$a1, $a0, 0
	lu12i.w	$a1, 1
	ori	$a1, $a1, 3904
	b	.LBB1_217
.LBB1_214:                              # %._crit_edge.i.i828
                                        #   in Loop: Header=BB1_95 Depth=1
	pcalau12i	$a0, %pc_hi20(.LCPI1_6)
	vld	$vr0, $a0, %pc_lo12(.LCPI1_6)
	vst	$vr0, $sp, 256
	ld.d	$a0, $sp, 624
	ld.d	$a1, $sp, 264
	addi.d	$a2, $sp, 264
	st.d	$a2, $sp, 248
	st.b	$zero, $sp, 272
	st.d	$a1, $a0, 0
	ld.d	$a0, $sp, 256
	ld.d	$a1, $sp, 624
	st.d	$a0, $sp, 632
	stx.b	$zero, $a1, $a0
	ld.d	$a0, $sp, 248
	st.d	$zero, $sp, 256
	st.b	$zero, $a0, 0
	ld.d	$a0, $sp, 248
	beq	$a0, $a2, .LBB1_216
# %bb.215:                              # %_ZNKSt7__cxx1112basic_stringIcSt11char_traitsIcESaIcEE11_M_is_localEv.exit.i.i841
                                        #   in Loop: Header=BB1_95 Depth=1
	pcaddu18i	$ra, %call36(_ZdlPv)
	jirl	$ra, $ra, 0
.LBB1_216:                              # %_ZNSt7__cxx1112basic_stringIcSt11char_traitsIcESaIcEED2Ev.exit843
                                        #   in Loop: Header=BB1_95 Depth=1
	ld.d	$a0, $sp, 32                    # 8-byte Folded Reload
	ld.d	$a0, $a0, 0
	fld.d	$fa0, $a0, 8
	ld.d	$a0, $sp, 544
	ld.w	$fp, $s2, 0
	fst.d	$fa0, $sp, 344
	st.w	$fp, $a0, 0
	ld.w	$a1, $s2, 4
	st.w	$a1, $a0, 4
	ld.w	$a1, $s2, 8
	st.w	$a1, $a0, 8
	ld.d	$a0, $sp, 568
	ori	$a1, $zero, 300
	lu32i.d	$a1, 2000
	st.d	$a1, $a0, 0
	lu12i.w	$a1, 12
	ori	$a1, $a1, 848
	.p2align	4, , 16
.LBB1_217:                              # %_ZNSolsEPFRSoS_E.exit
                                        #   in Loop: Header=BB1_95 Depth=1
	st.w	$a1, $a0, 8
	b	.LBB1_244
.LBB1_218:                              #   in Loop: Header=BB1_95 Depth=1
.Ltmp60:                                # EH_LABEL
	pcalau12i	$a0, %got_pc_hi20(_ZSt4cout)
	ld.d	$a0, $a0, %got_pc_lo12(_ZSt4cout)
	pcalau12i	$a1, %pc_hi20(.L.str.36)
	addi.d	$a1, $a1, %pc_lo12(.L.str.36)
	ori	$a2, $zero, 20
	pcaddu18i	$ra, %call36(_ZSt16__ostream_insertIcSt11char_traitsIcEERSt13basic_ostreamIT_T0_ES6_PKS3_l)
	jirl	$ra, $ra, 0
.Ltmp61:                                # EH_LABEL
# %bb.219:                              # %_ZStlsISt11char_traitsIcEERSt13basic_ostreamIcT_ES5_PKc.exit
                                        #   in Loop: Header=BB1_95 Depth=1
.Ltmp62:                                # EH_LABEL
	pcalau12i	$a0, %got_pc_hi20(_ZSt4cout)
	ld.d	$a0, $a0, %got_pc_lo12(_ZSt4cout)
	move	$a1, $s3
	pcaddu18i	$ra, %call36(_ZNSo9_M_insertImEERSoT_)
	jirl	$ra, $ra, 0
.Ltmp63:                                # EH_LABEL
# %bb.220:                              # %_ZNSolsEj.exit
                                        #   in Loop: Header=BB1_95 Depth=1
	move	$s6, $a0
	ld.d	$a0, $a0, 0
	ld.d	$a0, $a0, -24
	add.d	$a0, $s6, $a0
	ld.d	$s7, $a0, 240
	beqz	$s7, .LBB1_284
# %bb.221:                              # %_ZSt13__check_facetISt5ctypeIcEERKT_PS3_.exit.i.i
                                        #   in Loop: Header=BB1_95 Depth=1
	ld.bu	$a0, $s7, 56
	beqz	$a0, .LBB1_239
# %bb.222:                              #   in Loop: Header=BB1_95 Depth=1
	ld.bu	$a0, $s7, 67
	b	.LBB1_241
.LBB1_223:                              #   in Loop: Header=BB1_95 Depth=1
	move	$a3, $zero
.LBB1_224:                              # %_ZN7ADomainC2Eii.exit
                                        #   in Loop: Header=BB1_95 Depth=1
	pcalau12i	$a1, %pc_hi20(.LCPI1_10)
	fld.d	$fa1, $a1, %pc_lo12(.LCPI1_10)
	ld.d	$a1, $sp, 544
	fmul.d	$fa1, $fa0, $fa1
	ftintrz.w.d	$fa1, $fa1
	movfr2gr.s	$a4, $fa1
	st.w	$a3, $a1, 0
	blt	$a4, $a2, .LBB1_227
# %bb.225:                              # %.lr.ph70.i476.preheader
                                        #   in Loop: Header=BB1_95 Depth=1
	addi.d	$a3, $a4, -1
	move	$a2, $zero
	move	$a4, $a3
	.p2align	4, , 16
.LBB1_226:                              # %.lr.ph70.i476
                                        #   Parent Loop BB1_95 Depth=1
                                        # =>  This Inner Loop Header: Depth=2
	addi.w	$a4, $a4, -1
	add.d	$a2, $a3, $a2
	bnez	$a4, .LBB1_226
	b	.LBB1_228
.LBB1_227:                              #   in Loop: Header=BB1_95 Depth=1
	move	$a2, $zero
.LBB1_228:                              # %_ZN7ADomainC2Eii.exit488
                                        #   in Loop: Header=BB1_95 Depth=1
	vldi	$vr1, -992
	fmul.d	$fa0, $fa0, $fa1
	ftintrz.w.d	$fa0, $fa0
	movfr2gr.s	$a3, $fa0
	ori	$a4, $zero, 2
	st.w	$a2, $a1, 4
	blt	$a3, $a4, .LBB1_231
# %bb.229:                              # %.lr.ph70.i491.preheader
                                        #   in Loop: Header=BB1_95 Depth=1
	addi.d	$a3, $a3, -1
	move	$a2, $zero
	move	$a4, $a3
	.p2align	4, , 16
.LBB1_230:                              # %.lr.ph70.i491
                                        #   Parent Loop BB1_95 Depth=1
                                        # =>  This Inner Loop Header: Depth=2
	addi.w	$a4, $a4, -1
	add.d	$a2, $a3, $a2
	bnez	$a4, .LBB1_230
	b	.LBB1_232
.LBB1_231:                              #   in Loop: Header=BB1_95 Depth=1
	move	$a2, $zero
.LBB1_232:                              # %_ZN7ADomainD2Ev.exit509
                                        #   in Loop: Header=BB1_95 Depth=1
	addi.d	$a3, $a0, 3
	mul.d	$a3, $a3, $a3
	sub.d	$a0, $a3, $a0
	st.w	$a2, $a1, 8
	ld.d	$a1, $sp, 568
	addi.w	$fp, $a0, -5
	ori	$a0, $zero, 4000
	lu32i.d	$a0, 25000
	st.d	$a0, $a1, 0
	lu12i.w	$a0, 488
	ori	$a0, $a0, 1152
	st.w	$a0, $a1, 8
	b	.LBB1_244
.LBB1_233:                              # %_ZNKSt7__cxx1112basic_stringIcSt11char_traitsIcESaIcEE11_M_is_localEv.exit.i394
                                        #   in Loop: Header=BB1_95 Depth=1
	ld.d	$a1, $sp, 248
	addi.d	$a2, $sp, 264
	beq	$a1, $a2, .LBB1_236
# %bb.234:                              # %.thread.i395
                                        #   in Loop: Header=BB1_95 Depth=1
	vld	$vr0, $sp, 256
	st.d	$a1, $sp, 624
	vst	$vr0, $sp, 632
.LBB1_235:                              #   in Loop: Header=BB1_95 Depth=1
	addi.d	$a1, $sp, 264
	st.d	$a1, $sp, 248
	move	$a0, $a1
	b	.LBB1_273
.LBB1_236:                              #   in Loop: Header=BB1_95 Depth=1
	ld.d	$a2, $sp, 256
	beqz	$a2, .LBB1_271
# %bb.237:                              #   in Loop: Header=BB1_95 Depth=1
	ori	$a3, $zero, 1
	bne	$a2, $a3, .LBB1_270
# %bb.238:                              #   in Loop: Header=BB1_95 Depth=1
	ld.b	$a1, $a1, 0
	st.b	$a1, $a0, 0
	b	.LBB1_271
.LBB1_239:                              #   in Loop: Header=BB1_95 Depth=1
.Ltmp64:                                # EH_LABEL
	move	$a0, $s7
	pcaddu18i	$ra, %call36(_ZNKSt5ctypeIcE13_M_widen_initEv)
	jirl	$ra, $ra, 0
.Ltmp65:                                # EH_LABEL
# %bb.240:                              # %.noexc962
                                        #   in Loop: Header=BB1_95 Depth=1
	ld.d	$a0, $s7, 0
	ld.d	$a2, $a0, 48
.Ltmp66:                                # EH_LABEL
	ori	$a1, $zero, 10
	move	$a0, $s7
	jirl	$ra, $a2, 0
.Ltmp67:                                # EH_LABEL
.LBB1_241:                              # %_ZNKSt9basic_iosIcSt11char_traitsIcEE5widenEc.exit.i
                                        #   in Loop: Header=BB1_95 Depth=1
.Ltmp68:                                # EH_LABEL
	ext.w.b	$a1, $a0
	move	$a0, $s6
	pcaddu18i	$ra, %call36(_ZNSo3putEc)
	jirl	$ra, $ra, 0
.Ltmp69:                                # EH_LABEL
# %bb.242:                              # %.noexc964
                                        #   in Loop: Header=BB1_95 Depth=1
.Ltmp70:                                # EH_LABEL
	pcaddu18i	$ra, %call36(_ZNSo5flushEv)
	jirl	$ra, $ra, 0
.Ltmp71:                                # EH_LABEL
	.p2align	4, , 16
.LBB1_243:                              #   in Loop: Header=BB1_95 Depth=1
	move	$fp, $zero
.LBB1_244:                              # %_ZNSolsEPFRSoS_E.exit
                                        #   in Loop: Header=BB1_95 Depth=1
	ld.d	$s6, $s0, 48
	ld.d	$a0, $s0, 56
	beq	$s6, $a0, .LBB1_251
# %bb.245:                              #   in Loop: Header=BB1_95 Depth=1
	addi.d	$a0, $s6, 16
	st.d	$a0, $s6, 0
	ld.d	$s7, $sp, 632
	ld.d	$s8, $sp, 624
	st.d	$s7, $sp, 248
	ori	$a1, $zero, 16
	bltu	$s7, $a1, .LBB1_248
# %bb.246:                              # %.noexc.i.i
                                        #   in Loop: Header=BB1_95 Depth=1
.Ltmp72:                                # EH_LABEL
	addi.d	$a1, $sp, 248
	move	$a0, $s6
	move	$a2, $zero
	pcaddu18i	$ra, %call36(_ZNSt7__cxx1112basic_stringIcSt11char_traitsIcESaIcEE9_M_createERmm)
	jirl	$ra, $ra, 0
.Ltmp73:                                # EH_LABEL
# %bb.247:                              # %.noexc944
                                        #   in Loop: Header=BB1_95 Depth=1
	st.d	$a0, $s6, 0
	ld.d	$a1, $sp, 248
	st.d	$a1, $s6, 16
.LBB1_248:                              # %._crit_edge.i.i.i
                                        #   in Loop: Header=BB1_95 Depth=1
	beqz	$s7, .LBB1_254
# %bb.249:                              # %._crit_edge.i.i.i
                                        #   in Loop: Header=BB1_95 Depth=1
	ori	$a1, $zero, 1
	bne	$s7, $a1, .LBB1_253
# %bb.250:                              #   in Loop: Header=BB1_95 Depth=1
	ld.b	$a1, $s8, 0
	st.b	$a1, $a0, 0
	b	.LBB1_254
	.p2align	4, , 16
.LBB1_251:                              #   in Loop: Header=BB1_95 Depth=1
.Ltmp74:                                # EH_LABEL
	addi.d	$a1, $sp, 624
	ld.d	$a0, $sp, 48                    # 8-byte Folded Reload
	pcaddu18i	$ra, %call36(_ZNSt6vectorINSt7__cxx1112basic_stringIcSt11char_traitsIcESaIcEEESaIS5_EE17_M_realloc_appendIJRKS5_EEEvDpOT_)
	jirl	$ra, $ra, 0
.Ltmp75:                                # EH_LABEL
# %bb.252:                              # %_ZNSt6vectorINSt7__cxx1112basic_stringIcSt11char_traitsIcESaIcEEESaIS5_EE9push_backERKS5_.exit
                                        #   in Loop: Header=BB1_95 Depth=1
	ld.w	$a0, $s0, 64
	bnez	$a0, .LBB1_255
	b	.LBB1_260
	.p2align	4, , 16
.LBB1_253:                              #   in Loop: Header=BB1_95 Depth=1
	move	$a1, $s8
	move	$a2, $s7
	pcaddu18i	$ra, %call36(memcpy)
	jirl	$ra, $ra, 0
.LBB1_254:                              # %_ZNSt7__cxx1112basic_stringIcSt11char_traitsIcESaIcEEC2ERKS4_.exit.i
                                        #   in Loop: Header=BB1_95 Depth=1
	ld.d	$a0, $sp, 248
	ld.d	$a1, $s6, 0
	st.d	$a0, $s6, 8
	stx.b	$zero, $a1, $a0
	ld.d	$a0, $s0, 48
	addi.d	$a0, $a0, 32
	st.d	$a0, $s0, 48
	ld.w	$a0, $s0, 64
	beqz	$a0, .LBB1_260
.LBB1_255:                              # %.lr.ph1162
                                        #   in Loop: Header=BB1_95 Depth=1
	ld.d	$a0, $sp, 568
	fld.d	$fa0, $s0, 144
	ld.d	$a1, $s0, 72
	ld.d	$a2, $sp, 376
	move	$a3, $zero
	b	.LBB1_258
	.p2align	4, , 16
.LBB1_256:                              #   in Loop: Header=BB1_258 Depth=2
	ld.w	$a5, $s0, 136
	mul.d	$a4, $a5, $a4
	bstrpick.d	$a4, $a4, 31, 0
.LBB1_257:                              #   in Loop: Header=BB1_258 Depth=2
	st.d	$a4, $a2, 0
	ld.wu	$a4, $s0, 64
	addi.d	$a3, $a3, 1
	addi.d	$a2, $a2, 8
	addi.d	$a0, $a0, 4
	bgeu	$a3, $a4, .LBB1_260
.LBB1_258:                              #   Parent Loop BB1_95 Depth=1
                                        # =>  This Inner Loop Header: Depth=2
	ld.w	$a4, $a0, 0
	movgr2fr.w	$fa1, $a4
	ffint.d.w	$fa1, $fa1
	fmul.d	$fa1, $fa0, $fa1
	fdiv.d	$fa1, $fa1, $fs0
	ftintrz.w.d	$fa1, $fa1
	movfr2gr.s	$a4, $fa1
	st.w	$a4, $a0, 0
	srli.d	$a5, $a3, 3
	addi.w	$a6, $zero, -8
	lu52i.d	$a6, $a6, 511
	and	$a5, $a5, $a6
	ldx.d	$a5, $a1, $a5
	srl.d	$a5, $a5, $a3
	andi	$a5, $a5, 1
	bnez	$a5, .LBB1_256
# %bb.259:                              #   in Loop: Header=BB1_258 Depth=2
	move	$a4, $zero
	b	.LBB1_257
	.p2align	4, , 16
.LBB1_260:                              # %.preheader
                                        #   in Loop: Header=BB1_95 Depth=1
	ld.d	$a1, $sp, 664
	ld.d	$a0, $sp, 656
	beq	$a1, $a0, .LBB1_268
# %bb.261:                              # %.lr.ph1164.preheader
                                        #   in Loop: Header=BB1_95 Depth=1
	move	$a1, $zero
	ori	$s7, $zero, 1
	b	.LBB1_264
	.p2align	4, , 16
.LBB1_262:                              #   in Loop: Header=BB1_264 Depth=2
.Ltmp81:                                # EH_LABEL
	addi.d	$a1, $sp, 336
	move	$a0, $s6
	pcaddu18i	$ra, %call36(_ZNSt6vectorI8LoopStatSaIS0_EE17_M_realloc_appendIJRKS0_EEEvDpOT_)
	jirl	$ra, $ra, 0
.Ltmp82:                                # EH_LABEL
.LBB1_263:                              # %_ZNSt6vectorI8LoopStatSaIS0_EE9push_backERKS0_.exit
                                        #   in Loop: Header=BB1_264 Depth=2
	ld.d	$a2, $sp, 664
	ld.d	$a0, $sp, 656
	bstrpick.d	$a1, $s7, 31, 0
	sub.d	$a2, $a2, $a0
	srai.d	$a2, $a2, 5
	addi.w	$s7, $s7, 1
	bgeu	$a1, $a2, .LBB1_268
.LBB1_264:                              # %.lr.ph1164
                                        #   Parent Loop BB1_95 Depth=1
                                        # =>  This Inner Loop Header: Depth=2
	slli.d	$a1, $a1, 5
	add.d	$a1, $a0, $a1
.Ltmp77:                                # EH_LABEL
	move	$a0, $s5
	pcaddu18i	$ra, %call36(_ZNSt8_Rb_treeINSt7__cxx1112basic_stringIcSt11char_traitsIcESaIcEEESt4pairIKS5_PSt6vectorI8LoopStatSaIS9_EEESt10_Select1stISD_ESt4lessIS5_ESaISD_EE4findERS7_)
	jirl	$ra, $ra, 0
.Ltmp78:                                # EH_LABEL
# %bb.265:                              #   in Loop: Header=BB1_264 Depth=2
	ld.d	$s6, $a0, 64
	ld.d	$a0, $s6, 8
	ld.d	$a1, $s6, 16
	beq	$a0, $a1, .LBB1_262
# %bb.266:                              #   in Loop: Header=BB1_264 Depth=2
.Ltmp79:                                # EH_LABEL
	addi.d	$a1, $sp, 336
	pcaddu18i	$ra, %call36(_ZN8LoopStatC2ERKS_)
	jirl	$ra, $ra, 0
.Ltmp80:                                # EH_LABEL
# %bb.267:                              # %.noexc951
                                        #   in Loop: Header=BB1_264 Depth=2
	ld.d	$a0, $s6, 8
	addi.d	$a0, $a0, 280
	st.d	$a0, $s6, 8
	b	.LBB1_263
	.p2align	4, , 16
.LBB1_268:                              # %._crit_edge1165
                                        #   in Loop: Header=BB1_95 Depth=1
	addi.d	$a0, $sp, 336
	pcaddu18i	$ra, %call36(_ZN8LoopStatD2Ev)
	jirl	$ra, $ra, 0
	ld.d	$a0, $sp, 624
	beq	$a0, $s4, .LBB1_94
# %bb.269:                              # %_ZNKSt7__cxx1112basic_stringIcSt11char_traitsIcESaIcEE11_M_is_localEv.exit.i.i946
                                        #   in Loop: Header=BB1_95 Depth=1
	pcaddu18i	$ra, %call36(_ZdlPv)
	jirl	$ra, $ra, 0
	b	.LBB1_94
.LBB1_270:                              #   in Loop: Header=BB1_95 Depth=1
	pcaddu18i	$ra, %call36(memcpy)
	jirl	$ra, $ra, 0
.LBB1_271:                              # %_ZNSt7__cxx1112basic_stringIcSt11char_traitsIcESaIcEE7_S_copyEPcPKcm.exit.i392
                                        #   in Loop: Header=BB1_95 Depth=1
	ld.d	$a0, $sp, 256
	ld.d	$a1, $sp, 624
	st.d	$a0, $sp, 632
	stx.b	$zero, $a1, $a0
	ld.d	$a0, $sp, 248
.LBB1_272:                              # %_ZNSt7__cxx1112basic_stringIcSt11char_traitsIcESaIcEEaSEOS4_.exit396
                                        #   in Loop: Header=BB1_95 Depth=1
	addi.d	$a1, $sp, 264
.LBB1_273:                              # %_ZNSt7__cxx1112basic_stringIcSt11char_traitsIcESaIcEEaSEOS4_.exit396
                                        #   in Loop: Header=BB1_95 Depth=1
	st.d	$zero, $sp, 256
	st.b	$zero, $a0, 0
	ld.d	$a0, $sp, 248
	bne	$a0, $a1, .LBB1_144
	b	.LBB1_145
.LBB1_274:
	move	$s1, $zero
.LBB1_275:                              # %._crit_edge1170
.Ltmp87:                                # EH_LABEL
	pcaddu18i	$ra, %call36(_Z26defineReferenceLoopRunInfov)
	jirl	$ra, $ra, 0
.Ltmp88:                                # EH_LABEL
# %bb.276:                              # %_ZNSt6vectorIiSaIiEED2Ev.exit
	ld.d	$a0, $s0, 360
	ld.w	$a0, $a0, 0
	slt	$a1, $a0, $s1
	ld.d	$a2, $sp, 24                    # 8-byte Folded Reload
	ld.d	$a2, $a2, %pc_lo12(_ZL11s_loop_data)
	masknez	$a0, $a0, $a1
	maskeqz	$a1, $s1, $a1
	or	$a0, $a1, $a0
	st.w	$a0, $a2, 0
	move	$a0, $s2
	pcaddu18i	$ra, %call36(_ZdlPv)
	jirl	$ra, $ra, 0
	ld.d	$a0, $sp, 656
	ld.d	$fp, $sp, 664
	bne	$a0, $fp, .LBB1_281
# %bb.277:                              # %_ZSt8_DestroyIPNSt7__cxx1112basic_stringIcSt11char_traitsIcESaIcEEES5_EvT_S7_RSaIT0_E.exit.i
	beqz	$a0, .LBB1_279
.LBB1_278:
	pcaddu18i	$ra, %call36(_ZdlPv)
	jirl	$ra, $ra, 0
.LBB1_279:                              # %_ZNSt6vectorINSt7__cxx1112basic_stringIcSt11char_traitsIcESaIcEEESaIS5_EED2Ev.exit
	fld.d	$fs1, $sp, 680                  # 8-byte Folded Reload
	fld.d	$fs0, $sp, 688                  # 8-byte Folded Reload
	ld.d	$s8, $sp, 696                   # 8-byte Folded Reload
	ld.d	$s7, $sp, 704                   # 8-byte Folded Reload
	ld.d	$s6, $sp, 712                   # 8-byte Folded Reload
	ld.d	$s5, $sp, 720                   # 8-byte Folded Reload
	ld.d	$s4, $sp, 728                   # 8-byte Folded Reload
	ld.d	$s3, $sp, 736                   # 8-byte Folded Reload
	ld.d	$s2, $sp, 744                   # 8-byte Folded Reload
	ld.d	$s1, $sp, 752                   # 8-byte Folded Reload
	ld.d	$s0, $sp, 760                   # 8-byte Folded Reload
	ld.d	$fp, $sp, 768                   # 8-byte Folded Reload
	ld.d	$ra, $sp, 776                   # 8-byte Folded Reload
	addi.d	$sp, $sp, 784
	ret
	.p2align	4, , 16
.LBB1_280:                              # %_ZSt8_DestroyINSt7__cxx1112basic_stringIcSt11char_traitsIcESaIcEEEEvPT_.exit.i.i.i
                                        #   in Loop: Header=BB1_281 Depth=1
	addi.d	$a0, $s0, 16
	beq	$a0, $fp, .LBB1_283
.LBB1_281:                              # %.lr.ph.i.i.i
                                        # =>This Inner Loop Header: Depth=1
	ld.d	$a1, $a0, 0
	addi.d	$s0, $a0, 16
	beq	$a1, $s0, .LBB1_280
# %bb.282:                              # %_ZNKSt7__cxx1112basic_stringIcSt11char_traitsIcESaIcEE11_M_is_localEv.exit.i.i.i.i.i.i
                                        #   in Loop: Header=BB1_281 Depth=1
	move	$a0, $a1
	pcaddu18i	$ra, %call36(_ZdlPv)
	jirl	$ra, $ra, 0
	b	.LBB1_280
.LBB1_283:                              # %_ZSt8_DestroyIPNSt7__cxx1112basic_stringIcSt11char_traitsIcESaIcEEES5_EvT_S7_RSaIT0_E.exitthread-pre-split.i
	ld.d	$a0, $sp, 656
	bnez	$a0, .LBB1_278
	b	.LBB1_279
.LBB1_284:
.Ltmp84:                                # EH_LABEL
	pcaddu18i	$ra, %call36(_ZSt16__throw_bad_castv)
	jirl	$ra, $ra, 0
.Ltmp85:                                # EH_LABEL
# %bb.285:                              # %.noexc961
.LBB1_286:                              # %.loopexit.split-lp
.Ltmp86:                                # EH_LABEL
	b	.LBB1_311
.LBB1_287:
.Ltmp59:                                # EH_LABEL
	b	.LBB1_311
.LBB1_288:
.Ltmp56:                                # EH_LABEL
	b	.LBB1_292
.LBB1_289:
.Ltmp53:                                # EH_LABEL
	b	.LBB1_295
.LBB1_290:
.Ltmp50:                                # EH_LABEL
	b	.LBB1_311
.LBB1_291:
.Ltmp47:                                # EH_LABEL
.LBB1_292:
	ld.d	$a1, $sp, 232
	move	$fp, $a0
	beqz	$a1, .LBB1_296
# %bb.293:
	move	$a0, $a1
	pcaddu18i	$ra, %call36(_ZdaPv)
	jirl	$ra, $ra, 0
	b	.LBB1_296
.LBB1_294:
.Ltmp44:                                # EH_LABEL
.LBB1_295:                              # %_ZN7ADomainD2Ev.exit454
	move	$fp, $a0
.LBB1_296:                              # %_ZN7ADomainD2Ev.exit454
	ld.d	$a0, $sp, 320
	beqz	$a0, .LBB1_312
# %bb.297:
	pcaddu18i	$ra, %call36(_ZdaPv)
	jirl	$ra, $ra, 0
	b	.LBB1_312
.LBB1_298:
.Ltmp41:                                # EH_LABEL
	b	.LBB1_311
.LBB1_299:
.Ltmp2:                                 # EH_LABEL
	move	$fp, $a0
	b	.LBB1_316
.LBB1_300:
.Ltmp89:                                # EH_LABEL
	move	$fp, $a0
	b	.LBB1_315
.LBB1_301:
.Ltmp35:                                # EH_LABEL
	move	$fp, $a0
	b	.LBB1_316
.LBB1_302:
.Ltmp17:                                # EH_LABEL
	move	$fp, $a0
	b	.LBB1_316
.LBB1_303:
.Ltmp23:                                # EH_LABEL
	move	$fp, $a0
	b	.LBB1_316
.LBB1_304:
.Ltmp29:                                # EH_LABEL
	move	$fp, $a0
	b	.LBB1_316
.LBB1_305:
.Ltmp26:                                # EH_LABEL
	move	$fp, $a0
	b	.LBB1_316
.LBB1_306:
.Ltmp32:                                # EH_LABEL
	move	$fp, $a0
	b	.LBB1_316
.LBB1_307:                              # %.loopexit
.Ltmp76:                                # EH_LABEL
	b	.LBB1_311
.LBB1_308:
.Ltmp38:                                # EH_LABEL
	move	$fp, $a0
	b	.LBB1_313
.LBB1_309:
.Ltmp20:                                # EH_LABEL
	move	$fp, $a0
	b	.LBB1_316
.LBB1_310:
.Ltmp83:                                # EH_LABEL
.LBB1_311:
	move	$fp, $a0
.LBB1_312:
	addi.d	$a0, $sp, 336
	pcaddu18i	$ra, %call36(_ZN8LoopStatD2Ev)
	jirl	$ra, $ra, 0
.LBB1_313:
	ld.d	$a0, $sp, 624
	beq	$a0, $s4, .LBB1_315
# %bb.314:                              # %_ZNKSt7__cxx1112basic_stringIcSt11char_traitsIcESaIcEE11_M_is_localEv.exit.i.i953
	pcaddu18i	$ra, %call36(_ZdlPv)
	jirl	$ra, $ra, 0
.LBB1_315:                              # %_ZNSt6vectorIiSaIiEED2Ev.exit959
	move	$a0, $s2
	pcaddu18i	$ra, %call36(_ZdlPv)
	jirl	$ra, $ra, 0
.LBB1_316:
	addi.d	$a0, $sp, 656
	pcaddu18i	$ra, %call36(_ZNSt6vectorINSt7__cxx1112basic_stringIcSt11char_traitsIcESaIcEEESaIS5_EED2Ev)
	jirl	$ra, $ra, 0
	move	$a0, $fp
	pcaddu18i	$ra, %call36(_Unwind_Resume)
	jirl	$ra, $ra, 0
.Lfunc_end1:
	.size	_Z22defineLoopSuiteRunInfoRKSt6vectorI13LoopVariantIDSaIS0_EEPbdd, .Lfunc_end1-_Z22defineLoopSuiteRunInfoRKSt6vectorI13LoopVariantIDSaIS0_EEPbdd
	.cfi_endproc
	.section	.rodata,"a",@progbits
	.p2align	2, 0x0
.LJTI1_0:
	.word	.LBB1_99-.LJTI1_0
	.word	.LBB1_143-.LJTI1_0
	.word	.LBB1_124-.LJTI1_0
	.word	.LBB1_132-.LJTI1_0
	.word	.LBB1_111-.LJTI1_0
	.word	.LBB1_155-.LJTI1_0
	.word	.LBB1_173-.LJTI1_0
	.word	.LBB1_137-.LJTI1_0
	.word	.LBB1_185-.LJTI1_0
	.word	.LBB1_115-.LJTI1_0
	.word	.LBB1_181-.LJTI1_0
	.word	.LBB1_110-.LJTI1_0
	.word	.LBB1_112-.LJTI1_0
	.word	.LBB1_170-.LJTI1_0
	.word	.LBB1_107-.LJTI1_0
	.word	.LBB1_129-.LJTI1_0
	.word	.LBB1_104-.LJTI1_0
	.word	.LBB1_149-.LJTI1_0
	.word	.LBB1_178-.LJTI1_0
	.word	.LBB1_201-.LJTI1_0
	.word	.LBB1_152-.LJTI1_0
	.word	.LBB1_167-.LJTI1_0
	.word	.LBB1_197-.LJTI1_0
	.word	.LBB1_204-.LJTI1_0
	.word	.LBB1_121-.LJTI1_0
	.word	.LBB1_118-.LJTI1_0
	.word	.LBB1_214-.LJTI1_0
	.word	.LBB1_101-.LJTI1_0
	.word	.LBB1_208-.LJTI1_0
	.word	.LBB1_211-.LJTI1_0
	.word	.LBB1_189-.LJTI1_0
	.word	.LBB1_146-.LJTI1_0
	.word	.LBB1_194-.LJTI1_0
	.section	.gcc_except_table,"a",@progbits
	.p2align	2, 0x0
GCC_except_table1:
.Lexception0:
	.byte	255                             # @LPStart Encoding = omit
	.byte	255                             # @TType Encoding = omit
	.byte	1                               # Call site Encoding = uleb128
	.uleb128 .Lcst_end0-.Lcst_begin0
.Lcst_begin0:
	.uleb128 .Lfunc_begin0-.Lfunc_begin0    # >> Call Site 1 <<
	.uleb128 .Ltmp0-.Lfunc_begin0           #   Call between .Lfunc_begin0 and .Ltmp0
	.byte	0                               #     has no landing pad
	.byte	0                               #   On action: cleanup
	.uleb128 .Ltmp0-.Lfunc_begin0           # >> Call Site 2 <<
	.uleb128 .Ltmp1-.Ltmp0                  #   Call between .Ltmp0 and .Ltmp1
	.uleb128 .Ltmp2-.Lfunc_begin0           #     jumps to .Ltmp2
	.byte	0                               #   On action: cleanup
	.uleb128 .Ltmp1-.Lfunc_begin0           # >> Call Site 3 <<
	.uleb128 .Ltmp3-.Ltmp1                  #   Call between .Ltmp1 and .Ltmp3
	.byte	0                               #     has no landing pad
	.byte	0                               #   On action: cleanup
	.uleb128 .Ltmp3-.Lfunc_begin0           # >> Call Site 4 <<
	.uleb128 .Ltmp8-.Ltmp3                  #   Call between .Ltmp3 and .Ltmp8
	.uleb128 .Ltmp17-.Lfunc_begin0          #     jumps to .Ltmp17
	.byte	0                               #   On action: cleanup
	.uleb128 .Ltmp8-.Lfunc_begin0           # >> Call Site 5 <<
	.uleb128 .Ltmp9-.Ltmp8                  #   Call between .Ltmp8 and .Ltmp9
	.byte	0                               #     has no landing pad
	.byte	0                               #   On action: cleanup
	.uleb128 .Ltmp9-.Lfunc_begin0           # >> Call Site 6 <<
	.uleb128 .Ltmp10-.Ltmp9                 #   Call between .Ltmp9 and .Ltmp10
	.uleb128 .Ltmp17-.Lfunc_begin0          #     jumps to .Ltmp17
	.byte	0                               #   On action: cleanup
	.uleb128 .Ltmp10-.Lfunc_begin0          # >> Call Site 7 <<
	.uleb128 .Ltmp11-.Ltmp10                #   Call between .Ltmp10 and .Ltmp11
	.byte	0                               #     has no landing pad
	.byte	0                               #   On action: cleanup
	.uleb128 .Ltmp11-.Lfunc_begin0          # >> Call Site 8 <<
	.uleb128 .Ltmp12-.Ltmp11                #   Call between .Ltmp11 and .Ltmp12
	.uleb128 .Ltmp17-.Lfunc_begin0          #     jumps to .Ltmp17
	.byte	0                               #   On action: cleanup
	.uleb128 .Ltmp12-.Lfunc_begin0          # >> Call Site 9 <<
	.uleb128 .Ltmp13-.Ltmp12                #   Call between .Ltmp12 and .Ltmp13
	.byte	0                               #     has no landing pad
	.byte	0                               #   On action: cleanup
	.uleb128 .Ltmp13-.Lfunc_begin0          # >> Call Site 10 <<
	.uleb128 .Ltmp14-.Ltmp13                #   Call between .Ltmp13 and .Ltmp14
	.uleb128 .Ltmp17-.Lfunc_begin0          #     jumps to .Ltmp17
	.byte	0                               #   On action: cleanup
	.uleb128 .Ltmp14-.Lfunc_begin0          # >> Call Site 11 <<
	.uleb128 .Ltmp15-.Ltmp14                #   Call between .Ltmp14 and .Ltmp15
	.byte	0                               #     has no landing pad
	.byte	0                               #   On action: cleanup
	.uleb128 .Ltmp15-.Lfunc_begin0          # >> Call Site 12 <<
	.uleb128 .Ltmp16-.Ltmp15                #   Call between .Ltmp15 and .Ltmp16
	.uleb128 .Ltmp17-.Lfunc_begin0          #     jumps to .Ltmp17
	.byte	0                               #   On action: cleanup
	.uleb128 .Ltmp16-.Lfunc_begin0          # >> Call Site 13 <<
	.uleb128 .Ltmp30-.Ltmp16                #   Call between .Ltmp16 and .Ltmp30
	.byte	0                               #     has no landing pad
	.byte	0                               #   On action: cleanup
	.uleb128 .Ltmp30-.Lfunc_begin0          # >> Call Site 14 <<
	.uleb128 .Ltmp31-.Ltmp30                #   Call between .Ltmp30 and .Ltmp31
	.uleb128 .Ltmp32-.Lfunc_begin0          #     jumps to .Ltmp32
	.byte	0                               #   On action: cleanup
	.uleb128 .Ltmp18-.Lfunc_begin0          # >> Call Site 15 <<
	.uleb128 .Ltmp19-.Ltmp18                #   Call between .Ltmp18 and .Ltmp19
	.uleb128 .Ltmp20-.Lfunc_begin0          #     jumps to .Ltmp20
	.byte	0                               #   On action: cleanup
	.uleb128 .Ltmp21-.Lfunc_begin0          # >> Call Site 16 <<
	.uleb128 .Ltmp22-.Ltmp21                #   Call between .Ltmp21 and .Ltmp22
	.uleb128 .Ltmp23-.Lfunc_begin0          #     jumps to .Ltmp23
	.byte	0                               #   On action: cleanup
	.uleb128 .Ltmp24-.Lfunc_begin0          # >> Call Site 17 <<
	.uleb128 .Ltmp25-.Ltmp24                #   Call between .Ltmp24 and .Ltmp25
	.uleb128 .Ltmp26-.Lfunc_begin0          #     jumps to .Ltmp26
	.byte	0                               #   On action: cleanup
	.uleb128 .Ltmp27-.Lfunc_begin0          # >> Call Site 18 <<
	.uleb128 .Ltmp28-.Ltmp27                #   Call between .Ltmp27 and .Ltmp28
	.uleb128 .Ltmp29-.Lfunc_begin0          #     jumps to .Ltmp29
	.byte	0                               #   On action: cleanup
	.uleb128 .Ltmp33-.Lfunc_begin0          # >> Call Site 19 <<
	.uleb128 .Ltmp34-.Ltmp33                #   Call between .Ltmp33 and .Ltmp34
	.uleb128 .Ltmp35-.Lfunc_begin0          #     jumps to .Ltmp35
	.byte	0                               #   On action: cleanup
	.uleb128 .Ltmp36-.Lfunc_begin0          # >> Call Site 20 <<
	.uleb128 .Ltmp37-.Ltmp36                #   Call between .Ltmp36 and .Ltmp37
	.uleb128 .Ltmp38-.Lfunc_begin0          #     jumps to .Ltmp38
	.byte	0                               #   On action: cleanup
	.uleb128 .Ltmp37-.Lfunc_begin0          # >> Call Site 21 <<
	.uleb128 .Ltmp57-.Ltmp37                #   Call between .Ltmp37 and .Ltmp57
	.byte	0                               #     has no landing pad
	.byte	0                               #   On action: cleanup
	.uleb128 .Ltmp57-.Lfunc_begin0          # >> Call Site 22 <<
	.uleb128 .Ltmp58-.Ltmp57                #   Call between .Ltmp57 and .Ltmp58
	.uleb128 .Ltmp59-.Lfunc_begin0          #     jumps to .Ltmp59
	.byte	0                               #   On action: cleanup
	.uleb128 .Ltmp58-.Lfunc_begin0          # >> Call Site 23 <<
	.uleb128 .Ltmp39-.Ltmp58                #   Call between .Ltmp58 and .Ltmp39
	.byte	0                               #     has no landing pad
	.byte	0                               #   On action: cleanup
	.uleb128 .Ltmp39-.Lfunc_begin0          # >> Call Site 24 <<
	.uleb128 .Ltmp40-.Ltmp39                #   Call between .Ltmp39 and .Ltmp40
	.uleb128 .Ltmp41-.Lfunc_begin0          #     jumps to .Ltmp41
	.byte	0                               #   On action: cleanup
	.uleb128 .Ltmp42-.Lfunc_begin0          # >> Call Site 25 <<
	.uleb128 .Ltmp43-.Ltmp42                #   Call between .Ltmp42 and .Ltmp43
	.uleb128 .Ltmp44-.Lfunc_begin0          #     jumps to .Ltmp44
	.byte	0                               #   On action: cleanup
	.uleb128 .Ltmp45-.Lfunc_begin0          # >> Call Site 26 <<
	.uleb128 .Ltmp46-.Ltmp45                #   Call between .Ltmp45 and .Ltmp46
	.uleb128 .Ltmp47-.Lfunc_begin0          #     jumps to .Ltmp47
	.byte	0                               #   On action: cleanup
	.uleb128 .Ltmp46-.Lfunc_begin0          # >> Call Site 27 <<
	.uleb128 .Ltmp48-.Ltmp46                #   Call between .Ltmp46 and .Ltmp48
	.byte	0                               #     has no landing pad
	.byte	0                               #   On action: cleanup
	.uleb128 .Ltmp48-.Lfunc_begin0          # >> Call Site 28 <<
	.uleb128 .Ltmp49-.Ltmp48                #   Call between .Ltmp48 and .Ltmp49
	.uleb128 .Ltmp50-.Lfunc_begin0          #     jumps to .Ltmp50
	.byte	0                               #   On action: cleanup
	.uleb128 .Ltmp51-.Lfunc_begin0          # >> Call Site 29 <<
	.uleb128 .Ltmp52-.Ltmp51                #   Call between .Ltmp51 and .Ltmp52
	.uleb128 .Ltmp53-.Lfunc_begin0          #     jumps to .Ltmp53
	.byte	0                               #   On action: cleanup
	.uleb128 .Ltmp54-.Lfunc_begin0          # >> Call Site 30 <<
	.uleb128 .Ltmp55-.Ltmp54                #   Call between .Ltmp54 and .Ltmp55
	.uleb128 .Ltmp56-.Lfunc_begin0          #     jumps to .Ltmp56
	.byte	0                               #   On action: cleanup
	.uleb128 .Ltmp55-.Lfunc_begin0          # >> Call Site 31 <<
	.uleb128 .Ltmp60-.Ltmp55                #   Call between .Ltmp55 and .Ltmp60
	.byte	0                               #     has no landing pad
	.byte	0                               #   On action: cleanup
	.uleb128 .Ltmp60-.Lfunc_begin0          # >> Call Site 32 <<
	.uleb128 .Ltmp75-.Ltmp60                #   Call between .Ltmp60 and .Ltmp75
	.uleb128 .Ltmp76-.Lfunc_begin0          #     jumps to .Ltmp76
	.byte	0                               #   On action: cleanup
	.uleb128 .Ltmp75-.Lfunc_begin0          # >> Call Site 33 <<
	.uleb128 .Ltmp81-.Ltmp75                #   Call between .Ltmp75 and .Ltmp81
	.byte	0                               #     has no landing pad
	.byte	0                               #   On action: cleanup
	.uleb128 .Ltmp81-.Lfunc_begin0          # >> Call Site 34 <<
	.uleb128 .Ltmp80-.Ltmp81                #   Call between .Ltmp81 and .Ltmp80
	.uleb128 .Ltmp83-.Lfunc_begin0          #     jumps to .Ltmp83
	.byte	0                               #   On action: cleanup
	.uleb128 .Ltmp80-.Lfunc_begin0          # >> Call Site 35 <<
	.uleb128 .Ltmp87-.Ltmp80                #   Call between .Ltmp80 and .Ltmp87
	.byte	0                               #     has no landing pad
	.byte	0                               #   On action: cleanup
	.uleb128 .Ltmp87-.Lfunc_begin0          # >> Call Site 36 <<
	.uleb128 .Ltmp88-.Ltmp87                #   Call between .Ltmp87 and .Ltmp88
	.uleb128 .Ltmp89-.Lfunc_begin0          #     jumps to .Ltmp89
	.byte	0                               #   On action: cleanup
	.uleb128 .Ltmp88-.Lfunc_begin0          # >> Call Site 37 <<
	.uleb128 .Ltmp84-.Ltmp88                #   Call between .Ltmp88 and .Ltmp84
	.byte	0                               #     has no landing pad
	.byte	0                               #   On action: cleanup
	.uleb128 .Ltmp84-.Lfunc_begin0          # >> Call Site 38 <<
	.uleb128 .Ltmp85-.Ltmp84                #   Call between .Ltmp84 and .Ltmp85
	.uleb128 .Ltmp86-.Lfunc_begin0          #     jumps to .Ltmp86
	.byte	0                               #   On action: cleanup
	.uleb128 .Ltmp85-.Lfunc_begin0          # >> Call Site 39 <<
	.uleb128 .Lfunc_end1-.Ltmp85            #   Call between .Ltmp85 and .Lfunc_end1
	.byte	0                               #     has no landing pad
	.byte	0                               #   On action: cleanup
.Lcst_end0:
	.p2align	2, 0x0
                                        # -- End function
	.text
	.globl	_Z15getVariantNamesB5cxx11RKSt6vectorI13LoopVariantIDSaIS0_EE # -- Begin function _Z15getVariantNamesB5cxx11RKSt6vectorI13LoopVariantIDSaIS0_EE
	.p2align	5
	.type	_Z15getVariantNamesB5cxx11RKSt6vectorI13LoopVariantIDSaIS0_EE,@function
_Z15getVariantNamesB5cxx11RKSt6vectorI13LoopVariantIDSaIS0_EE: # @_Z15getVariantNamesB5cxx11RKSt6vectorI13LoopVariantIDSaIS0_EE
.Lfunc_begin1:
	.cfi_startproc
	.cfi_personality 155, DW.ref.__gxx_personality_v0
	.cfi_lsda 27, .Lexception1
# %bb.0:
	addi.d	$sp, $sp, -128
	.cfi_def_cfa_offset 128
	st.d	$ra, $sp, 120                   # 8-byte Folded Spill
	st.d	$fp, $sp, 112                   # 8-byte Folded Spill
	st.d	$s0, $sp, 104                   # 8-byte Folded Spill
	st.d	$s1, $sp, 96                    # 8-byte Folded Spill
	st.d	$s2, $sp, 88                    # 8-byte Folded Spill
	st.d	$s3, $sp, 80                    # 8-byte Folded Spill
	st.d	$s4, $sp, 72                    # 8-byte Folded Spill
	st.d	$s5, $sp, 64                    # 8-byte Folded Spill
	st.d	$s6, $sp, 56                    # 8-byte Folded Spill
	st.d	$s7, $sp, 48                    # 8-byte Folded Spill
	.cfi_offset 1, -8
	.cfi_offset 22, -16
	.cfi_offset 23, -24
	.cfi_offset 24, -32
	.cfi_offset 25, -40
	.cfi_offset 26, -48
	.cfi_offset 27, -56
	.cfi_offset 28, -64
	.cfi_offset 29, -72
	.cfi_offset 30, -80
	move	$s0, $a1
	ld.d	$a2, $a1, 8
	ld.d	$a1, $a1, 0
	st.d	$zero, $a0, 16
	vrepli.b	$vr0, 0
	vst	$vr0, $a0, 0
	beq	$a2, $a1, .LBB2_16
# %bb.1:                                # %.lr.ph
	move	$fp, $a0
	move	$a0, $zero
	ori	$s5, $zero, 1
	addi.d	$s4, $sp, 24
	ori	$s6, $zero, 16
	ori	$s7, $zero, 1
	b	.LBB2_3
	.p2align	4, , 16
.LBB2_2:                                # %_ZNSt7__cxx1112basic_stringIcSt11char_traitsIcESaIcEED2Ev.exit
                                        #   in Loop: Header=BB2_3 Depth=1
	ld.d	$a2, $s0, 8
	ld.d	$a1, $s0, 0
	bstrpick.d	$a0, $s7, 31, 0
	sub.d	$a2, $a2, $a1
	srai.d	$a2, $a2, 2
	addi.w	$s7, $s7, 1
	bgeu	$a0, $a2, .LBB2_16
.LBB2_3:                                # =>This Inner Loop Header: Depth=1
	slli.d	$a0, $a0, 2
	ldx.w	$a1, $a1, $a0
.Ltmp90:                                # EH_LABEL
	addi.d	$a0, $sp, 8
	pcaddu18i	$ra, %call36(_Z14getVariantNameB5cxx1113LoopVariantID)
	jirl	$ra, $ra, 0
.Ltmp91:                                # EH_LABEL
# %bb.4:                                #   in Loop: Header=BB2_3 Depth=1
	ld.d	$s1, $fp, 8
	ld.d	$a0, $fp, 16
	beq	$s1, $a0, .LBB2_11
# %bb.5:                                #   in Loop: Header=BB2_3 Depth=1
	addi.d	$a0, $s1, 16
	st.d	$a0, $s1, 0
	ld.d	$s2, $sp, 16
	ld.d	$s3, $sp, 8
	st.d	$s2, $sp, 40
	bltu	$s2, $s6, .LBB2_8
# %bb.6:                                # %.noexc.i.i
                                        #   in Loop: Header=BB2_3 Depth=1
.Ltmp93:                                # EH_LABEL
	addi.d	$a1, $sp, 40
	move	$a0, $s1
	move	$a2, $zero
	pcaddu18i	$ra, %call36(_ZNSt7__cxx1112basic_stringIcSt11char_traitsIcESaIcEE9_M_createERmm)
	jirl	$ra, $ra, 0
.Ltmp94:                                # EH_LABEL
# %bb.7:                                # %.noexc
                                        #   in Loop: Header=BB2_3 Depth=1
	ld.d	$a1, $sp, 40
	st.d	$a0, $s1, 0
	st.d	$a1, $s1, 16
.LBB2_8:                                # %._crit_edge.i.i.i
                                        #   in Loop: Header=BB2_3 Depth=1
	beqz	$s2, .LBB2_14
# %bb.9:                                # %._crit_edge.i.i.i
                                        #   in Loop: Header=BB2_3 Depth=1
	bne	$s2, $s5, .LBB2_13
# %bb.10:                               #   in Loop: Header=BB2_3 Depth=1
	ld.b	$a1, $s3, 0
	st.b	$a1, $a0, 0
	b	.LBB2_14
	.p2align	4, , 16
.LBB2_11:                               #   in Loop: Header=BB2_3 Depth=1
.Ltmp95:                                # EH_LABEL
	addi.d	$a1, $sp, 8
	move	$a0, $fp
	pcaddu18i	$ra, %call36(_ZNSt6vectorINSt7__cxx1112basic_stringIcSt11char_traitsIcESaIcEEESaIS5_EE17_M_realloc_appendIJRKS5_EEEvDpOT_)
	jirl	$ra, $ra, 0
.Ltmp96:                                # EH_LABEL
# %bb.12:                               # %_ZNSt6vectorINSt7__cxx1112basic_stringIcSt11char_traitsIcESaIcEEESaIS5_EE9push_backERKS5_.exit
                                        #   in Loop: Header=BB2_3 Depth=1
	ld.d	$a0, $sp, 8
	bne	$a0, $s4, .LBB2_15
	b	.LBB2_2
	.p2align	4, , 16
.LBB2_13:                               #   in Loop: Header=BB2_3 Depth=1
	move	$a1, $s3
	move	$a2, $s2
	pcaddu18i	$ra, %call36(memcpy)
	jirl	$ra, $ra, 0
.LBB2_14:                               # %_ZNSt7__cxx1112basic_stringIcSt11char_traitsIcESaIcEEC2ERKS4_.exit.i
                                        #   in Loop: Header=BB2_3 Depth=1
	ld.d	$a0, $sp, 40
	ld.d	$a1, $s1, 0
	st.d	$a0, $s1, 8
	stx.b	$zero, $a1, $a0
	ld.d	$a0, $fp, 8
	addi.d	$a0, $a0, 32
	st.d	$a0, $fp, 8
	ld.d	$a0, $sp, 8
	beq	$a0, $s4, .LBB2_2
.LBB2_15:                               # %_ZNKSt7__cxx1112basic_stringIcSt11char_traitsIcESaIcEE11_M_is_localEv.exit.i.i
                                        #   in Loop: Header=BB2_3 Depth=1
	pcaddu18i	$ra, %call36(_ZdlPv)
	jirl	$ra, $ra, 0
	b	.LBB2_2
.LBB2_16:                               # %._crit_edge
	ld.d	$s7, $sp, 48                    # 8-byte Folded Reload
	ld.d	$s6, $sp, 56                    # 8-byte Folded Reload
	ld.d	$s5, $sp, 64                    # 8-byte Folded Reload
	ld.d	$s4, $sp, 72                    # 8-byte Folded Reload
	ld.d	$s3, $sp, 80                    # 8-byte Folded Reload
	ld.d	$s2, $sp, 88                    # 8-byte Folded Reload
	ld.d	$s1, $sp, 96                    # 8-byte Folded Reload
	ld.d	$s0, $sp, 104                   # 8-byte Folded Reload
	ld.d	$fp, $sp, 112                   # 8-byte Folded Reload
	ld.d	$ra, $sp, 120                   # 8-byte Folded Reload
	addi.d	$sp, $sp, 128
	ret
.LBB2_17:
.Ltmp97:                                # EH_LABEL
	ld.d	$a1, $sp, 8
	move	$s0, $a0
	beq	$a1, $s4, .LBB2_20
# %bb.18:                               # %_ZNKSt7__cxx1112basic_stringIcSt11char_traitsIcESaIcEE11_M_is_localEv.exit.i.i12
	move	$a0, $a1
	pcaddu18i	$ra, %call36(_ZdlPv)
	jirl	$ra, $ra, 0
	b	.LBB2_20
.LBB2_19:
.Ltmp92:                                # EH_LABEL
	move	$s0, $a0
.LBB2_20:                               # %_ZNSt7__cxx1112basic_stringIcSt11char_traitsIcESaIcEED2Ev.exit14
	move	$a0, $fp
	pcaddu18i	$ra, %call36(_ZNSt6vectorINSt7__cxx1112basic_stringIcSt11char_traitsIcESaIcEEESaIS5_EED2Ev)
	jirl	$ra, $ra, 0
	move	$a0, $s0
	pcaddu18i	$ra, %call36(_Unwind_Resume)
	jirl	$ra, $ra, 0
.Lfunc_end2:
	.size	_Z15getVariantNamesB5cxx11RKSt6vectorI13LoopVariantIDSaIS0_EE, .Lfunc_end2-_Z15getVariantNamesB5cxx11RKSt6vectorI13LoopVariantIDSaIS0_EE
	.cfi_endproc
	.section	.gcc_except_table,"a",@progbits
	.p2align	2, 0x0
GCC_except_table2:
.Lexception1:
	.byte	255                             # @LPStart Encoding = omit
	.byte	255                             # @TType Encoding = omit
	.byte	1                               # Call site Encoding = uleb128
	.uleb128 .Lcst_end1-.Lcst_begin1
.Lcst_begin1:
	.uleb128 .Ltmp90-.Lfunc_begin1          # >> Call Site 1 <<
	.uleb128 .Ltmp91-.Ltmp90                #   Call between .Ltmp90 and .Ltmp91
	.uleb128 .Ltmp92-.Lfunc_begin1          #     jumps to .Ltmp92
	.byte	0                               #   On action: cleanup
	.uleb128 .Ltmp93-.Lfunc_begin1          # >> Call Site 2 <<
	.uleb128 .Ltmp96-.Ltmp93                #   Call between .Ltmp93 and .Ltmp96
	.uleb128 .Ltmp97-.Lfunc_begin1          #     jumps to .Ltmp97
	.byte	0                               #   On action: cleanup
	.uleb128 .Ltmp96-.Lfunc_begin1          # >> Call Site 3 <<
	.uleb128 .Lfunc_end2-.Ltmp96            #   Call between .Ltmp96 and .Lfunc_end2
	.byte	0                               #     has no landing pad
	.byte	0                               #   On action: cleanup
.Lcst_end1:
	.p2align	2, 0x0
                                        # -- End function
	.section	.text._ZN16LoopSuiteRunInfo12addLoopStatsERKNSt7__cxx1112basic_stringIcSt11char_traitsIcESaIcEEE,"axG",@progbits,_ZN16LoopSuiteRunInfo12addLoopStatsERKNSt7__cxx1112basic_stringIcSt11char_traitsIcESaIcEEE,comdat
	.weak	_ZN16LoopSuiteRunInfo12addLoopStatsERKNSt7__cxx1112basic_stringIcSt11char_traitsIcESaIcEEE # -- Begin function _ZN16LoopSuiteRunInfo12addLoopStatsERKNSt7__cxx1112basic_stringIcSt11char_traitsIcESaIcEEE
	.p2align	5
	.type	_ZN16LoopSuiteRunInfo12addLoopStatsERKNSt7__cxx1112basic_stringIcSt11char_traitsIcESaIcEEE,@function
_ZN16LoopSuiteRunInfo12addLoopStatsERKNSt7__cxx1112basic_stringIcSt11char_traitsIcESaIcEEE: # @_ZN16LoopSuiteRunInfo12addLoopStatsERKNSt7__cxx1112basic_stringIcSt11char_traitsIcESaIcEEE
.Lfunc_begin2:
	.cfi_startproc
	.cfi_personality 155, DW.ref.__gxx_personality_v0
	.cfi_lsda 27, .Lexception2
# %bb.0:
	addi.d	$sp, $sp, -112
	.cfi_def_cfa_offset 112
	st.d	$ra, $sp, 104                   # 8-byte Folded Spill
	st.d	$fp, $sp, 96                    # 8-byte Folded Spill
	st.d	$s0, $sp, 88                    # 8-byte Folded Spill
	st.d	$s1, $sp, 80                    # 8-byte Folded Spill
	st.d	$s2, $sp, 72                    # 8-byte Folded Spill
	st.d	$s3, $sp, 64                    # 8-byte Folded Spill
	.cfi_offset 1, -8
	.cfi_offset 22, -16
	.cfi_offset 23, -24
	.cfi_offset 24, -32
	.cfi_offset 25, -40
	.cfi_offset 26, -48
	move	$s2, $a1
	move	$s0, $a0
	ori	$a0, $zero, 24
	pcaddu18i	$ra, %call36(_Znwm)
	jirl	$ra, $ra, 0
	move	$fp, $a0
	st.d	$zero, $a0, 0
	vrepli.b	$vr0, 0
	vst	$vr0, $a0, 8
	addi.d	$s3, $sp, 32
	ld.d	$s1, $s2, 8
	ld.d	$s2, $s2, 0
	st.d	$s3, $sp, 16
	ori	$a0, $zero, 16
	st.d	$s1, $sp, 56
	move	$a1, $s3
	bltu	$s1, $a0, .LBB3_2
# %bb.1:                                # %.noexc.i.i
	addi.d	$a0, $sp, 16
	addi.d	$a1, $sp, 56
	move	$a2, $zero
	pcaddu18i	$ra, %call36(_ZNSt7__cxx1112basic_stringIcSt11char_traitsIcESaIcEE9_M_createERmm)
	jirl	$ra, $ra, 0
	ld.d	$a2, $sp, 56
	move	$a1, $a0
	st.d	$a0, $sp, 16
	st.d	$a2, $sp, 32
.LBB3_2:                                # %._crit_edge.i.i.i
	addi.d	$a0, $s0, 592
	beqz	$s1, .LBB3_6
# %bb.3:                                # %._crit_edge.i.i.i
	ori	$a2, $zero, 1
	bne	$s1, $a2, .LBB3_5
# %bb.4:
	ld.b	$a2, $s2, 0
	st.b	$a2, $a1, 0
	b	.LBB3_6
.LBB3_5:
	move	$s0, $a0
	move	$a0, $a1
	move	$a1, $s2
	move	$a2, $s1
	pcaddu18i	$ra, %call36(memcpy)
	jirl	$ra, $ra, 0
	move	$a0, $s0
.LBB3_6:                                # %_ZNSt4pairIKNSt7__cxx1112basic_stringIcSt11char_traitsIcESaIcEEEPSt6vectorI8LoopStatSaIS8_EEEC2IRS6_RSB_TnNSt9enable_ifIXaaclsr5_PCCPE22_MoveConstructiblePairIT_T0_EEclsr5_PCCPE30_ImplicitlyMoveConvertiblePairISH_SI_EEEbE4typeELb1EEEOSH_OSI_.exit
	ld.d	$a1, $sp, 56
	ld.d	$a2, $sp, 16
	st.d	$a1, $sp, 24
	stx.b	$zero, $a2, $a1
	st.d	$fp, $sp, 48
.Ltmp98:                                # EH_LABEL
	addi.d	$a1, $sp, 16
	pcaddu18i	$ra, %call36(_ZNSt8_Rb_treeINSt7__cxx1112basic_stringIcSt11char_traitsIcESaIcEEESt4pairIKS5_PSt6vectorI8LoopStatSaIS9_EEESt10_Select1stISD_ESt4lessIS5_ESaISD_EE16_M_insert_uniqueISD_EES6_ISt17_Rb_tree_iteratorISD_EbEOT_)
	jirl	$ra, $ra, 0
.Ltmp99:                                # EH_LABEL
# %bb.7:
	ld.d	$a0, $sp, 16
	beq	$a0, $s3, .LBB3_9
# %bb.8:                                # %_ZNKSt7__cxx1112basic_stringIcSt11char_traitsIcESaIcEE11_M_is_localEv.exit.i.i.i
	pcaddu18i	$ra, %call36(_ZdlPv)
	jirl	$ra, $ra, 0
.LBB3_9:                                # %_ZNSt4pairIKNSt7__cxx1112basic_stringIcSt11char_traitsIcESaIcEEEPSt6vectorI8LoopStatSaIS8_EEED2Ev.exit
	ld.d	$s3, $sp, 64                    # 8-byte Folded Reload
	ld.d	$s2, $sp, 72                    # 8-byte Folded Reload
	ld.d	$s1, $sp, 80                    # 8-byte Folded Reload
	ld.d	$s0, $sp, 88                    # 8-byte Folded Reload
	ld.d	$fp, $sp, 96                    # 8-byte Folded Reload
	ld.d	$ra, $sp, 104                   # 8-byte Folded Reload
	addi.d	$sp, $sp, 112
	ret
.LBB3_10:
.Ltmp100:                               # EH_LABEL
	ld.d	$a1, $sp, 16
	move	$fp, $a0
	beq	$a1, $s3, .LBB3_12
# %bb.11:                               # %_ZNKSt7__cxx1112basic_stringIcSt11char_traitsIcESaIcEE11_M_is_localEv.exit.i.i.i3
	move	$a0, $a1
	pcaddu18i	$ra, %call36(_ZdlPv)
	jirl	$ra, $ra, 0
.LBB3_12:                               # %_ZNSt4pairIKNSt7__cxx1112basic_stringIcSt11char_traitsIcESaIcEEEPSt6vectorI8LoopStatSaIS8_EEED2Ev.exit5
	move	$a0, $fp
	pcaddu18i	$ra, %call36(_Unwind_Resume)
	jirl	$ra, $ra, 0
.Lfunc_end3:
	.size	_ZN16LoopSuiteRunInfo12addLoopStatsERKNSt7__cxx1112basic_stringIcSt11char_traitsIcESaIcEEE, .Lfunc_end3-_ZN16LoopSuiteRunInfo12addLoopStatsERKNSt7__cxx1112basic_stringIcSt11char_traitsIcESaIcEEE
	.cfi_endproc
	.section	.gcc_except_table._ZN16LoopSuiteRunInfo12addLoopStatsERKNSt7__cxx1112basic_stringIcSt11char_traitsIcESaIcEEE,"aG",@progbits,_ZN16LoopSuiteRunInfo12addLoopStatsERKNSt7__cxx1112basic_stringIcSt11char_traitsIcESaIcEEE,comdat
	.p2align	2, 0x0
GCC_except_table3:
.Lexception2:
	.byte	255                             # @LPStart Encoding = omit
	.byte	255                             # @TType Encoding = omit
	.byte	1                               # Call site Encoding = uleb128
	.uleb128 .Lcst_end2-.Lcst_begin2
.Lcst_begin2:
	.uleb128 .Lfunc_begin2-.Lfunc_begin2    # >> Call Site 1 <<
	.uleb128 .Ltmp98-.Lfunc_begin2          #   Call between .Lfunc_begin2 and .Ltmp98
	.byte	0                               #     has no landing pad
	.byte	0                               #   On action: cleanup
	.uleb128 .Ltmp98-.Lfunc_begin2          # >> Call Site 2 <<
	.uleb128 .Ltmp99-.Ltmp98                #   Call between .Ltmp98 and .Ltmp99
	.uleb128 .Ltmp100-.Lfunc_begin2         #     jumps to .Ltmp100
	.byte	0                               #   On action: cleanup
	.uleb128 .Ltmp99-.Lfunc_begin2          # >> Call Site 3 <<
	.uleb128 .Lfunc_end3-.Ltmp99            #   Call between .Ltmp99 and .Lfunc_end3
	.byte	0                               #     has no landing pad
	.byte	0                               #   On action: cleanup
.Lcst_end2:
	.p2align	2, 0x0
                                        # -- End function
	.section	.text._ZN8LoopStatC2Ej,"axG",@progbits,_ZN8LoopStatC2Ej,comdat
	.weak	_ZN8LoopStatC2Ej                # -- Begin function _ZN8LoopStatC2Ej
	.p2align	5
	.type	_ZN8LoopStatC2Ej,@function
_ZN8LoopStatC2Ej:                       # @_ZN8LoopStatC2Ej
.Lfunc_begin3:
	.cfi_startproc
	.cfi_personality 155, DW.ref.__gxx_personality_v0
	.cfi_lsda 27, .Lexception3
# %bb.0:
	addi.d	$sp, $sp, -96
	.cfi_def_cfa_offset 96
	st.d	$ra, $sp, 88                    # 8-byte Folded Spill
	st.d	$fp, $sp, 80                    # 8-byte Folded Spill
	st.d	$s0, $sp, 72                    # 8-byte Folded Spill
	st.d	$s1, $sp, 64                    # 8-byte Folded Spill
	st.d	$s2, $sp, 56                    # 8-byte Folded Spill
	st.d	$s3, $sp, 48                    # 8-byte Folded Spill
	st.d	$s4, $sp, 40                    # 8-byte Folded Spill
	st.d	$s5, $sp, 32                    # 8-byte Folded Spill
	.cfi_offset 1, -8
	.cfi_offset 22, -16
	.cfi_offset 23, -24
	.cfi_offset 24, -32
	.cfi_offset 25, -40
	.cfi_offset 26, -48
	.cfi_offset 27, -56
	.cfi_offset 28, -64
	move	$fp, $a0
	st.b	$zero, $a0, 0
	addi.d	$s0, $a0, 16
	vrepli.b	$vr0, 0
	vst	$vr0, $a0, 8
	vst	$vr0, $sp, 16                   # 16-byte Folded Spill
	vst	$vr0, $a0, 24
	beqz	$a1, .LBB4_12
# %bb.1:                                # %.lr.ph.preheader.i.i.i.i.i
	bstrpick.d	$s5, $a1, 31, 0
	alsl.d	$a0, $s5, $s5, 1
	slli.d	$s1, $a0, 3
	move	$a0, $s1
	pcaddu18i	$ra, %call36(_Znwm)
	jirl	$ra, $ra, 0
	st.d	$a0, $fp, 16
	add.d	$s2, $a0, $s1
	move	$a1, $zero
	move	$a2, $s1
	pcaddu18i	$ra, %call36(memset)
	jirl	$ra, $ra, 0
	st.d	$s2, $fp, 32
	st.d	$s2, $fp, 24
	st.d	$zero, $fp, 40
	vld	$vr0, $sp, 16                   # 16-byte Folded Reload
	vst	$vr0, $fp, 48
	slli.d	$s1, $s5, 3
.Ltmp101:                               # EH_LABEL
	move	$a0, $s1
	pcaddu18i	$ra, %call36(_Znwm)
	jirl	$ra, $ra, 0
.Ltmp102:                               # EH_LABEL
# %bb.2:                                # %.noexc34
	move	$s2, $a0
	st.d	$a0, $fp, 40
	alsl.d	$a0, $s5, $a0, 3
	st.d	$a0, $fp, 56
	move	$a0, $s2
	move	$a1, $zero
	move	$a2, $s1
	pcaddu18i	$ra, %call36(memset)
	jirl	$ra, $ra, 0
	add.d	$a0, $s2, $s1
	st.d	$a0, $fp, 48
	st.d	$zero, $fp, 64
	vld	$vr0, $sp, 16                   # 16-byte Folded Reload
	vst	$vr0, $fp, 72
	slli.d	$s1, $s5, 4
.Ltmp104:                               # EH_LABEL
	move	$a0, $s1
	pcaddu18i	$ra, %call36(_Znwm)
	jirl	$ra, $ra, 0
.Ltmp105:                               # EH_LABEL
# %bb.3:                                # %.noexc39
	move	$s2, $a0
	st.d	$a0, $fp, 64
	alsl.d	$a0, $s5, $a0, 4
	st.d	$a0, $fp, 80
	move	$a0, $s2
	move	$a1, $zero
	move	$a2, $s1
	pcaddu18i	$ra, %call36(memset)
	jirl	$ra, $ra, 0
	add.d	$a0, $s2, $s1
	st.d	$a0, $fp, 72
	st.d	$zero, $fp, 88
	vld	$vr0, $sp, 16                   # 16-byte Folded Reload
	vst	$vr0, $fp, 96
.Ltmp107:                               # EH_LABEL
	move	$a0, $s1
	pcaddu18i	$ra, %call36(_Znwm)
	jirl	$ra, $ra, 0
.Ltmp108:                               # EH_LABEL
# %bb.4:                                # %.noexc46
	move	$s2, $a0
	st.d	$a0, $fp, 88
	alsl.d	$a0, $s5, $a0, 4
	st.d	$a0, $fp, 104
	move	$a0, $s2
	move	$a1, $zero
	move	$a2, $s1
	pcaddu18i	$ra, %call36(memset)
	jirl	$ra, $ra, 0
	add.d	$a0, $s2, $s1
	st.d	$a0, $fp, 96
	st.d	$zero, $fp, 112
	vld	$vr0, $sp, 16                   # 16-byte Folded Reload
	vst	$vr0, $fp, 120
.Ltmp110:                               # EH_LABEL
	move	$a0, $s1
	pcaddu18i	$ra, %call36(_Znwm)
	jirl	$ra, $ra, 0
.Ltmp111:                               # EH_LABEL
# %bb.5:                                # %.noexc54
	move	$s2, $a0
	st.d	$a0, $fp, 112
	alsl.d	$a0, $s5, $a0, 4
	st.d	$a0, $fp, 128
	move	$a0, $s2
	move	$a1, $zero
	move	$a2, $s1
	pcaddu18i	$ra, %call36(memset)
	jirl	$ra, $ra, 0
	add.d	$a0, $s2, $s1
	st.d	$a0, $fp, 120
	st.d	$zero, $fp, 136
	vld	$vr0, $sp, 16                   # 16-byte Folded Reload
	vst	$vr0, $fp, 144
.Ltmp113:                               # EH_LABEL
	move	$a0, $s1
	pcaddu18i	$ra, %call36(_Znwm)
	jirl	$ra, $ra, 0
.Ltmp114:                               # EH_LABEL
# %bb.6:                                # %.noexc62
	move	$s2, $a0
	st.d	$a0, $fp, 136
	alsl.d	$a0, $s5, $a0, 4
	st.d	$a0, $fp, 152
	move	$a0, $s2
	move	$a1, $zero
	move	$a2, $s1
	pcaddu18i	$ra, %call36(memset)
	jirl	$ra, $ra, 0
	add.d	$a0, $s2, $s1
	st.d	$a0, $fp, 144
	st.d	$zero, $fp, 160
	vld	$vr0, $sp, 16                   # 16-byte Folded Reload
	vst	$vr0, $fp, 168
.Ltmp116:                               # EH_LABEL
	move	$a0, $s1
	pcaddu18i	$ra, %call36(_Znwm)
	jirl	$ra, $ra, 0
.Ltmp117:                               # EH_LABEL
# %bb.7:                                # %.noexc70
	move	$s2, $a0
	st.d	$a0, $fp, 160
	alsl.d	$a0, $s5, $a0, 4
	st.d	$a0, $fp, 176
	move	$a0, $s2
	move	$a1, $zero
	move	$a2, $s1
	pcaddu18i	$ra, %call36(memset)
	jirl	$ra, $ra, 0
	add.d	$a0, $s2, $s1
	st.d	$a0, $fp, 168
	st.d	$zero, $fp, 184
	vld	$vr0, $sp, 16                   # 16-byte Folded Reload
	vst	$vr0, $fp, 192
.Ltmp119:                               # EH_LABEL
	move	$a0, $s1
	pcaddu18i	$ra, %call36(_Znwm)
	jirl	$ra, $ra, 0
.Ltmp120:                               # EH_LABEL
# %bb.8:                                # %.noexc78
	move	$s2, $a0
	st.d	$a0, $fp, 184
	alsl.d	$a0, $s5, $a0, 4
	st.d	$a0, $fp, 200
	move	$a0, $s2
	move	$a1, $zero
	move	$a2, $s1
	pcaddu18i	$ra, %call36(memset)
	jirl	$ra, $ra, 0
	add.d	$a0, $s2, $s1
	st.d	$a0, $fp, 192
	st.d	$zero, $fp, 208
	vld	$vr0, $sp, 16                   # 16-byte Folded Reload
	vst	$vr0, $fp, 216
	slli.d	$s2, $s5, 2
.Ltmp122:                               # EH_LABEL
	move	$a0, $s2
	pcaddu18i	$ra, %call36(_Znwm)
	jirl	$ra, $ra, 0
.Ltmp123:                               # EH_LABEL
# %bb.9:                                # %.noexc85
	move	$s3, $a0
	st.d	$a0, $fp, 208
	alsl.d	$a0, $s5, $a0, 2
	st.d	$a0, $fp, 224
	move	$a0, $s3
	move	$a1, $zero
	move	$a2, $s2
	pcaddu18i	$ra, %call36(memset)
	jirl	$ra, $ra, 0
	add.d	$a0, $s3, $s2
	st.d	$a0, $fp, 216
	st.d	$zero, $fp, 232
	vld	$vr0, $sp, 16                   # 16-byte Folded Reload
	vst	$vr0, $fp, 240
.Ltmp125:                               # EH_LABEL
	move	$a0, $s2
	pcaddu18i	$ra, %call36(_Znwm)
	jirl	$ra, $ra, 0
.Ltmp126:                               # EH_LABEL
# %bb.10:                               # %.noexc92
	move	$s4, $a0
	addi.d	$s3, $fp, 208
	st.d	$a0, $fp, 232
	alsl.d	$a0, $s5, $a0, 2
	st.d	$a0, $fp, 248
	move	$a0, $s4
	move	$a1, $zero
	move	$a2, $s2
	pcaddu18i	$ra, %call36(memset)
	jirl	$ra, $ra, 0
	add.d	$a0, $s4, $s2
	st.d	$a0, $fp, 240
	st.d	$zero, $fp, 256
	vld	$vr0, $sp, 16                   # 16-byte Folded Reload
	vst	$vr0, $fp, 264
.Ltmp128:                               # EH_LABEL
	move	$a0, $s1
	pcaddu18i	$ra, %call36(_Znwm)
	jirl	$ra, $ra, 0
.Ltmp129:                               # EH_LABEL
# %bb.11:                               # %.noexc100
	move	$s2, $a0
	st.d	$a0, $fp, 256
	alsl.d	$a0, $s5, $a0, 4
	st.d	$a0, $fp, 272
	move	$a0, $s2
	move	$a1, $zero
	move	$a2, $s1
	pcaddu18i	$ra, %call36(memset)
	jirl	$ra, $ra, 0
	add.d	$a0, $s2, $s1
	b	.LBB4_13
.LBB4_12:                               # %_ZNSt12_Vector_baseIeSaIeEEC2EmRKS0_.exit.thread.i99
	ori	$a2, $zero, 264
	move	$a0, $s0
	move	$a1, $zero
	pcaddu18i	$ra, %call36(memset)
	jirl	$ra, $ra, 0
	move	$a0, $zero
.LBB4_13:                               # %.loopexit
	st.d	$a0, $fp, 264
	ld.d	$s5, $sp, 32                    # 8-byte Folded Reload
	ld.d	$s4, $sp, 40                    # 8-byte Folded Reload
	ld.d	$s3, $sp, 48                    # 8-byte Folded Reload
	ld.d	$s2, $sp, 56                    # 8-byte Folded Reload
	ld.d	$s1, $sp, 64                    # 8-byte Folded Reload
	ld.d	$s0, $sp, 72                    # 8-byte Folded Reload
	ld.d	$fp, $sp, 80                    # 8-byte Folded Reload
	ld.d	$ra, $sp, 88                    # 8-byte Folded Reload
	addi.d	$sp, $sp, 96
	ret
.LBB4_14:                               # %_ZNSt6vectorIiSaIiEED2Ev.exit
.Ltmp130:                               # EH_LABEL
	move	$s1, $a0
	move	$a0, $s4
	pcaddu18i	$ra, %call36(_ZdlPv)
	jirl	$ra, $ra, 0
	ld.d	$s3, $s3, 0
	bnez	$s3, .LBB4_16
	b	.LBB4_18
.LBB4_15:                               # %_ZNSt6vectorIiSaIiEED2Ev.exit.thread
.Ltmp127:                               # EH_LABEL
	move	$s1, $a0
.LBB4_16:
	move	$a0, $s3
	pcaddu18i	$ra, %call36(_ZdlPv)
	jirl	$ra, $ra, 0
	b	.LBB4_18
.LBB4_17:
.Ltmp124:                               # EH_LABEL
	move	$s1, $a0
.LBB4_18:                               # %_ZNSt6vectorIiSaIiEED2Ev.exit103
	addi.d	$a0, $fp, 184
	ld.d	$a0, $a0, 0
	beqz	$a0, .LBB4_21
# %bb.19:
	pcaddu18i	$ra, %call36(_ZdlPv)
	jirl	$ra, $ra, 0
	b	.LBB4_21
.LBB4_20:
.Ltmp121:                               # EH_LABEL
	move	$s1, $a0
.LBB4_21:                               # %_ZNSt6vectorIeSaIeEED2Ev.exit
	addi.d	$a0, $fp, 160
	ld.d	$a0, $a0, 0
	beqz	$a0, .LBB4_24
# %bb.22:
	pcaddu18i	$ra, %call36(_ZdlPv)
	jirl	$ra, $ra, 0
	b	.LBB4_24
.LBB4_23:
.Ltmp118:                               # EH_LABEL
	move	$s1, $a0
.LBB4_24:                               # %_ZNSt6vectorIeSaIeEED2Ev.exit106
	addi.d	$a0, $fp, 136
	ld.d	$a0, $a0, 0
	beqz	$a0, .LBB4_27
# %bb.25:
	pcaddu18i	$ra, %call36(_ZdlPv)
	jirl	$ra, $ra, 0
	b	.LBB4_27
.LBB4_26:
.Ltmp115:                               # EH_LABEL
	move	$s1, $a0
.LBB4_27:                               # %_ZNSt6vectorIeSaIeEED2Ev.exit108
	addi.d	$a0, $fp, 112
	ld.d	$a0, $a0, 0
	beqz	$a0, .LBB4_30
# %bb.28:
	pcaddu18i	$ra, %call36(_ZdlPv)
	jirl	$ra, $ra, 0
	b	.LBB4_30
.LBB4_29:
.Ltmp112:                               # EH_LABEL
	move	$s1, $a0
.LBB4_30:                               # %_ZNSt6vectorIeSaIeEED2Ev.exit110
	addi.d	$a0, $fp, 88
	ld.d	$a0, $a0, 0
	beqz	$a0, .LBB4_33
# %bb.31:
	pcaddu18i	$ra, %call36(_ZdlPv)
	jirl	$ra, $ra, 0
	b	.LBB4_33
.LBB4_32:
.Ltmp109:                               # EH_LABEL
	move	$s1, $a0
.LBB4_33:                               # %_ZNSt6vectorIeSaIeEED2Ev.exit112
	addi.d	$a0, $fp, 64
	ld.d	$a0, $a0, 0
	beqz	$a0, .LBB4_36
# %bb.34:
	pcaddu18i	$ra, %call36(_ZdlPv)
	jirl	$ra, $ra, 0
	b	.LBB4_36
.LBB4_35:
.Ltmp106:                               # EH_LABEL
	move	$s1, $a0
.LBB4_36:                               # %_ZNSt6vectorIeSaIeEED2Ev.exit114
	addi.d	$a0, $fp, 40
	ld.d	$a0, $a0, 0
	beqz	$a0, .LBB4_38
# %bb.37:
	pcaddu18i	$ra, %call36(_ZdlPv)
	jirl	$ra, $ra, 0
.LBB4_38:                               # %_ZNSt6vectorImSaImEED2Ev.exit
	move	$a0, $s0
	pcaddu18i	$ra, %call36(_ZNSt6vectorIS_IeSaIeEESaIS1_EED2Ev)
	jirl	$ra, $ra, 0
	move	$a0, $s1
	pcaddu18i	$ra, %call36(_Unwind_Resume)
	jirl	$ra, $ra, 0
.LBB4_39:
.Ltmp103:                               # EH_LABEL
	move	$s1, $a0
	b	.LBB4_38
.Lfunc_end4:
	.size	_ZN8LoopStatC2Ej, .Lfunc_end4-_ZN8LoopStatC2Ej
	.cfi_endproc
	.section	.gcc_except_table._ZN8LoopStatC2Ej,"aG",@progbits,_ZN8LoopStatC2Ej,comdat
	.p2align	2, 0x0
GCC_except_table4:
.Lexception3:
	.byte	255                             # @LPStart Encoding = omit
	.byte	255                             # @TType Encoding = omit
	.byte	1                               # Call site Encoding = uleb128
	.uleb128 .Lcst_end3-.Lcst_begin3
.Lcst_begin3:
	.uleb128 .Lfunc_begin3-.Lfunc_begin3    # >> Call Site 1 <<
	.uleb128 .Ltmp101-.Lfunc_begin3         #   Call between .Lfunc_begin3 and .Ltmp101
	.byte	0                               #     has no landing pad
	.byte	0                               #   On action: cleanup
	.uleb128 .Ltmp101-.Lfunc_begin3         # >> Call Site 2 <<
	.uleb128 .Ltmp102-.Ltmp101              #   Call between .Ltmp101 and .Ltmp102
	.uleb128 .Ltmp103-.Lfunc_begin3         #     jumps to .Ltmp103
	.byte	0                               #   On action: cleanup
	.uleb128 .Ltmp102-.Lfunc_begin3         # >> Call Site 3 <<
	.uleb128 .Ltmp104-.Ltmp102              #   Call between .Ltmp102 and .Ltmp104
	.byte	0                               #     has no landing pad
	.byte	0                               #   On action: cleanup
	.uleb128 .Ltmp104-.Lfunc_begin3         # >> Call Site 4 <<
	.uleb128 .Ltmp105-.Ltmp104              #   Call between .Ltmp104 and .Ltmp105
	.uleb128 .Ltmp106-.Lfunc_begin3         #     jumps to .Ltmp106
	.byte	0                               #   On action: cleanup
	.uleb128 .Ltmp105-.Lfunc_begin3         # >> Call Site 5 <<
	.uleb128 .Ltmp107-.Ltmp105              #   Call between .Ltmp105 and .Ltmp107
	.byte	0                               #     has no landing pad
	.byte	0                               #   On action: cleanup
	.uleb128 .Ltmp107-.Lfunc_begin3         # >> Call Site 6 <<
	.uleb128 .Ltmp108-.Ltmp107              #   Call between .Ltmp107 and .Ltmp108
	.uleb128 .Ltmp109-.Lfunc_begin3         #     jumps to .Ltmp109
	.byte	0                               #   On action: cleanup
	.uleb128 .Ltmp108-.Lfunc_begin3         # >> Call Site 7 <<
	.uleb128 .Ltmp110-.Ltmp108              #   Call between .Ltmp108 and .Ltmp110
	.byte	0                               #     has no landing pad
	.byte	0                               #   On action: cleanup
	.uleb128 .Ltmp110-.Lfunc_begin3         # >> Call Site 8 <<
	.uleb128 .Ltmp111-.Ltmp110              #   Call between .Ltmp110 and .Ltmp111
	.uleb128 .Ltmp112-.Lfunc_begin3         #     jumps to .Ltmp112
	.byte	0                               #   On action: cleanup
	.uleb128 .Ltmp111-.Lfunc_begin3         # >> Call Site 9 <<
	.uleb128 .Ltmp113-.Ltmp111              #   Call between .Ltmp111 and .Ltmp113
	.byte	0                               #     has no landing pad
	.byte	0                               #   On action: cleanup
	.uleb128 .Ltmp113-.Lfunc_begin3         # >> Call Site 10 <<
	.uleb128 .Ltmp114-.Ltmp113              #   Call between .Ltmp113 and .Ltmp114
	.uleb128 .Ltmp115-.Lfunc_begin3         #     jumps to .Ltmp115
	.byte	0                               #   On action: cleanup
	.uleb128 .Ltmp114-.Lfunc_begin3         # >> Call Site 11 <<
	.uleb128 .Ltmp116-.Ltmp114              #   Call between .Ltmp114 and .Ltmp116
	.byte	0                               #     has no landing pad
	.byte	0                               #   On action: cleanup
	.uleb128 .Ltmp116-.Lfunc_begin3         # >> Call Site 12 <<
	.uleb128 .Ltmp117-.Ltmp116              #   Call between .Ltmp116 and .Ltmp117
	.uleb128 .Ltmp118-.Lfunc_begin3         #     jumps to .Ltmp118
	.byte	0                               #   On action: cleanup
	.uleb128 .Ltmp117-.Lfunc_begin3         # >> Call Site 13 <<
	.uleb128 .Ltmp119-.Ltmp117              #   Call between .Ltmp117 and .Ltmp119
	.byte	0                               #     has no landing pad
	.byte	0                               #   On action: cleanup
	.uleb128 .Ltmp119-.Lfunc_begin3         # >> Call Site 14 <<
	.uleb128 .Ltmp120-.Ltmp119              #   Call between .Ltmp119 and .Ltmp120
	.uleb128 .Ltmp121-.Lfunc_begin3         #     jumps to .Ltmp121
	.byte	0                               #   On action: cleanup
	.uleb128 .Ltmp120-.Lfunc_begin3         # >> Call Site 15 <<
	.uleb128 .Ltmp122-.Ltmp120              #   Call between .Ltmp120 and .Ltmp122
	.byte	0                               #     has no landing pad
	.byte	0                               #   On action: cleanup
	.uleb128 .Ltmp122-.Lfunc_begin3         # >> Call Site 16 <<
	.uleb128 .Ltmp123-.Ltmp122              #   Call between .Ltmp122 and .Ltmp123
	.uleb128 .Ltmp124-.Lfunc_begin3         #     jumps to .Ltmp124
	.byte	0                               #   On action: cleanup
	.uleb128 .Ltmp123-.Lfunc_begin3         # >> Call Site 17 <<
	.uleb128 .Ltmp125-.Ltmp123              #   Call between .Ltmp123 and .Ltmp125
	.byte	0                               #     has no landing pad
	.byte	0                               #   On action: cleanup
	.uleb128 .Ltmp125-.Lfunc_begin3         # >> Call Site 18 <<
	.uleb128 .Ltmp126-.Ltmp125              #   Call between .Ltmp125 and .Ltmp126
	.uleb128 .Ltmp127-.Lfunc_begin3         #     jumps to .Ltmp127
	.byte	0                               #   On action: cleanup
	.uleb128 .Ltmp126-.Lfunc_begin3         # >> Call Site 19 <<
	.uleb128 .Ltmp128-.Ltmp126              #   Call between .Ltmp126 and .Ltmp128
	.byte	0                               #     has no landing pad
	.byte	0                               #   On action: cleanup
	.uleb128 .Ltmp128-.Lfunc_begin3         # >> Call Site 20 <<
	.uleb128 .Ltmp129-.Ltmp128              #   Call between .Ltmp128 and .Ltmp129
	.uleb128 .Ltmp130-.Lfunc_begin3         #     jumps to .Ltmp130
	.byte	0                               #   On action: cleanup
	.uleb128 .Ltmp129-.Lfunc_begin3         # >> Call Site 21 <<
	.uleb128 .Lfunc_end4-.Ltmp129           #   Call between .Ltmp129 and .Lfunc_end4
	.byte	0                               #     has no landing pad
	.byte	0                               #   On action: cleanup
.Lcst_end3:
	.p2align	2, 0x0
                                        # -- End function
	.section	.rodata.cst8,"aM",@progbits,8
	.p2align	3, 0x0                          # -- Begin function _ZN7ADomainC2Eii
.LCPI5_0:
	.dword	0x4050000000000000              # double 64
.LCPI5_1:
	.dword	0x4063800000000000              # double 156
	.section	.rodata.cst16,"aM",@progbits,16
	.p2align	4, 0x0
.LCPI5_2:
	.word	2                               # 0x2
	.word	3                               # 0x3
	.word	4                               # 0x4
	.word	5                               # 0x5
	.section	.text._ZN7ADomainC2Eii,"axG",@progbits,_ZN7ADomainC2Eii,comdat
	.weak	_ZN7ADomainC2Eii
	.p2align	5
	.type	_ZN7ADomainC2Eii,@function
_ZN7ADomainC2Eii:                       # @_ZN7ADomainC2Eii
	.cfi_startproc
# %bb.0:
	addi.d	$sp, $sp, -96
	.cfi_def_cfa_offset 96
	st.d	$ra, $sp, 88                    # 8-byte Folded Spill
	st.d	$fp, $sp, 80                    # 8-byte Folded Spill
	st.d	$s0, $sp, 72                    # 8-byte Folded Spill
	st.d	$s1, $sp, 64                    # 8-byte Folded Spill
	st.d	$s2, $sp, 56                    # 8-byte Folded Spill
	st.d	$s3, $sp, 48                    # 8-byte Folded Spill
	st.d	$s4, $sp, 40                    # 8-byte Folded Spill
	st.d	$s5, $sp, 32                    # 8-byte Folded Spill
	st.d	$s6, $sp, 24                    # 8-byte Folded Spill
	st.d	$s7, $sp, 16                    # 8-byte Folded Spill
	.cfi_offset 1, -8
	.cfi_offset 22, -16
	.cfi_offset 23, -24
	.cfi_offset 24, -32
	.cfi_offset 25, -40
	.cfi_offset 26, -48
	.cfi_offset 27, -56
	.cfi_offset 28, -64
	.cfi_offset 29, -72
	.cfi_offset 30, -80
	move	$s1, $a2
	move	$fp, $a0
	st.w	$a2, $a0, 0
	ori	$a0, $zero, 2
	ori	$a2, $zero, 2
	lu32i.d	$a2, 1
	st.d	$a2, $fp, 4
	beq	$a1, $a0, .LBB5_9
# %bb.1:
	ori	$a0, $zero, 1
	beq	$a1, $a0, .LBB5_6
# %bb.2:
                                        # implicit-def: $r29
	bnez	$a1, .LBB5_17
# %bb.3:
	ori	$a0, $zero, 3
	beq	$s1, $a0, .LBB5_14
# %bb.4:
	ori	$a0, $zero, 2
                                        # implicit-def: $r29
	bne	$s1, $a0, .LBB5_17
# %bb.5:
	pcalau12i	$a0, %pc_hi20(_ZN7ADomain18loop_length_factorE)
	fld.d	$fa0, $a0, %pc_lo12(_ZN7ADomain18loop_length_factorE)
	pcalau12i	$a0, %pc_hi20(.LCPI5_1)
	fld.d	$fa1, $a0, %pc_lo12(.LCPI5_1)
	fmul.d	$fa0, $fa0, $fa1
	b	.LBB5_16
.LBB5_6:
	ori	$a0, $zero, 3
	beq	$s1, $a0, .LBB5_12
# %bb.7:
	ori	$a0, $zero, 2
                                        # implicit-def: $r29
	bne	$s1, $a0, .LBB5_17
# %bb.8:
	pcalau12i	$a0, %pc_hi20(_ZN7ADomain18loop_length_factorE)
	fld.d	$fa0, $a0, %pc_lo12(_ZN7ADomain18loop_length_factorE)
	pcalau12i	$a0, %pc_hi20(.LCPI5_0)
	fld.d	$fa1, $a0, %pc_lo12(.LCPI5_0)
	fmul.d	$fa0, $fa0, $fa1
	b	.LBB5_16
.LBB5_9:
	ori	$a0, $zero, 3
	beq	$s1, $a0, .LBB5_13
# %bb.10:
	ori	$a0, $zero, 2
                                        # implicit-def: $r29
	bne	$s1, $a0, .LBB5_17
# %bb.11:
	pcalau12i	$a0, %pc_hi20(_ZN7ADomain18loop_length_factorE)
	fld.d	$fa0, $a0, %pc_lo12(_ZN7ADomain18loop_length_factorE)
	vldi	$vr1, -992
	b	.LBB5_15
.LBB5_12:
	pcalau12i	$a0, %pc_hi20(_ZN7ADomain18loop_length_factorE)
	fld.d	$fa0, $a0, %pc_lo12(_ZN7ADomain18loop_length_factorE)
	vldi	$vr1, -976
	b	.LBB5_15
.LBB5_13:
	pcalau12i	$a0, %pc_hi20(_ZN7ADomain18loop_length_factorE)
	fld.d	$fa0, $a0, %pc_lo12(_ZN7ADomain18loop_length_factorE)
	vldi	$vr1, -1008
	b	.LBB5_15
.LBB5_14:
	pcalau12i	$a0, %pc_hi20(_ZN7ADomain18loop_length_factorE)
	fld.d	$fa0, $a0, %pc_lo12(_ZN7ADomain18loop_length_factorE)
	vldi	$vr1, -964
.LBB5_15:
	fmul.d	$fa0, $fa0, $fa1
.LBB5_16:
	ftintrz.w.d	$fa0, $fa0
	movfr2gr.s	$s6, $fa0
.LBB5_17:
	ori	$a0, $zero, 2
	ori	$a1, $zero, 2
	lu32i.d	$a1, 2
	st.d	$a1, $fp, 12
	addi.d	$s3, $s6, 1
	st.w	$s3, $fp, 24
	st.w	$s3, $fp, 28
	addi.w	$s4, $s6, 3
	st.w	$s4, $fp, 36
	bne	$s1, $a0, .LBB5_19
# %bb.18:
	move	$s5, $zero
	st.w	$zero, $fp, 20
	st.w	$zero, $fp, 32
	st.w	$zero, $fp, 40
	mul.w	$s7, $s4, $s4
	b	.LBB5_21
.LBB5_19:
	ori	$a0, $zero, 3
	bne	$s1, $a0, .LBB5_22
# %bb.20:
	ori	$a0, $zero, 2
	st.w	$a0, $fp, 20
	st.w	$s3, $fp, 32
	mul.d	$s5, $s4, $s4
	st.w	$s5, $fp, 40
	mul.w	$s7, $s5, $s4
.LBB5_21:
	st.w	$s7, $fp, 44
	b	.LBB5_23
.LBB5_22:                               # %._crit_edge87
	ld.w	$s7, $fp, 44
	ld.w	$s5, $fp, 40
.LBB5_23:
	st.w	$zero, $fp, 48
	addi.d	$a0, $s7, -1
	st.w	$a0, $fp, 52
	add.d	$a1, $s5, $s4
	slli.d	$a2, $a1, 1
	addi.d	$a2, $a2, 2
	st.w	$a2, $fp, 56
	nor	$a1, $a1, $zero
	add.d	$a0, $a0, $a1
	st.w	$a0, $fp, 60
	add.d	$a1, $a2, $a1
	st.w	$a1, $fp, 64
	st.w	$a0, $fp, 68
	slti	$a0, $s7, 0
	slli.d	$s2, $s7, 2
	masknez	$a1, $s2, $a0
	addi.w	$a2, $zero, -1
	maskeqz	$a0, $a2, $a0
	or	$a0, $a0, $a1
	pcaddu18i	$ra, %call36(_Znam)
	jirl	$ra, $ra, 0
	move	$s0, $a0
	st.d	$a0, $fp, 72
	blez	$s7, .LBB5_25
# %bb.24:                               # %.lr.ph.preheader
	ori	$a1, $zero, 255
	move	$a0, $s0
	move	$a2, $s2
	pcaddu18i	$ra, %call36(memset)
	jirl	$ra, $ra, 0
.LBB5_25:                               # %._crit_edge
	ori	$a1, $zero, 2
	st.w	$zero, $fp, 80
	bne	$s1, $a1, .LBB5_36
# %bb.26:                               # %.preheader
	addi.w	$a0, $s6, 0
	blt	$a0, $a1, .LBB5_52
# %bb.27:                               # %.lr.ph70.preheader
	move	$a3, $zero
	addi.d	$a4, $s6, -1
	bstrpick.d	$a1, $a4, 31, 0
	bstrpick.d	$a2, $a4, 31, 3
	slli.d	$a2, $a2, 3
	srli.d	$a5, $a4, 3
	ori	$t1, $zero, 2
	ori	$a4, $zero, 2
	bstrins.d	$a4, $a5, 31, 3
	addi.d	$a5, $s0, 16
	pcalau12i	$a6, %pc_hi20(.LCPI5_2)
	vld	$vr0, $a6, %pc_lo12(.LCPI5_2)
	ori	$a6, $zero, 6
	alsl.w	$a6, $s6, $a6, 1
	ori	$a7, $zero, 9
	b	.LBB5_29
	.p2align	4, , 16
.LBB5_28:                               # %.loopexit125
                                        #   in Loop: Header=BB5_29 Depth=1
	addi.w	$t1, $t0, 1
	add.d	$a6, $a6, $s4
	beq	$t0, $a0, .LBB5_51
.LBB5_29:                               # %.lr.ph70
                                        # =>This Loop Header: Depth=1
                                        #     Child Loop BB5_32 Depth 2
                                        #     Child Loop BB5_35 Depth 2
	move	$t0, $t1
	addi.w	$t1, $a3, 0
	bgeu	$a0, $a7, .LBB5_31
# %bb.30:                               #   in Loop: Header=BB5_29 Depth=1
	move	$a3, $t1
	ori	$t3, $zero, 2
	b	.LBB5_34
	.p2align	4, , 16
.LBB5_31:                               # %vector.ph108
                                        #   in Loop: Header=BB5_29 Depth=1
	mul.d	$t2, $s4, $t0
	add.d	$a3, $t1, $a2
	vreplgr2vr.w	$vr1, $t2
	vaddi.wu	$vr2, $vr1, 4
	alsl.d	$t1, $t1, $a5, 2
	move	$t2, $a2
	vori.b	$vr3, $vr0, 0
	.p2align	4, , 16
.LBB5_32:                               # %vector.body114
                                        #   Parent Loop BB5_29 Depth=1
                                        # =>  This Inner Loop Header: Depth=2
	vadd.w	$vr4, $vr1, $vr3
	vadd.w	$vr5, $vr3, $vr2
	vst	$vr4, $t1, -16
	vst	$vr5, $t1, 0
	vaddi.wu	$vr3, $vr3, 8
	addi.d	$t2, $t2, -8
	addi.d	$t1, $t1, 32
	bnez	$t2, .LBB5_32
# %bb.33:                               # %middle.block121
                                        #   in Loop: Header=BB5_29 Depth=1
	move	$t3, $a4
	beq	$a2, $a1, .LBB5_28
.LBB5_34:                               # %scalar.ph106.preheader
                                        #   in Loop: Header=BB5_29 Depth=1
	alsl.d	$t1, $a3, $s0, 2
	sub.d	$t2, $s3, $t3
	add.d	$t3, $t3, $a6
	.p2align	4, , 16
.LBB5_35:                               # %scalar.ph106
                                        #   Parent Loop BB5_29 Depth=1
                                        # =>  This Inner Loop Header: Depth=2
	st.w	$t3, $t1, 0
	addi.d	$a3, $a3, 1
	addi.d	$t1, $t1, 4
	addi.w	$t2, $t2, -1
	addi.d	$t3, $t3, 1
	bnez	$t2, .LBB5_35
	b	.LBB5_28
.LBB5_36:
	ori	$a0, $zero, 3
	bne	$s1, $a0, .LBB5_52
# %bb.37:
	ld.w	$a0, $fp, 20
	ld.w	$a1, $fp, 32
	bge	$a0, $a1, .LBB5_52
# %bb.38:                               # %.lr.ph66
	move	$a5, $zero
	addi.d	$a4, $s6, -1
	bstrpick.d	$a2, $a4, 31, 0
	bstrpick.d	$a3, $a4, 31, 3
	slli.d	$a3, $a3, 3
	srli.d	$a7, $a4, 3
	ori	$a4, $zero, 2
	ori	$a6, $zero, 2
	bstrins.d	$a6, $a7, 31, 3
	addi.d	$a7, $s0, 16
	mul.d	$t0, $s5, $a0
	alsl.d	$t0, $s6, $t0, 1
	addi.d	$t0, $t0, 6
	addi.w	$t1, $s6, 0
	ori	$t2, $zero, 9
	b	.LBB5_41
	.p2align	4, , 16
.LBB5_39:                               # %._crit_edge58.loopexit
                                        #   in Loop: Header=BB5_41 Depth=1
	st.w	$a5, $fp, 80
.LBB5_40:                               # %._crit_edge58
                                        #   in Loop: Header=BB5_41 Depth=1
	addi.w	$a0, $a0, 1
	add.d	$t0, $t0, $s5
	beq	$a0, $a1, .LBB5_52
.LBB5_41:                               # =>This Loop Header: Depth=1
                                        #     Child Loop BB5_44 Depth 2
                                        #       Child Loop BB5_47 Depth 3
                                        #       Child Loop BB5_50 Depth 3
	blt	$t1, $a4, .LBB5_40
# %bb.42:                               # %.lr.ph57
                                        #   in Loop: Header=BB5_41 Depth=1
	mul.d	$t3, $s5, $a0
	ori	$t6, $zero, 2
	move	$t4, $t0
	b	.LBB5_44
	.p2align	4, , 16
.LBB5_43:                               # %.loopexit126
                                        #   in Loop: Header=BB5_44 Depth=2
	addi.w	$t6, $t5, 1
	add.d	$t4, $t4, $s4
	beq	$t5, $t1, .LBB5_39
.LBB5_44:                               # %.lr.ph49
                                        #   Parent Loop BB5_41 Depth=1
                                        # =>  This Loop Header: Depth=2
                                        #       Child Loop BB5_47 Depth 3
                                        #       Child Loop BB5_50 Depth 3
	move	$t5, $t6
	addi.w	$t6, $a5, 0
	bgeu	$t1, $t2, .LBB5_46
# %bb.45:                               #   in Loop: Header=BB5_44 Depth=2
	move	$a5, $t6
	ori	$t8, $zero, 2
	b	.LBB5_49
	.p2align	4, , 16
.LBB5_46:                               # %vector.ph
                                        #   in Loop: Header=BB5_44 Depth=2
	mul.d	$a5, $s4, $t5
	add.d	$t7, $a5, $t3
	add.d	$a5, $a3, $t6
	pcalau12i	$t8, %pc_hi20(.LCPI5_2)
	vld	$vr0, $t8, %pc_lo12(.LCPI5_2)
	vreplgr2vr.w	$vr1, $t7
	vaddi.wu	$vr2, $vr1, 4
	alsl.d	$t6, $t6, $a7, 2
	move	$t7, $a3
	.p2align	4, , 16
.LBB5_47:                               # %vector.body
                                        #   Parent Loop BB5_41 Depth=1
                                        #     Parent Loop BB5_44 Depth=2
                                        # =>    This Inner Loop Header: Depth=3
	vadd.w	$vr3, $vr0, $vr1
	vadd.w	$vr4, $vr0, $vr2
	vst	$vr3, $t6, -16
	vst	$vr4, $t6, 0
	vaddi.wu	$vr0, $vr0, 8
	addi.d	$t7, $t7, -8
	addi.d	$t6, $t6, 32
	bnez	$t7, .LBB5_47
# %bb.48:                               # %middle.block
                                        #   in Loop: Header=BB5_44 Depth=2
	move	$t8, $a6
	beq	$a3, $a2, .LBB5_43
.LBB5_49:                               # %scalar.ph.preheader
                                        #   in Loop: Header=BB5_44 Depth=2
	alsl.d	$t6, $a5, $s0, 2
	sub.d	$t7, $s3, $t8
	add.d	$t8, $t8, $t4
	.p2align	4, , 16
.LBB5_50:                               # %scalar.ph
                                        #   Parent Loop BB5_41 Depth=1
                                        #     Parent Loop BB5_44 Depth=2
                                        # =>    This Inner Loop Header: Depth=3
	st.w	$t8, $t6, 0
	addi.d	$a5, $a5, 1
	addi.d	$t6, $t6, 4
	addi.w	$t7, $t7, -1
	addi.d	$t8, $t8, 1
	bnez	$t7, .LBB5_50
	b	.LBB5_43
.LBB5_51:                               # %.loopexit.loopexit
	st.w	$a3, $fp, 80
.LBB5_52:                               # %.loopexit
	ld.d	$s7, $sp, 16                    # 8-byte Folded Reload
	ld.d	$s6, $sp, 24                    # 8-byte Folded Reload
	ld.d	$s5, $sp, 32                    # 8-byte Folded Reload
	ld.d	$s4, $sp, 40                    # 8-byte Folded Reload
	ld.d	$s3, $sp, 48                    # 8-byte Folded Reload
	ld.d	$s2, $sp, 56                    # 8-byte Folded Reload
	ld.d	$s1, $sp, 64                    # 8-byte Folded Reload
	ld.d	$s0, $sp, 72                    # 8-byte Folded Reload
	ld.d	$fp, $sp, 80                    # 8-byte Folded Reload
	ld.d	$ra, $sp, 88                    # 8-byte Folded Reload
	addi.d	$sp, $sp, 96
	ret
.Lfunc_end5:
	.size	_ZN7ADomainC2Eii, .Lfunc_end5-_ZN7ADomainC2Eii
	.cfi_endproc
                                        # -- End function
	.section	.text._ZN8LoopStatD2Ev,"axG",@progbits,_ZN8LoopStatD2Ev,comdat
	.weak	_ZN8LoopStatD2Ev                # -- Begin function _ZN8LoopStatD2Ev
	.p2align	5
	.type	_ZN8LoopStatD2Ev,@function
_ZN8LoopStatD2Ev:                       # @_ZN8LoopStatD2Ev
	.cfi_startproc
# %bb.0:
	addi.d	$sp, $sp, -32
	.cfi_def_cfa_offset 32
	st.d	$ra, $sp, 24                    # 8-byte Folded Spill
	st.d	$fp, $sp, 16                    # 8-byte Folded Spill
	st.d	$s0, $sp, 8                     # 8-byte Folded Spill
	st.d	$s1, $sp, 0                     # 8-byte Folded Spill
	.cfi_offset 1, -8
	.cfi_offset 22, -16
	.cfi_offset 23, -24
	.cfi_offset 24, -32
	move	$fp, $a0
	ld.d	$a0, $a0, 256
	beqz	$a0, .LBB6_2
# %bb.1:
	pcaddu18i	$ra, %call36(_ZdlPv)
	jirl	$ra, $ra, 0
.LBB6_2:                                # %_ZNSt6vectorIeSaIeEED2Ev.exit
	ld.d	$a0, $fp, 232
	beqz	$a0, .LBB6_4
# %bb.3:
	pcaddu18i	$ra, %call36(_ZdlPv)
	jirl	$ra, $ra, 0
.LBB6_4:                                # %_ZNSt6vectorIiSaIiEED2Ev.exit
	ld.d	$a0, $fp, 208
	beqz	$a0, .LBB6_6
# %bb.5:
	pcaddu18i	$ra, %call36(_ZdlPv)
	jirl	$ra, $ra, 0
.LBB6_6:                                # %_ZNSt6vectorIiSaIiEED2Ev.exit3
	ld.d	$a0, $fp, 184
	beqz	$a0, .LBB6_8
# %bb.7:
	pcaddu18i	$ra, %call36(_ZdlPv)
	jirl	$ra, $ra, 0
.LBB6_8:                                # %_ZNSt6vectorIeSaIeEED2Ev.exit5
	ld.d	$a0, $fp, 160
	beqz	$a0, .LBB6_10
# %bb.9:
	pcaddu18i	$ra, %call36(_ZdlPv)
	jirl	$ra, $ra, 0
.LBB6_10:                               # %_ZNSt6vectorIeSaIeEED2Ev.exit7
	ld.d	$a0, $fp, 136
	beqz	$a0, .LBB6_12
# %bb.11:
	pcaddu18i	$ra, %call36(_ZdlPv)
	jirl	$ra, $ra, 0
.LBB6_12:                               # %_ZNSt6vectorIeSaIeEED2Ev.exit9
	ld.d	$a0, $fp, 112
	beqz	$a0, .LBB6_14
# %bb.13:
	pcaddu18i	$ra, %call36(_ZdlPv)
	jirl	$ra, $ra, 0
.LBB6_14:                               # %_ZNSt6vectorIeSaIeEED2Ev.exit11
	ld.d	$a0, $fp, 88
	beqz	$a0, .LBB6_16
# %bb.15:
	pcaddu18i	$ra, %call36(_ZdlPv)
	jirl	$ra, $ra, 0
.LBB6_16:                               # %_ZNSt6vectorIeSaIeEED2Ev.exit13
	ld.d	$a0, $fp, 64
	beqz	$a0, .LBB6_18
# %bb.17:
	pcaddu18i	$ra, %call36(_ZdlPv)
	jirl	$ra, $ra, 0
.LBB6_18:                               # %_ZNSt6vectorIeSaIeEED2Ev.exit15
	ld.d	$a0, $fp, 40
	beqz	$a0, .LBB6_20
# %bb.19:
	pcaddu18i	$ra, %call36(_ZdlPv)
	jirl	$ra, $ra, 0
.LBB6_20:                               # %_ZNSt6vectorImSaImEED2Ev.exit
	ld.d	$s0, $fp, 16
	ld.d	$s1, $fp, 24
	bne	$s0, $s1, .LBB6_24
# %bb.21:                               # %_ZSt8_DestroyIPSt6vectorIeSaIeEES2_EvT_S4_RSaIT0_E.exit.i
	beqz	$s0, .LBB6_27
.LBB6_22:
	move	$a0, $s0
	ld.d	$s1, $sp, 0                     # 8-byte Folded Reload
	ld.d	$s0, $sp, 8                     # 8-byte Folded Reload
	ld.d	$fp, $sp, 16                    # 8-byte Folded Reload
	ld.d	$ra, $sp, 24                    # 8-byte Folded Reload
	addi.d	$sp, $sp, 32
	pcaddu18i	$t8, %call36(_ZdlPv)
	jr	$t8
	.p2align	4, , 16
.LBB6_23:                               # %_ZSt8_DestroyISt6vectorIeSaIeEEEvPT_.exit.i.i.i
                                        #   in Loop: Header=BB6_24 Depth=1
	addi.d	$s0, $s0, 24
	beq	$s0, $s1, .LBB6_26
.LBB6_24:                               # %.lr.ph.i.i.i
                                        # =>This Inner Loop Header: Depth=1
	ld.d	$a0, $s0, 0
	beqz	$a0, .LBB6_23
# %bb.25:                               #   in Loop: Header=BB6_24 Depth=1
	pcaddu18i	$ra, %call36(_ZdlPv)
	jirl	$ra, $ra, 0
	b	.LBB6_23
.LBB6_26:                               # %_ZSt8_DestroyIPSt6vectorIeSaIeEES2_EvT_S4_RSaIT0_E.exitthread-pre-split.i
	ld.d	$s0, $fp, 16
	bnez	$s0, .LBB6_22
.LBB6_27:                               # %_ZNSt6vectorIS_IeSaIeEESaIS1_EED2Ev.exit
	ld.d	$s1, $sp, 0                     # 8-byte Folded Reload
	ld.d	$s0, $sp, 8                     # 8-byte Folded Reload
	ld.d	$fp, $sp, 16                    # 8-byte Folded Reload
	ld.d	$ra, $sp, 24                    # 8-byte Folded Reload
	addi.d	$sp, $sp, 32
	ret
.Lfunc_end6:
	.size	_ZN8LoopStatD2Ev, .Lfunc_end6-_ZN8LoopStatD2Ev
	.cfi_endproc
                                        # -- End function
	.section	.text._ZNSt6vectorINSt7__cxx1112basic_stringIcSt11char_traitsIcESaIcEEESaIS5_EED2Ev,"axG",@progbits,_ZNSt6vectorINSt7__cxx1112basic_stringIcSt11char_traitsIcESaIcEEESaIS5_EED2Ev,comdat
	.weak	_ZNSt6vectorINSt7__cxx1112basic_stringIcSt11char_traitsIcESaIcEEESaIS5_EED2Ev # -- Begin function _ZNSt6vectorINSt7__cxx1112basic_stringIcSt11char_traitsIcESaIcEEESaIS5_EED2Ev
	.p2align	5
	.type	_ZNSt6vectorINSt7__cxx1112basic_stringIcSt11char_traitsIcESaIcEEESaIS5_EED2Ev,@function
_ZNSt6vectorINSt7__cxx1112basic_stringIcSt11char_traitsIcESaIcEEESaIS5_EED2Ev: # @_ZNSt6vectorINSt7__cxx1112basic_stringIcSt11char_traitsIcESaIcEEESaIS5_EED2Ev
	.cfi_startproc
# %bb.0:
	addi.d	$sp, $sp, -32
	.cfi_def_cfa_offset 32
	st.d	$ra, $sp, 24                    # 8-byte Folded Spill
	st.d	$fp, $sp, 16                    # 8-byte Folded Spill
	st.d	$s0, $sp, 8                     # 8-byte Folded Spill
	st.d	$s1, $sp, 0                     # 8-byte Folded Spill
	.cfi_offset 1, -8
	.cfi_offset 22, -16
	.cfi_offset 23, -24
	.cfi_offset 24, -32
	move	$fp, $a0
	ld.d	$a0, $a0, 0
	ld.d	$s0, $fp, 8
	bne	$a0, $s0, .LBB7_4
# %bb.1:                                # %_ZSt8_DestroyIPNSt7__cxx1112basic_stringIcSt11char_traitsIcESaIcEEES5_EvT_S7_RSaIT0_E.exit
	beqz	$a0, .LBB7_7
.LBB7_2:
	ld.d	$s1, $sp, 0                     # 8-byte Folded Reload
	ld.d	$s0, $sp, 8                     # 8-byte Folded Reload
	ld.d	$fp, $sp, 16                    # 8-byte Folded Reload
	ld.d	$ra, $sp, 24                    # 8-byte Folded Reload
	addi.d	$sp, $sp, 32
	pcaddu18i	$t8, %call36(_ZdlPv)
	jr	$t8
	.p2align	4, , 16
.LBB7_3:                                # %_ZSt8_DestroyINSt7__cxx1112basic_stringIcSt11char_traitsIcESaIcEEEEvPT_.exit.i.i
                                        #   in Loop: Header=BB7_4 Depth=1
	addi.d	$a0, $s1, 16
	beq	$a0, $s0, .LBB7_6
.LBB7_4:                                # %.lr.ph.i.i
                                        # =>This Inner Loop Header: Depth=1
	ld.d	$a1, $a0, 0
	addi.d	$s1, $a0, 16
	beq	$a1, $s1, .LBB7_3
# %bb.5:                                # %_ZNKSt7__cxx1112basic_stringIcSt11char_traitsIcESaIcEE11_M_is_localEv.exit.i.i.i.i.i
                                        #   in Loop: Header=BB7_4 Depth=1
	move	$a0, $a1
	pcaddu18i	$ra, %call36(_ZdlPv)
	jirl	$ra, $ra, 0
	b	.LBB7_3
.LBB7_6:                                # %_ZSt8_DestroyIPNSt7__cxx1112basic_stringIcSt11char_traitsIcESaIcEEES5_EvT_S7_RSaIT0_E.exitthread-pre-split
	ld.d	$a0, $fp, 0
	bnez	$a0, .LBB7_2
.LBB7_7:                                # %_ZNSt12_Vector_baseINSt7__cxx1112basic_stringIcSt11char_traitsIcESaIcEEESaIS5_EED2Ev.exit
	ld.d	$s1, $sp, 0                     # 8-byte Folded Reload
	ld.d	$s0, $sp, 8                     # 8-byte Folded Reload
	ld.d	$fp, $sp, 16                    # 8-byte Folded Reload
	ld.d	$ra, $sp, 24                    # 8-byte Folded Reload
	addi.d	$sp, $sp, 32
	ret
.Lfunc_end7:
	.size	_ZNSt6vectorINSt7__cxx1112basic_stringIcSt11char_traitsIcESaIcEEESaIS5_EED2Ev, .Lfunc_end7-_ZNSt6vectorINSt7__cxx1112basic_stringIcSt11char_traitsIcESaIcEEESaIS5_EED2Ev
	.cfi_endproc
                                        # -- End function
	.text
	.globl	_Z14getVariantNameB5cxx1113LoopVariantID # -- Begin function _Z14getVariantNameB5cxx1113LoopVariantID
	.p2align	5
	.type	_Z14getVariantNameB5cxx1113LoopVariantID,@function
_Z14getVariantNameB5cxx1113LoopVariantID: # @_Z14getVariantNameB5cxx1113LoopVariantID
.Lfunc_begin4:
	.cfi_startproc
	.cfi_personality 155, DW.ref.__gxx_personality_v0
	.cfi_lsda 27, .Lexception4
# %bb.0:
	addi.d	$sp, $sp, -48
	.cfi_def_cfa_offset 48
	st.d	$ra, $sp, 40                    # 8-byte Folded Spill
	st.d	$fp, $sp, 32                    # 8-byte Folded Spill
	st.d	$s0, $sp, 24                    # 8-byte Folded Spill
	st.d	$s1, $sp, 16                    # 8-byte Folded Spill
	st.d	$s2, $sp, 8                     # 8-byte Folded Spill
	.cfi_offset 1, -8
	.cfi_offset 22, -16
	.cfi_offset 23, -24
	.cfi_offset 24, -32
	.cfi_offset 25, -40
	move	$s0, $a1
	move	$fp, $a0
	addi.d	$s2, $a0, 16
	st.d	$s2, $a0, 0
	st.d	$zero, $a0, 8
	ori	$a0, $zero, 4
	st.b	$zero, $fp, 16
	bgeu	$a1, $a0, .LBB8_2
# %bb.1:                                # %switch.lookup
	slli.d	$a0, $s0, 3
	pcalau12i	$a1, %pc_hi20(.Lswitch.table._Z14getVariantNameB5cxx1113LoopVariantID)
	addi.d	$a1, $a1, %pc_lo12(.Lswitch.table._Z14getVariantNameB5cxx1113LoopVariantID)
	ldx.d	$a3, $a1, $a0
	pcalau12i	$a1, %pc_hi20(.Lswitch.table._Z14getVariantNameB5cxx1113LoopVariantID.1)
	addi.d	$a1, $a1, %pc_lo12(.Lswitch.table._Z14getVariantNameB5cxx1113LoopVariantID.1)
	ldx.d	$a4, $a1, $a0
.Ltmp145:                               # EH_LABEL
	move	$a0, $fp
	move	$a1, $zero
	move	$a2, $zero
	pcaddu18i	$ra, %call36(_ZNSt7__cxx1112basic_stringIcSt11char_traitsIcESaIcEE10_M_replaceEmmPKcm)
	jirl	$ra, $ra, 0
.Ltmp146:                               # EH_LABEL
	b	.LBB8_11
.LBB8_2:
.Ltmp131:                               # EH_LABEL
	pcalau12i	$a0, %got_pc_hi20(_ZSt4cout)
	ld.d	$a0, $a0, %got_pc_lo12(_ZSt4cout)
	pcalau12i	$a1, %pc_hi20(.L.str.41)
	addi.d	$a1, $a1, %pc_lo12(.L.str.41)
	ori	$a2, $zero, 28
	pcaddu18i	$ra, %call36(_ZSt16__ostream_insertIcSt11char_traitsIcEERSt13basic_ostreamIT_T0_ES6_PKS3_l)
	jirl	$ra, $ra, 0
.Ltmp132:                               # EH_LABEL
# %bb.3:                                # %_ZStlsISt11char_traitsIcEERSt13basic_ostreamIcT_ES5_PKc.exit
.Ltmp133:                               # EH_LABEL
	pcalau12i	$a0, %got_pc_hi20(_ZSt4cout)
	ld.d	$a0, $a0, %got_pc_lo12(_ZSt4cout)
	move	$a1, $s0
	pcaddu18i	$ra, %call36(_ZNSolsEi)
	jirl	$ra, $ra, 0
.Ltmp134:                               # EH_LABEL
# %bb.4:
	move	$s0, $a0
	ld.d	$a0, $a0, 0
	ld.d	$a0, $a0, -24
	add.d	$a0, $s0, $a0
	ld.d	$s1, $a0, 240
	beqz	$s1, .LBB8_12
# %bb.5:                                # %_ZSt13__check_facetISt5ctypeIcEERKT_PS3_.exit.i.i
	ld.bu	$a0, $s1, 56
	beqz	$a0, .LBB8_7
# %bb.6:
	ld.bu	$a0, $s1, 67
	b	.LBB8_9
.LBB8_7:
.Ltmp135:                               # EH_LABEL
	move	$a0, $s1
	pcaddu18i	$ra, %call36(_ZNKSt5ctypeIcE13_M_widen_initEv)
	jirl	$ra, $ra, 0
.Ltmp136:                               # EH_LABEL
# %bb.8:                                # %.noexc7
	ld.d	$a0, $s1, 0
	ld.d	$a2, $a0, 48
.Ltmp137:                               # EH_LABEL
	ori	$a1, $zero, 10
	move	$a0, $s1
	jirl	$ra, $a2, 0
.Ltmp138:                               # EH_LABEL
.LBB8_9:                                # %_ZNKSt9basic_iosIcSt11char_traitsIcEE5widenEc.exit.i
.Ltmp139:                               # EH_LABEL
	ext.w.b	$a1, $a0
	move	$a0, $s0
	pcaddu18i	$ra, %call36(_ZNSo3putEc)
	jirl	$ra, $ra, 0
.Ltmp140:                               # EH_LABEL
# %bb.10:                               # %.noexc9
.Ltmp141:                               # EH_LABEL
	pcaddu18i	$ra, %call36(_ZNSo5flushEv)
	jirl	$ra, $ra, 0
.Ltmp142:                               # EH_LABEL
.LBB8_11:                               # %_ZNSt7__cxx1112basic_stringIcSt11char_traitsIcESaIcEEaSEPKc.exit
	ld.d	$s2, $sp, 8                     # 8-byte Folded Reload
	ld.d	$s1, $sp, 16                    # 8-byte Folded Reload
	ld.d	$s0, $sp, 24                    # 8-byte Folded Reload
	ld.d	$fp, $sp, 32                    # 8-byte Folded Reload
	ld.d	$ra, $sp, 40                    # 8-byte Folded Reload
	addi.d	$sp, $sp, 48
	ret
.LBB8_12:
.Ltmp143:                               # EH_LABEL
	pcaddu18i	$ra, %call36(_ZSt16__throw_bad_castv)
	jirl	$ra, $ra, 0
.Ltmp144:                               # EH_LABEL
# %bb.13:                               # %.noexc
.LBB8_14:
.Ltmp147:                               # EH_LABEL
	ld.d	$a1, $fp, 0
	move	$fp, $a0
	beq	$a1, $s2, .LBB8_16
# %bb.15:                               # %_ZNKSt7__cxx1112basic_stringIcSt11char_traitsIcESaIcEE11_M_is_localEv.exit.i.i
	move	$a0, $a1
	pcaddu18i	$ra, %call36(_ZdlPv)
	jirl	$ra, $ra, 0
.LBB8_16:                               # %_ZNSt7__cxx1112basic_stringIcSt11char_traitsIcESaIcEED2Ev.exit
	move	$a0, $fp
	pcaddu18i	$ra, %call36(_Unwind_Resume)
	jirl	$ra, $ra, 0
.Lfunc_end8:
	.size	_Z14getVariantNameB5cxx1113LoopVariantID, .Lfunc_end8-_Z14getVariantNameB5cxx1113LoopVariantID
	.cfi_endproc
	.section	.gcc_except_table,"a",@progbits
	.p2align	2, 0x0
GCC_except_table8:
.Lexception4:
	.byte	255                             # @LPStart Encoding = omit
	.byte	255                             # @TType Encoding = omit
	.byte	1                               # Call site Encoding = uleb128
	.uleb128 .Lcst_end4-.Lcst_begin4
.Lcst_begin4:
	.uleb128 .Ltmp145-.Lfunc_begin4         # >> Call Site 1 <<
	.uleb128 .Ltmp144-.Ltmp145              #   Call between .Ltmp145 and .Ltmp144
	.uleb128 .Ltmp147-.Lfunc_begin4         #     jumps to .Ltmp147
	.byte	0                               #   On action: cleanup
	.uleb128 .Ltmp144-.Lfunc_begin4         # >> Call Site 2 <<
	.uleb128 .Lfunc_end8-.Ltmp144           #   Call between .Ltmp144 and .Lfunc_end8
	.byte	0                               #     has no landing pad
	.byte	0                               #   On action: cleanup
.Lcst_end4:
	.p2align	2, 0x0
                                        # -- End function
	.section	.rodata.cst16,"aM",@progbits,16
	.p2align	3, 0x0                          # -- Begin function _Z8loopInitjR8LoopStat
.LCPI9_0:
	.dword	0x3fb999999999999a              # double 0.10000000000000001
	.dword	0x3fc999999999999a              # double 0.20000000000000001
.LCPI9_3:
	.dword	0x3fc999999999999a              # double 0.20000000000000001
	.dword	0x3fd3333333333333              # double 0.29999999999999999
	.section	.rodata.cst8,"aM",@progbits,8
	.p2align	3, 0x0
.LCPI9_1:
	.dword	0x3ff199999999999a              # double 1.1000000000000001
.LCPI9_2:
	.dword	0x3ff1f9a6b50b0f28              # double 1.1234500000000001
	.text
	.globl	_Z8loopInitjR8LoopStat
	.p2align	5
	.type	_Z8loopInitjR8LoopStat,@function
_Z8loopInitjR8LoopStat:                 # @_Z8loopInitjR8LoopStat
	.cfi_startproc
# %bb.0:
	addi.d	$sp, $sp, -32
	.cfi_def_cfa_offset 32
	st.d	$ra, $sp, 24                    # 8-byte Folded Spill
	st.d	$fp, $sp, 16                    # 8-byte Folded Spill
	st.d	$s0, $sp, 8                     # 8-byte Folded Spill
	st.d	$s1, $sp, 0                     # 8-byte Folded Spill
	.cfi_offset 1, -8
	.cfi_offset 22, -16
	.cfi_offset 23, -24
	.cfi_offset 24, -32
	pcalau12i	$a2, %pc_hi20(_ZL11s_loop_data)
	ld.d	$s1, $a2, %pc_lo12(_ZL11s_loop_data)
	move	$s0, $a1
	move	$fp, $a0
	pcaddu18i	$ra, %call36(_Z10flushCachev)
	jirl	$ra, $ra, 0
	ori	$a0, $zero, 1
	ori	$a1, $zero, 32
	st.b	$a0, $s0, 0
	bltu	$a1, $fp, .LBB9_97
# %bb.1:
	slli.d	$a0, $fp, 2
	pcalau12i	$a1, %pc_hi20(.LJTI9_0)
	addi.d	$a1, $a1, %pc_lo12(.LJTI9_0)
	ldx.w	$a0, $a1, $a0
	add.d	$a0, $a1, $a0
	jr	$a0
.LBB9_2:
	pcalau12i	$a0, %pc_hi20(.LCPI9_0)
	addi.d	$a0, $a0, %pc_lo12(.LCPI9_0)
	ld.w	$a2, $s1, 480
	blez	$a2, .LBB9_105
# %bb.3:                                # %.lr.ph.preheader.i171
	ld.bu	$a1, $s1, 464
	andi	$a1, $a1, 1
	sltui	$a1, $a1, 1
	slli.d	$a1, $a1, 3
	fldx.d	$fa0, $a0, $a1
	ld.d	$a3, $s1, 472
	ori	$a1, $zero, 4
	bgeu	$a2, $a1, .LBB9_100
# %bb.4:
	move	$a1, $zero
	b	.LBB9_103
.LBB9_5:
	pcalau12i	$a0, %pc_hi20(.LCPI9_0)
	addi.d	$a0, $a0, %pc_lo12(.LCPI9_0)
	ld.w	$a2, $s1, 480
	blez	$a2, .LBB9_150
# %bb.6:                                # %.lr.ph.preheader.i219
	ld.bu	$a1, $s1, 464
	andi	$a1, $a1, 1
	sltui	$a1, $a1, 1
	slli.d	$a1, $a1, 3
	fldx.d	$fa0, $a0, $a1
	ld.d	$a3, $s1, 472
	ori	$a1, $zero, 4
	bgeu	$a2, $a1, .LBB9_145
# %bb.7:
	move	$a1, $zero
	b	.LBB9_148
.LBB9_8:
	pcalau12i	$a0, %pc_hi20(.LCPI9_0)
	addi.d	$a0, $a0, %pc_lo12(.LCPI9_0)
	ld.w	$a2, $s1, 480
	blez	$a2, .LBB9_277
# %bb.9:                                # %.lr.ph.preheader.i1105
	ld.bu	$a1, $s1, 464
	andi	$a1, $a1, 1
	sltui	$a1, $a1, 1
	slli.d	$a1, $a1, 3
	fldx.d	$fa0, $a0, $a1
	ld.d	$a3, $s1, 472
	ori	$a1, $zero, 4
	bgeu	$a2, $a1, .LBB9_272
# %bb.10:
	move	$a1, $zero
	b	.LBB9_275
.LBB9_11:
	pcalau12i	$a0, %pc_hi20(.LCPI9_0)
	addi.d	$a0, $a0, %pc_lo12(.LCPI9_0)
	ld.w	$a2, $s1, 480
	blez	$a2, .LBB9_306
# %bb.12:                               # %.lr.ph.preheader.i679
	ld.bu	$a1, $s1, 464
	andi	$a1, $a1, 1
	sltui	$a1, $a1, 1
	slli.d	$a1, $a1, 3
	fldx.d	$fa0, $a0, $a1
	ld.d	$a3, $s1, 472
	ori	$a1, $zero, 4
	bgeu	$a2, $a1, .LBB9_301
# %bb.13:
	move	$a1, $zero
	b	.LBB9_304
.LBB9_14:
	pcalau12i	$a0, %pc_hi20(.LCPI9_0)
	addi.d	$a0, $a0, %pc_lo12(.LCPI9_0)
	ld.w	$a2, $s1, 864
	blez	$a2, .LBB9_319
# %bb.15:                               # %.lr.ph.preheader.i647
	ld.bu	$a1, $s1, 848
	andi	$a1, $a1, 1
	sltui	$a1, $a1, 1
	slli.d	$a1, $a1, 3
	fldx.d	$fa0, $a0, $a1
	ld.d	$a3, $s1, 856
	ori	$a1, $zero, 4
	bgeu	$a2, $a1, .LBB9_314
# %bb.16:
	move	$a1, $zero
	b	.LBB9_317
.LBB9_17:
	pcalau12i	$a0, %pc_hi20(.LCPI9_0)
	addi.d	$a0, $a0, %pc_lo12(.LCPI9_0)
	ld.w	$a2, $s1, 480
	blez	$a2, .LBB9_332
# %bb.18:                               # %.lr.ph.preheader.i566
	ld.bu	$a1, $s1, 464
	andi	$a1, $a1, 1
	sltui	$a1, $a1, 1
	slli.d	$a1, $a1, 3
	fldx.d	$fa0, $a0, $a1
	ld.d	$a3, $s1, 472
	ori	$a1, $zero, 4
	bgeu	$a2, $a1, .LBB9_327
# %bb.19:
	move	$a1, $zero
	b	.LBB9_330
.LBB9_20:
	ld.w	$a1, $s1, 912
	blez	$a1, .LBB9_22
# %bb.21:                               # %.lr.ph.preheader.i605
	ld.d	$a0, $s1, 904
	slli.d	$a2, $a1, 2
	move	$a1, $zero
	pcaddu18i	$ra, %call36(memset)
	jirl	$ra, $ra, 0
.LBB9_22:                               # %_ZN12_GLOBAL__N_18initDataERN8LoopData9IndxArrayE.exit
	ld.w	$a1, $s1, 1608
	blez	$a1, .LBB9_1187
# %bb.23:                               # %.lr.ph.preheader.i607
	ld.bu	$a0, $s1, 1592
	andi	$a0, $a0, 1
	sltui	$a0, $a0, 1
	slli.d	$a0, $a0, 3
	pcalau12i	$a2, %pc_hi20(.LCPI9_0)
	addi.d	$a2, $a2, %pc_lo12(.LCPI9_0)
	fldx.d	$fa0, $a2, $a0
	ld.d	$a2, $s1, 1600
	ori	$a0, $zero, 4
	bgeu	$a1, $a0, .LBB9_364
# %bb.24:
	move	$a0, $zero
	b	.LBB9_367
.LBB9_25:
	pcalau12i	$a0, %pc_hi20(.LCPI9_0)
	addi.d	$a0, $a0, %pc_lo12(.LCPI9_0)
	ld.w	$a2, $s1, 480
	blez	$a2, .LBB9_374
# %bb.26:                               # %.lr.ph.preheader.i
	ld.bu	$a1, $s1, 464
	andi	$a1, $a1, 1
	sltui	$a1, $a1, 1
	slli.d	$a1, $a1, 3
	fldx.d	$fa0, $a0, $a1
	ld.d	$a3, $s1, 472
	ori	$a1, $zero, 4
	bgeu	$a2, $a1, .LBB9_369
# %bb.27:
	move	$a1, $zero
	b	.LBB9_372
.LBB9_28:
	pcalau12i	$a0, %pc_hi20(.LCPI9_0)
	addi.d	$a0, $a0, %pc_lo12(.LCPI9_0)
	ld.w	$a2, $s1, 480
	blez	$a2, .LBB9_395
# %bb.29:                               # %.lr.ph.preheader.i486
	ld.bu	$a1, $s1, 464
	andi	$a1, $a1, 1
	sltui	$a1, $a1, 1
	slli.d	$a1, $a1, 3
	fldx.d	$fa0, $a0, $a1
	ld.d	$a3, $s1, 472
	ori	$a1, $zero, 4
	bgeu	$a2, $a1, .LBB9_390
# %bb.30:
	move	$a1, $zero
	b	.LBB9_393
.LBB9_31:
	pcalau12i	$a0, %pc_hi20(.LCPI9_0)
	addi.d	$a0, $a0, %pc_lo12(.LCPI9_0)
	ld.w	$a2, $s1, 480
	blez	$a2, .LBB9_432
# %bb.32:                               # %.lr.ph.preheader.i931
	ld.bu	$a1, $s1, 464
	andi	$a1, $a1, 1
	sltui	$a1, $a1, 1
	slli.d	$a1, $a1, 3
	fldx.d	$fa0, $a0, $a1
	ld.d	$a3, $s1, 472
	ori	$a1, $zero, 4
	bgeu	$a2, $a1, .LBB9_427
# %bb.33:
	move	$a1, $zero
	b	.LBB9_430
.LBB9_34:
	pcalau12i	$a0, %pc_hi20(.LCPI9_0)
	addi.d	$fp, $a0, %pc_lo12(.LCPI9_0)
	ld.w	$a1, $s1, 1152
	blez	$a1, .LBB9_515
# %bb.35:                               # %.lr.ph.preheader.i879
	ld.bu	$a0, $s1, 1136
	andi	$a0, $a0, 1
	sltui	$a0, $a0, 1
	slli.d	$a0, $a0, 3
	fldx.d	$fa0, $fp, $a0
	ld.d	$a2, $s1, 1144
	ori	$a0, $zero, 4
	bgeu	$a1, $a0, .LBB9_510
# %bb.36:
	move	$a0, $zero
	b	.LBB9_513
.LBB9_37:
	pcalau12i	$a0, %pc_hi20(.LCPI9_0)
	addi.d	$a0, $a0, %pc_lo12(.LCPI9_0)
	ld.w	$a2, $s1, 480
	blez	$a2, .LBB9_564
# %bb.38:                               # %.lr.ph.preheader.i663
	ld.bu	$a1, $s1, 464
	andi	$a1, $a1, 1
	sltui	$a1, $a1, 1
	slli.d	$a1, $a1, 3
	fldx.d	$fa0, $a0, $a1
	ld.d	$a3, $s1, 472
	ori	$a1, $zero, 4
	bgeu	$a2, $a1, .LBB9_559
# %bb.39:
	move	$a1, $zero
	b	.LBB9_562
.LBB9_40:
	pcalau12i	$a0, %pc_hi20(.LCPI9_0)
	addi.d	$a0, $a0, %pc_lo12(.LCPI9_0)
	pcalau12i	$a1, %pc_hi20(.LCPI9_3)
	addi.d	$a1, $a1, %pc_lo12(.LCPI9_3)
	ld.w	$a3, $s1, 1032
	blez	$a3, .LBB9_577
# %bb.41:                               # %.lr.ph.preheader.i419
	ld.bu	$a2, $s1, 1016
	andi	$a2, $a2, 1
	sltui	$a2, $a2, 1
	slli.d	$a2, $a2, 3
	fldx.d	$fa0, $a0, $a2
	fldx.d	$fa1, $a1, $a2
	ld.d	$a4, $s1, 1024
	ori	$a2, $zero, 1
	bne	$a3, $a2, .LBB9_572
# %bb.42:
	move	$a2, $zero
	b	.LBB9_575
.LBB9_43:
	pcalau12i	$a0, %pc_hi20(.LCPI9_0)
	addi.d	$a0, $a0, %pc_lo12(.LCPI9_0)
	ld.w	$a2, $s1, 1248
	blez	$a2, .LBB9_614
# %bb.44:                               # %.lr.ph.preheader.i1281
	ld.bu	$a1, $s1, 1232
	andi	$a1, $a1, 1
	sltui	$a1, $a1, 1
	slli.d	$a1, $a1, 3
	fldx.d	$fa0, $a0, $a1
	ld.d	$a3, $s1, 1240
	ori	$a1, $zero, 4
	bgeu	$a2, $a1, .LBB9_609
# %bb.45:
	move	$a1, $zero
	b	.LBB9_612
.LBB9_46:
	pcalau12i	$a0, %pc_hi20(.LCPI9_0)
	addi.d	$a0, $a0, %pc_lo12(.LCPI9_0)
	ld.w	$a2, $s1, 480
	blez	$a2, .LBB9_659
# %bb.47:                               # %.lr.ph.preheader.i695
	ld.bu	$a1, $s1, 464
	andi	$a1, $a1, 1
	sltui	$a1, $a1, 1
	slli.d	$a1, $a1, 3
	fldx.d	$fa0, $a0, $a1
	ld.d	$a3, $s1, 472
	ori	$a1, $zero, 4
	bgeu	$a2, $a1, .LBB9_654
# %bb.48:
	move	$a1, $zero
	b	.LBB9_657
.LBB9_49:
	pcalau12i	$a0, %pc_hi20(.LCPI9_0)
	addi.d	$a0, $a0, %pc_lo12(.LCPI9_0)
	ld.w	$a2, $s1, 1152
	blez	$a2, .LBB9_680
# %bb.50:                               # %.lr.ph.preheader.i815
	ld.bu	$a1, $s1, 1136
	andi	$a1, $a1, 1
	sltui	$a1, $a1, 1
	slli.d	$a1, $a1, 3
	fldx.d	$fa0, $a0, $a1
	ld.d	$a3, $s1, 1144
	ori	$a1, $zero, 4
	bgeu	$a2, $a1, .LBB9_675
# %bb.51:
	move	$a1, $zero
	b	.LBB9_678
.LBB9_52:
	pcalau12i	$a0, %pc_hi20(.LCPI9_0)
	addi.d	$a0, $a0, %pc_lo12(.LCPI9_0)
	ld.w	$a2, $s1, 480
	blez	$a2, .LBB9_693
# %bb.53:                               # %.lr.ph.preheader.i347
	ld.bu	$a1, $s1, 464
	andi	$a1, $a1, 1
	sltui	$a1, $a1, 1
	slli.d	$a1, $a1, 3
	fldx.d	$fa0, $a0, $a1
	ld.d	$a3, $s1, 472
	ori	$a1, $zero, 4
	bgeu	$a2, $a1, .LBB9_688
# %bb.54:
	move	$a1, $zero
	b	.LBB9_691
.LBB9_55:
	pcalau12i	$a0, %pc_hi20(.LCPI9_0)
	addi.d	$a0, $a0, %pc_lo12(.LCPI9_0)
	ld.w	$a2, $s1, 1152
	blez	$a2, .LBB9_722
# %bb.56:                               # %.lr.ph.preheader.i831
	ld.bu	$a1, $s1, 1136
	andi	$a1, $a1, 1
	sltui	$a1, $a1, 1
	slli.d	$a1, $a1, 3
	fldx.d	$fa0, $a0, $a1
	ld.d	$a3, $s1, 1144
	ori	$a1, $zero, 4
	bgeu	$a2, $a1, .LBB9_717
# %bb.57:
	move	$a1, $zero
	b	.LBB9_720
.LBB9_58:
	pcalau12i	$a0, %pc_hi20(.LCPI9_0)
	addi.d	$a0, $a0, %pc_lo12(.LCPI9_0)
	ld.w	$a2, $s1, 480
	blez	$a2, .LBB9_735
# %bb.59:                               # %.lr.ph.preheader.i615
	ld.bu	$a1, $s1, 464
	andi	$a1, $a1, 1
	sltui	$a1, $a1, 1
	slli.d	$a1, $a1, 3
	fldx.d	$fa0, $a0, $a1
	ld.d	$a3, $s1, 472
	ori	$a1, $zero, 4
	bgeu	$a2, $a1, .LBB9_730
# %bb.60:
	move	$a1, $zero
	b	.LBB9_733
.LBB9_61:
	pcalau12i	$a0, %pc_hi20(.LCPI9_0)
	addi.d	$a0, $a0, %pc_lo12(.LCPI9_0)
	ld.w	$a2, $s1, 480
	blez	$a2, .LBB9_764
# %bb.62:                               # %.lr.ph.preheader.i379
	ld.bu	$a1, $s1, 464
	andi	$a1, $a1, 1
	sltui	$a1, $a1, 1
	slli.d	$a1, $a1, 3
	fldx.d	$fa0, $a0, $a1
	ld.d	$a3, $s1, 472
	ori	$a1, $zero, 4
	bgeu	$a2, $a1, .LBB9_759
# %bb.63:
	move	$a1, $zero
	b	.LBB9_762
.LBB9_64:
	pcalau12i	$a0, %pc_hi20(.LCPI9_0)
	addi.d	$a0, $a0, %pc_lo12(.LCPI9_0)
	ld.w	$a2, $s1, 480
	blez	$a2, .LBB9_801
# %bb.65:                               # %.lr.ph.preheader.i719
	ld.bu	$a1, $s1, 464
	andi	$a1, $a1, 1
	sltui	$a1, $a1, 1
	slli.d	$a1, $a1, 3
	fldx.d	$fa0, $a0, $a1
	ld.d	$a3, $s1, 472
	ori	$a1, $zero, 4
	bgeu	$a2, $a1, .LBB9_796
# %bb.66:
	move	$a1, $zero
	b	.LBB9_799
.LBB9_67:
	pcalau12i	$a0, %pc_hi20(.LCPI9_0)
	addi.d	$a0, $a0, %pc_lo12(.LCPI9_0)
	ld.w	$a2, $s1, 480
	blez	$a2, .LBB9_838
# %bb.68:                               # %.lr.ph.preheader.i526
	ld.bu	$a1, $s1, 464
	andi	$a1, $a1, 1
	sltui	$a1, $a1, 1
	slli.d	$a1, $a1, 3
	fldx.d	$fa0, $a0, $a1
	ld.d	$a3, $s1, 472
	ori	$a1, $zero, 4
	bgeu	$a2, $a1, .LBB9_833
# %bb.69:
	move	$a1, $zero
	b	.LBB9_836
.LBB9_70:
	pcalau12i	$a0, %pc_hi20(.LCPI9_0)
	addi.d	$a0, $a0, %pc_lo12(.LCPI9_0)
	ld.w	$a2, $s1, 480
	blez	$a2, .LBB9_875
# %bb.71:                               # %.lr.ph.preheader.i470
	ld.bu	$a1, $s1, 464
	andi	$a1, $a1, 1
	sltui	$a1, $a1, 1
	slli.d	$a1, $a1, 3
	fldx.d	$fa0, $a0, $a1
	ld.d	$a3, $s1, 472
	ori	$a1, $zero, 4
	bgeu	$a2, $a1, .LBB9_870
# %bb.72:
	move	$a1, $zero
	b	.LBB9_873
.LBB9_73:
	pcalau12i	$a0, %pc_hi20(.LCPI9_0)
	addi.d	$a0, $a0, %pc_lo12(.LCPI9_0)
	ld.w	$a2, $s1, 480
	blez	$a2, .LBB9_888
# %bb.74:                               # %.lr.ph.preheader.i1241
	ld.bu	$a1, $s1, 464
	andi	$a1, $a1, 1
	sltui	$a1, $a1, 1
	slli.d	$a1, $a1, 3
	fldx.d	$fa0, $a0, $a1
	ld.d	$a3, $s1, 472
	ori	$a1, $zero, 4
	bgeu	$a2, $a1, .LBB9_883
# %bb.75:
	move	$a1, $zero
	b	.LBB9_886
.LBB9_76:
	ld.w	$a1, $s1, 480
	blez	$a1, .LBB9_1187
# %bb.77:                               # %.lr.ph.preheader.i1329
	ld.bu	$a0, $s1, 464
	andi	$a0, $a0, 1
	sltui	$a0, $a0, 1
	slli.d	$a0, $a0, 3
	pcalau12i	$a2, %pc_hi20(.LCPI9_0)
	addi.d	$a2, $a2, %pc_lo12(.LCPI9_0)
	fldx.d	$fa0, $a2, $a0
	ld.d	$a2, $s1, 472
	ori	$a0, $zero, 4
	bgeu	$a1, $a0, .LBB9_920
# %bb.78:
	move	$a0, $zero
	b	.LBB9_923
.LBB9_79:
	pcalau12i	$a0, %pc_hi20(.LCPI9_0)
	addi.d	$a0, $a0, %pc_lo12(.LCPI9_0)
	ld.w	$a2, $s1, 480
	blez	$a2, .LBB9_930
# %bb.80:                               # %.lr.ph.preheader.i847
	ld.bu	$a1, $s1, 464
	andi	$a1, $a1, 1
	sltui	$a1, $a1, 1
	slli.d	$a1, $a1, 3
	fldx.d	$fa0, $a0, $a1
	ld.d	$a3, $s1, 472
	ori	$a1, $zero, 4
	bgeu	$a2, $a1, .LBB9_925
# %bb.81:
	move	$a1, $zero
	b	.LBB9_928
.LBB9_82:
	pcalau12i	$a0, %pc_hi20(.LCPI9_0)
	addi.d	$a0, $a0, %pc_lo12(.LCPI9_0)
	ld.w	$a2, $s1, 480
	blez	$a2, .LBB9_943
# %bb.83:                               # %.lr.ph.preheader.i759
	ld.bu	$a1, $s1, 464
	andi	$a1, $a1, 1
	sltui	$a1, $a1, 1
	slli.d	$a1, $a1, 3
	fldx.d	$fa0, $a0, $a1
	ld.d	$a3, $s1, 472
	ori	$a1, $zero, 4
	bgeu	$a2, $a1, .LBB9_938
# %bb.84:
	move	$a1, $zero
	b	.LBB9_941
.LBB9_85:
	pcalau12i	$a0, %pc_hi20(.LCPI9_0)
	addi.d	$a0, $a0, %pc_lo12(.LCPI9_0)
	ld.w	$a2, $s1, 480
	blez	$a2, .LBB9_996
# %bb.86:                               # %.lr.ph.preheader.i863
	ld.bu	$a1, $s1, 464
	andi	$a1, $a1, 1
	sltui	$a1, $a1, 1
	slli.d	$a1, $a1, 3
	fldx.d	$fa0, $a0, $a1
	ld.d	$a3, $s1, 472
	ori	$a1, $zero, 4
	bgeu	$a2, $a1, .LBB9_991
# %bb.87:
	move	$a1, $zero
	b	.LBB9_994
.LBB9_88:
	pcalau12i	$a0, %pc_hi20(.LCPI9_0)
	addi.d	$a0, $a0, %pc_lo12(.LCPI9_0)
	ld.w	$a2, $s1, 480
	blez	$a2, .LBB9_1009
# %bb.89:                               # %.lr.ph.preheader.i1137
	ld.bu	$a1, $s1, 464
	andi	$a1, $a1, 1
	sltui	$a1, $a1, 1
	slli.d	$a1, $a1, 3
	fldx.d	$fa0, $a0, $a1
	ld.d	$a3, $s1, 472
	ori	$a1, $zero, 4
	bgeu	$a2, $a1, .LBB9_1004
# %bb.90:
	move	$a1, $zero
	b	.LBB9_1007
.LBB9_91:
	pcalau12i	$a0, %pc_hi20(.LCPI9_0)
	addi.d	$a0, $a0, %pc_lo12(.LCPI9_0)
	ld.w	$a2, $s1, 1152
	blez	$a2, .LBB9_1086
# %bb.92:                               # %.lr.ph.preheader.i1217
	ld.bu	$a1, $s1, 1136
	andi	$a1, $a1, 1
	sltui	$a1, $a1, 1
	slli.d	$a1, $a1, 3
	fldx.d	$fa0, $a0, $a1
	ld.d	$a3, $s1, 1144
	ori	$a1, $zero, 4
	bgeu	$a2, $a1, .LBB9_1081
# %bb.93:
	move	$a1, $zero
	b	.LBB9_1084
.LBB9_94:
	pcalau12i	$a0, %pc_hi20(.LCPI9_0)
	addi.d	$a0, $a0, %pc_lo12(.LCPI9_0)
	ld.w	$a2, $s1, 1248
	blez	$a2, .LBB9_1107
# %bb.95:                               # %.lr.ph.preheader.i1017
	ld.bu	$a1, $s1, 1232
	andi	$a1, $a1, 1
	sltui	$a1, $a1, 1
	slli.d	$a1, $a1, 3
	fldx.d	$fa0, $a0, $a1
	ld.d	$a3, $s1, 1240
	ori	$a1, $zero, 4
	bgeu	$a2, $a1, .LBB9_1102
# %bb.96:
	move	$a1, $zero
	b	.LBB9_1105
.LBB9_97:
	pcalau12i	$a0, %got_pc_hi20(_ZSt4cout)
	ld.d	$s0, $a0, %got_pc_lo12(_ZSt4cout)
	pcalau12i	$a0, %pc_hi20(.L.str.36)
	addi.d	$a1, $a0, %pc_lo12(.L.str.36)
	ori	$a2, $zero, 20
	move	$a0, $s0
	pcaddu18i	$ra, %call36(_ZSt16__ostream_insertIcSt11char_traitsIcEERSt13basic_ostreamIT_T0_ES6_PKS3_l)
	jirl	$ra, $ra, 0
	bstrpick.d	$a1, $fp, 31, 0
	move	$a0, $s0
	pcaddu18i	$ra, %call36(_ZNSo9_M_insertImEERSoT_)
	jirl	$ra, $ra, 0
	ld.d	$a1, $a0, 0
	ld.d	$a1, $a1, -24
	add.d	$a1, $a0, $a1
	ld.d	$fp, $a1, 240
	beqz	$fp, .LBB9_1188
# %bb.98:                               # %_ZSt13__check_facetISt5ctypeIcEERKT_PS3_.exit.i.i
	ld.bu	$a1, $fp, 56
	beqz	$a1, .LBB9_270
# %bb.99:
	ld.bu	$a1, $fp, 67
	b	.LBB9_271
.LBB9_100:                              # %vector.ph3787
	bstrpick.d	$a1, $a2, 30, 2
	slli.d	$a1, $a1, 2
	vreplvei.d	$vr1, $vr0, 0
	addi.d	$a4, $a3, 16
	ori	$a5, $zero, 0
	lu32i.d	$a5, 1
	vreplgr2vr.d	$vr2, $a5
	lu12i.w	$a5, -419431
	ori	$a5, $a5, 2458
	lu32i.d	$a5, 104857
	lu52i.d	$a5, $a5, 1023
	vreplgr2vr.d	$vr3, $a5
	lu12i.w	$a5, -307024
	ori	$a5, $a5, 3880
	lu32i.d	$a5, 129446
	lu52i.d	$a5, $a5, 1023
	vreplgr2vr.d	$vr4, $a5
	move	$a5, $a1
	.p2align	4, , 16
.LBB9_101:                              # %vector.body3792
                                        # =>This Inner Loop Header: Depth=1
	vaddi.wu	$vr5, $vr2, 2
	vpickve2gr.w	$a6, $vr2, 1
	bstrpick.d	$a6, $a6, 31, 0
	movgr2fr.d	$fa6, $a6
	ffint.d.l	$fa6, $fa6
	vpickve2gr.w	$a6, $vr2, 0
	bstrpick.d	$a6, $a6, 31, 0
	movgr2fr.d	$fa7, $a6
	ffint.d.l	$fa7, $fa7
	vextrins.d	$vr7, $vr6, 16
	vpickve2gr.w	$a6, $vr5, 1
	bstrpick.d	$a6, $a6, 31, 0
	movgr2fr.d	$fa6, $a6
	ffint.d.l	$fa6, $fa6
	vpickve2gr.w	$a6, $vr5, 0
	bstrpick.d	$a6, $a6, 31, 0
	movgr2fr.d	$fa5, $a6
	ffint.d.l	$fa5, $fa5
	vextrins.d	$vr5, $vr6, 16
	vfadd.d	$vr6, $vr7, $vr3
	vfadd.d	$vr8, $vr5, $vr3
	vfmul.d	$vr6, $vr1, $vr6
	vfmul.d	$vr8, $vr1, $vr8
	vfadd.d	$vr7, $vr7, $vr4
	vfadd.d	$vr5, $vr5, $vr4
	vfdiv.d	$vr6, $vr6, $vr7
	vfdiv.d	$vr5, $vr8, $vr5
	vst	$vr6, $a4, -16
	vst	$vr5, $a4, 0
	vaddi.wu	$vr2, $vr2, 4
	addi.d	$a5, $a5, -4
	addi.d	$a4, $a4, 32
	bnez	$a5, .LBB9_101
# %bb.102:                              # %middle.block3798
	beq	$a1, $a2, .LBB9_105
.LBB9_103:                              # %.lr.ph.i173.preheader
	pcalau12i	$a4, %pc_hi20(.LCPI9_1)
	fld.d	$fa1, $a4, %pc_lo12(.LCPI9_1)
	pcalau12i	$a4, %pc_hi20(.LCPI9_2)
	fld.d	$fa2, $a4, %pc_lo12(.LCPI9_2)
	sub.d	$a2, $a2, $a1
	alsl.d	$a3, $a1, $a3, 3
	.p2align	4, , 16
.LBB9_104:                              # %.lr.ph.i173
                                        # =>This Inner Loop Header: Depth=1
	bstrpick.d	$a4, $a1, 31, 0
	movgr2fr.d	$fa3, $a4
	ffint.d.l	$fa3, $fa3
	fadd.d	$fa4, $fa3, $fa1
	fmul.d	$fa4, $fa0, $fa4
	fadd.d	$fa3, $fa3, $fa2
	fdiv.d	$fa3, $fa4, $fa3
	fst.d	$fa3, $a3, 0
	addi.d	$a2, $a2, -1
	addi.d	$a3, $a3, 8
	addi.w	$a1, $a1, 1
	bnez	$a2, .LBB9_104
.LBB9_105:                              # %_ZN12_GLOBAL__N_18initDataERN8LoopData9RealArrayE.exit177
	ld.w	$a2, $s1, 504
	blez	$a2, .LBB9_113
# %bb.106:                              # %.lr.ph.preheader.i179
	ld.bu	$a1, $s1, 488
	andi	$a1, $a1, 1
	sltui	$a1, $a1, 1
	slli.d	$a1, $a1, 3
	fldx.d	$fa0, $a0, $a1
	ld.d	$a3, $s1, 496
	ori	$a1, $zero, 4
	bgeu	$a2, $a1, .LBB9_108
# %bb.107:
	move	$a1, $zero
	b	.LBB9_111
.LBB9_108:                              # %vector.ph3803
	bstrpick.d	$a1, $a2, 30, 2
	slli.d	$a1, $a1, 2
	vreplvei.d	$vr1, $vr0, 0
	addi.d	$a4, $a3, 16
	ori	$a5, $zero, 0
	lu32i.d	$a5, 1
	vreplgr2vr.d	$vr2, $a5
	lu12i.w	$a5, -419431
	ori	$a5, $a5, 2458
	lu32i.d	$a5, 104857
	lu52i.d	$a5, $a5, 1023
	vreplgr2vr.d	$vr3, $a5
	lu12i.w	$a5, -307024
	ori	$a5, $a5, 3880
	lu32i.d	$a5, 129446
	lu52i.d	$a5, $a5, 1023
	vreplgr2vr.d	$vr4, $a5
	move	$a5, $a1
	.p2align	4, , 16
.LBB9_109:                              # %vector.body3808
                                        # =>This Inner Loop Header: Depth=1
	vaddi.wu	$vr5, $vr2, 2
	vpickve2gr.w	$a6, $vr2, 1
	bstrpick.d	$a6, $a6, 31, 0
	movgr2fr.d	$fa6, $a6
	ffint.d.l	$fa6, $fa6
	vpickve2gr.w	$a6, $vr2, 0
	bstrpick.d	$a6, $a6, 31, 0
	movgr2fr.d	$fa7, $a6
	ffint.d.l	$fa7, $fa7
	vextrins.d	$vr7, $vr6, 16
	vpickve2gr.w	$a6, $vr5, 1
	bstrpick.d	$a6, $a6, 31, 0
	movgr2fr.d	$fa6, $a6
	ffint.d.l	$fa6, $fa6
	vpickve2gr.w	$a6, $vr5, 0
	bstrpick.d	$a6, $a6, 31, 0
	movgr2fr.d	$fa5, $a6
	ffint.d.l	$fa5, $fa5
	vextrins.d	$vr5, $vr6, 16
	vfadd.d	$vr6, $vr7, $vr3
	vfadd.d	$vr8, $vr5, $vr3
	vfmul.d	$vr6, $vr1, $vr6
	vfmul.d	$vr8, $vr1, $vr8
	vfadd.d	$vr7, $vr7, $vr4
	vfadd.d	$vr5, $vr5, $vr4
	vfdiv.d	$vr6, $vr6, $vr7
	vfdiv.d	$vr5, $vr8, $vr5
	vst	$vr6, $a4, -16
	vst	$vr5, $a4, 0
	vaddi.wu	$vr2, $vr2, 4
	addi.d	$a5, $a5, -4
	addi.d	$a4, $a4, 32
	bnez	$a5, .LBB9_109
# %bb.110:                              # %middle.block3814
	beq	$a1, $a2, .LBB9_113
.LBB9_111:                              # %.lr.ph.i181.preheader
	pcalau12i	$a4, %pc_hi20(.LCPI9_1)
	fld.d	$fa1, $a4, %pc_lo12(.LCPI9_1)
	pcalau12i	$a4, %pc_hi20(.LCPI9_2)
	fld.d	$fa2, $a4, %pc_lo12(.LCPI9_2)
	sub.d	$a2, $a2, $a1
	alsl.d	$a3, $a1, $a3, 3
	.p2align	4, , 16
.LBB9_112:                              # %.lr.ph.i181
                                        # =>This Inner Loop Header: Depth=1
	bstrpick.d	$a4, $a1, 31, 0
	movgr2fr.d	$fa3, $a4
	ffint.d.l	$fa3, $fa3
	fadd.d	$fa4, $fa3, $fa1
	fmul.d	$fa4, $fa0, $fa4
	fadd.d	$fa3, $fa3, $fa2
	fdiv.d	$fa3, $fa4, $fa3
	fst.d	$fa3, $a3, 0
	addi.d	$a2, $a2, -1
	addi.d	$a3, $a3, 8
	addi.w	$a1, $a1, 1
	bnez	$a2, .LBB9_112
.LBB9_113:                              # %_ZN12_GLOBAL__N_18initDataERN8LoopData9RealArrayE.exit185
	ld.w	$a2, $s1, 528
	blez	$a2, .LBB9_121
# %bb.114:                              # %.lr.ph.preheader.i187
	ld.bu	$a1, $s1, 512
	andi	$a1, $a1, 1
	sltui	$a1, $a1, 1
	slli.d	$a1, $a1, 3
	fldx.d	$fa0, $a0, $a1
	ld.d	$a3, $s1, 520
	ori	$a1, $zero, 4
	bgeu	$a2, $a1, .LBB9_116
# %bb.115:
	move	$a1, $zero
	b	.LBB9_119
.LBB9_116:                              # %vector.ph3819
	bstrpick.d	$a1, $a2, 30, 2
	slli.d	$a1, $a1, 2
	vreplvei.d	$vr1, $vr0, 0
	addi.d	$a4, $a3, 16
	ori	$a5, $zero, 0
	lu32i.d	$a5, 1
	vreplgr2vr.d	$vr2, $a5
	lu12i.w	$a5, -419431
	ori	$a5, $a5, 2458
	lu32i.d	$a5, 104857
	lu52i.d	$a5, $a5, 1023
	vreplgr2vr.d	$vr3, $a5
	lu12i.w	$a5, -307024
	ori	$a5, $a5, 3880
	lu32i.d	$a5, 129446
	lu52i.d	$a5, $a5, 1023
	vreplgr2vr.d	$vr4, $a5
	move	$a5, $a1
	.p2align	4, , 16
.LBB9_117:                              # %vector.body3824
                                        # =>This Inner Loop Header: Depth=1
	vaddi.wu	$vr5, $vr2, 2
	vpickve2gr.w	$a6, $vr2, 1
	bstrpick.d	$a6, $a6, 31, 0
	movgr2fr.d	$fa6, $a6
	ffint.d.l	$fa6, $fa6
	vpickve2gr.w	$a6, $vr2, 0
	bstrpick.d	$a6, $a6, 31, 0
	movgr2fr.d	$fa7, $a6
	ffint.d.l	$fa7, $fa7
	vextrins.d	$vr7, $vr6, 16
	vpickve2gr.w	$a6, $vr5, 1
	bstrpick.d	$a6, $a6, 31, 0
	movgr2fr.d	$fa6, $a6
	ffint.d.l	$fa6, $fa6
	vpickve2gr.w	$a6, $vr5, 0
	bstrpick.d	$a6, $a6, 31, 0
	movgr2fr.d	$fa5, $a6
	ffint.d.l	$fa5, $fa5
	vextrins.d	$vr5, $vr6, 16
	vfadd.d	$vr6, $vr7, $vr3
	vfadd.d	$vr8, $vr5, $vr3
	vfmul.d	$vr6, $vr1, $vr6
	vfmul.d	$vr8, $vr1, $vr8
	vfadd.d	$vr7, $vr7, $vr4
	vfadd.d	$vr5, $vr5, $vr4
	vfdiv.d	$vr6, $vr6, $vr7
	vfdiv.d	$vr5, $vr8, $vr5
	vst	$vr6, $a4, -16
	vst	$vr5, $a4, 0
	vaddi.wu	$vr2, $vr2, 4
	addi.d	$a5, $a5, -4
	addi.d	$a4, $a4, 32
	bnez	$a5, .LBB9_117
# %bb.118:                              # %middle.block3830
	beq	$a1, $a2, .LBB9_121
.LBB9_119:                              # %.lr.ph.i189.preheader
	pcalau12i	$a4, %pc_hi20(.LCPI9_1)
	fld.d	$fa1, $a4, %pc_lo12(.LCPI9_1)
	pcalau12i	$a4, %pc_hi20(.LCPI9_2)
	fld.d	$fa2, $a4, %pc_lo12(.LCPI9_2)
	sub.d	$a2, $a2, $a1
	alsl.d	$a3, $a1, $a3, 3
	.p2align	4, , 16
.LBB9_120:                              # %.lr.ph.i189
                                        # =>This Inner Loop Header: Depth=1
	bstrpick.d	$a4, $a1, 31, 0
	movgr2fr.d	$fa3, $a4
	ffint.d.l	$fa3, $fa3
	fadd.d	$fa4, $fa3, $fa1
	fmul.d	$fa4, $fa0, $fa4
	fadd.d	$fa3, $fa3, $fa2
	fdiv.d	$fa3, $fa4, $fa3
	fst.d	$fa3, $a3, 0
	addi.d	$a2, $a2, -1
	addi.d	$a3, $a3, 8
	addi.w	$a1, $a1, 1
	bnez	$a2, .LBB9_120
.LBB9_121:                              # %_ZN12_GLOBAL__N_18initDataERN8LoopData9RealArrayE.exit193
	ld.w	$a2, $s1, 552
	blez	$a2, .LBB9_129
# %bb.122:                              # %.lr.ph.preheader.i195
	ld.bu	$a1, $s1, 536
	andi	$a1, $a1, 1
	sltui	$a1, $a1, 1
	slli.d	$a1, $a1, 3
	fldx.d	$fa0, $a0, $a1
	ld.d	$a3, $s1, 544
	ori	$a1, $zero, 4
	bgeu	$a2, $a1, .LBB9_124
# %bb.123:
	move	$a1, $zero
	b	.LBB9_127
.LBB9_124:                              # %vector.ph3835
	bstrpick.d	$a1, $a2, 30, 2
	slli.d	$a1, $a1, 2
	vreplvei.d	$vr1, $vr0, 0
	addi.d	$a4, $a3, 16
	ori	$a5, $zero, 0
	lu32i.d	$a5, 1
	vreplgr2vr.d	$vr2, $a5
	lu12i.w	$a5, -419431
	ori	$a5, $a5, 2458
	lu32i.d	$a5, 104857
	lu52i.d	$a5, $a5, 1023
	vreplgr2vr.d	$vr3, $a5
	lu12i.w	$a5, -307024
	ori	$a5, $a5, 3880
	lu32i.d	$a5, 129446
	lu52i.d	$a5, $a5, 1023
	vreplgr2vr.d	$vr4, $a5
	move	$a5, $a1
	.p2align	4, , 16
.LBB9_125:                              # %vector.body3840
                                        # =>This Inner Loop Header: Depth=1
	vaddi.wu	$vr5, $vr2, 2
	vpickve2gr.w	$a6, $vr2, 1
	bstrpick.d	$a6, $a6, 31, 0
	movgr2fr.d	$fa6, $a6
	ffint.d.l	$fa6, $fa6
	vpickve2gr.w	$a6, $vr2, 0
	bstrpick.d	$a6, $a6, 31, 0
	movgr2fr.d	$fa7, $a6
	ffint.d.l	$fa7, $fa7
	vextrins.d	$vr7, $vr6, 16
	vpickve2gr.w	$a6, $vr5, 1
	bstrpick.d	$a6, $a6, 31, 0
	movgr2fr.d	$fa6, $a6
	ffint.d.l	$fa6, $fa6
	vpickve2gr.w	$a6, $vr5, 0
	bstrpick.d	$a6, $a6, 31, 0
	movgr2fr.d	$fa5, $a6
	ffint.d.l	$fa5, $fa5
	vextrins.d	$vr5, $vr6, 16
	vfadd.d	$vr6, $vr7, $vr3
	vfadd.d	$vr8, $vr5, $vr3
	vfmul.d	$vr6, $vr1, $vr6
	vfmul.d	$vr8, $vr1, $vr8
	vfadd.d	$vr7, $vr7, $vr4
	vfadd.d	$vr5, $vr5, $vr4
	vfdiv.d	$vr6, $vr6, $vr7
	vfdiv.d	$vr5, $vr8, $vr5
	vst	$vr6, $a4, -16
	vst	$vr5, $a4, 0
	vaddi.wu	$vr2, $vr2, 4
	addi.d	$a5, $a5, -4
	addi.d	$a4, $a4, 32
	bnez	$a5, .LBB9_125
# %bb.126:                              # %middle.block3846
	beq	$a1, $a2, .LBB9_129
.LBB9_127:                              # %.lr.ph.i197.preheader
	pcalau12i	$a4, %pc_hi20(.LCPI9_1)
	fld.d	$fa1, $a4, %pc_lo12(.LCPI9_1)
	pcalau12i	$a4, %pc_hi20(.LCPI9_2)
	fld.d	$fa2, $a4, %pc_lo12(.LCPI9_2)
	sub.d	$a2, $a2, $a1
	alsl.d	$a3, $a1, $a3, 3
	.p2align	4, , 16
.LBB9_128:                              # %.lr.ph.i197
                                        # =>This Inner Loop Header: Depth=1
	bstrpick.d	$a4, $a1, 31, 0
	movgr2fr.d	$fa3, $a4
	ffint.d.l	$fa3, $fa3
	fadd.d	$fa4, $fa3, $fa1
	fmul.d	$fa4, $fa0, $fa4
	fadd.d	$fa3, $fa3, $fa2
	fdiv.d	$fa3, $fa4, $fa3
	fst.d	$fa3, $a3, 0
	addi.d	$a2, $a2, -1
	addi.d	$a3, $a3, 8
	addi.w	$a1, $a1, 1
	bnez	$a2, .LBB9_128
.LBB9_129:                              # %_ZN12_GLOBAL__N_18initDataERN8LoopData9RealArrayE.exit201
	ld.w	$a2, $s1, 576
	blez	$a2, .LBB9_137
# %bb.130:                              # %.lr.ph.preheader.i203
	ld.bu	$a1, $s1, 560
	andi	$a1, $a1, 1
	sltui	$a1, $a1, 1
	slli.d	$a1, $a1, 3
	fldx.d	$fa0, $a0, $a1
	ld.d	$a3, $s1, 568
	ori	$a1, $zero, 4
	bgeu	$a2, $a1, .LBB9_132
# %bb.131:
	move	$a1, $zero
	b	.LBB9_135
.LBB9_132:                              # %vector.ph3851
	bstrpick.d	$a1, $a2, 30, 2
	slli.d	$a1, $a1, 2
	vreplvei.d	$vr1, $vr0, 0
	addi.d	$a4, $a3, 16
	ori	$a5, $zero, 0
	lu32i.d	$a5, 1
	vreplgr2vr.d	$vr2, $a5
	lu12i.w	$a5, -419431
	ori	$a5, $a5, 2458
	lu32i.d	$a5, 104857
	lu52i.d	$a5, $a5, 1023
	vreplgr2vr.d	$vr3, $a5
	lu12i.w	$a5, -307024
	ori	$a5, $a5, 3880
	lu32i.d	$a5, 129446
	lu52i.d	$a5, $a5, 1023
	vreplgr2vr.d	$vr4, $a5
	move	$a5, $a1
	.p2align	4, , 16
.LBB9_133:                              # %vector.body3856
                                        # =>This Inner Loop Header: Depth=1
	vaddi.wu	$vr5, $vr2, 2
	vpickve2gr.w	$a6, $vr2, 1
	bstrpick.d	$a6, $a6, 31, 0
	movgr2fr.d	$fa6, $a6
	ffint.d.l	$fa6, $fa6
	vpickve2gr.w	$a6, $vr2, 0
	bstrpick.d	$a6, $a6, 31, 0
	movgr2fr.d	$fa7, $a6
	ffint.d.l	$fa7, $fa7
	vextrins.d	$vr7, $vr6, 16
	vpickve2gr.w	$a6, $vr5, 1
	bstrpick.d	$a6, $a6, 31, 0
	movgr2fr.d	$fa6, $a6
	ffint.d.l	$fa6, $fa6
	vpickve2gr.w	$a6, $vr5, 0
	bstrpick.d	$a6, $a6, 31, 0
	movgr2fr.d	$fa5, $a6
	ffint.d.l	$fa5, $fa5
	vextrins.d	$vr5, $vr6, 16
	vfadd.d	$vr6, $vr7, $vr3
	vfadd.d	$vr8, $vr5, $vr3
	vfmul.d	$vr6, $vr1, $vr6
	vfmul.d	$vr8, $vr1, $vr8
	vfadd.d	$vr7, $vr7, $vr4
	vfadd.d	$vr5, $vr5, $vr4
	vfdiv.d	$vr6, $vr6, $vr7
	vfdiv.d	$vr5, $vr8, $vr5
	vst	$vr6, $a4, -16
	vst	$vr5, $a4, 0
	vaddi.wu	$vr2, $vr2, 4
	addi.d	$a5, $a5, -4
	addi.d	$a4, $a4, 32
	bnez	$a5, .LBB9_133
# %bb.134:                              # %middle.block3862
	beq	$a1, $a2, .LBB9_137
.LBB9_135:                              # %.lr.ph.i205.preheader
	pcalau12i	$a4, %pc_hi20(.LCPI9_1)
	fld.d	$fa1, $a4, %pc_lo12(.LCPI9_1)
	pcalau12i	$a4, %pc_hi20(.LCPI9_2)
	fld.d	$fa2, $a4, %pc_lo12(.LCPI9_2)
	sub.d	$a2, $a2, $a1
	alsl.d	$a3, $a1, $a3, 3
	.p2align	4, , 16
.LBB9_136:                              # %.lr.ph.i205
                                        # =>This Inner Loop Header: Depth=1
	bstrpick.d	$a4, $a1, 31, 0
	movgr2fr.d	$fa3, $a4
	ffint.d.l	$fa3, $fa3
	fadd.d	$fa4, $fa3, $fa1
	fmul.d	$fa4, $fa0, $fa4
	fadd.d	$fa3, $fa3, $fa2
	fdiv.d	$fa3, $fa4, $fa3
	fst.d	$fa3, $a3, 0
	addi.d	$a2, $a2, -1
	addi.d	$a3, $a3, 8
	addi.w	$a1, $a1, 1
	bnez	$a2, .LBB9_136
.LBB9_137:                              # %_ZN12_GLOBAL__N_18initDataERN8LoopData9RealArrayE.exit209
	ld.w	$a1, $s1, 1608
	blez	$a1, .LBB9_1187
# %bb.138:                              # %.lr.ph.preheader.i211
	ld.bu	$a2, $s1, 1592
	andi	$a2, $a2, 1
	sltui	$a2, $a2, 1
	slli.d	$a2, $a2, 3
	fldx.d	$fa0, $a0, $a2
	ld.d	$a2, $s1, 1600
	ori	$a0, $zero, 4
	bgeu	$a1, $a0, .LBB9_140
# %bb.139:
	move	$a0, $zero
	b	.LBB9_143
.LBB9_140:                              # %vector.ph3867
	bstrpick.d	$a0, $a1, 30, 2
	slli.d	$a0, $a0, 2
	vreplvei.d	$vr1, $vr0, 0
	addi.d	$a3, $a2, 16
	ori	$a4, $zero, 0
	lu32i.d	$a4, 1
	vreplgr2vr.d	$vr2, $a4
	lu12i.w	$a4, -419431
	ori	$a4, $a4, 2458
	lu32i.d	$a4, 104857
	lu52i.d	$a4, $a4, 1023
	vreplgr2vr.d	$vr3, $a4
	lu12i.w	$a4, -307024
	ori	$a4, $a4, 3880
	lu32i.d	$a4, 129446
	lu52i.d	$a4, $a4, 1023
	vreplgr2vr.d	$vr4, $a4
	move	$a4, $a0
	.p2align	4, , 16
.LBB9_141:                              # %vector.body3872
                                        # =>This Inner Loop Header: Depth=1
	vaddi.wu	$vr5, $vr2, 2
	vpickve2gr.w	$a5, $vr2, 1
	bstrpick.d	$a5, $a5, 31, 0
	movgr2fr.d	$fa6, $a5
	ffint.d.l	$fa6, $fa6
	vpickve2gr.w	$a5, $vr2, 0
	bstrpick.d	$a5, $a5, 31, 0
	movgr2fr.d	$fa7, $a5
	ffint.d.l	$fa7, $fa7
	vextrins.d	$vr7, $vr6, 16
	vpickve2gr.w	$a5, $vr5, 1
	bstrpick.d	$a5, $a5, 31, 0
	movgr2fr.d	$fa6, $a5
	ffint.d.l	$fa6, $fa6
	vpickve2gr.w	$a5, $vr5, 0
	bstrpick.d	$a5, $a5, 31, 0
	movgr2fr.d	$fa5, $a5
	ffint.d.l	$fa5, $fa5
	vextrins.d	$vr5, $vr6, 16
	vfadd.d	$vr6, $vr7, $vr3
	vfadd.d	$vr8, $vr5, $vr3
	vfmul.d	$vr6, $vr1, $vr6
	vfmul.d	$vr8, $vr1, $vr8
	vfadd.d	$vr7, $vr7, $vr4
	vfadd.d	$vr5, $vr5, $vr4
	vfdiv.d	$vr6, $vr6, $vr7
	vfdiv.d	$vr5, $vr8, $vr5
	vst	$vr6, $a3, -16
	vst	$vr5, $a3, 0
	vaddi.wu	$vr2, $vr2, 4
	addi.d	$a4, $a4, -4
	addi.d	$a3, $a3, 32
	bnez	$a4, .LBB9_141
# %bb.142:                              # %middle.block3878
	beq	$a0, $a1, .LBB9_1187
.LBB9_143:                              # %.lr.ph.i213.preheader
	pcalau12i	$a3, %pc_hi20(.LCPI9_1)
	fld.d	$fa1, $a3, %pc_lo12(.LCPI9_1)
	pcalau12i	$a3, %pc_hi20(.LCPI9_2)
	fld.d	$fa2, $a3, %pc_lo12(.LCPI9_2)
	sub.d	$a1, $a1, $a0
	alsl.d	$a2, $a0, $a2, 3
	.p2align	4, , 16
.LBB9_144:                              # %.lr.ph.i213
                                        # =>This Inner Loop Header: Depth=1
	bstrpick.d	$a3, $a0, 31, 0
	movgr2fr.d	$fa3, $a3
	ffint.d.l	$fa3, $fa3
	fadd.d	$fa4, $fa3, $fa1
	fmul.d	$fa4, $fa0, $fa4
	fadd.d	$fa3, $fa3, $fa2
	fdiv.d	$fa3, $fa4, $fa3
	fst.d	$fa3, $a2, 0
	addi.d	$a1, $a1, -1
	addi.d	$a2, $a2, 8
	addi.w	$a0, $a0, 1
	bnez	$a1, .LBB9_144
	b	.LBB9_1187
.LBB9_145:                              # %vector.ph3531
	bstrpick.d	$a1, $a2, 30, 2
	slli.d	$a1, $a1, 2
	vreplvei.d	$vr1, $vr0, 0
	addi.d	$a4, $a3, 16
	ori	$a5, $zero, 0
	lu32i.d	$a5, 1
	vreplgr2vr.d	$vr2, $a5
	lu12i.w	$a5, -419431
	ori	$a5, $a5, 2458
	lu32i.d	$a5, 104857
	lu52i.d	$a5, $a5, 1023
	vreplgr2vr.d	$vr3, $a5
	lu12i.w	$a5, -307024
	ori	$a5, $a5, 3880
	lu32i.d	$a5, 129446
	lu52i.d	$a5, $a5, 1023
	vreplgr2vr.d	$vr4, $a5
	move	$a5, $a1
	.p2align	4, , 16
.LBB9_146:                              # %vector.body3536
                                        # =>This Inner Loop Header: Depth=1
	vaddi.wu	$vr5, $vr2, 2
	vpickve2gr.w	$a6, $vr2, 1
	bstrpick.d	$a6, $a6, 31, 0
	movgr2fr.d	$fa6, $a6
	ffint.d.l	$fa6, $fa6
	vpickve2gr.w	$a6, $vr2, 0
	bstrpick.d	$a6, $a6, 31, 0
	movgr2fr.d	$fa7, $a6
	ffint.d.l	$fa7, $fa7
	vextrins.d	$vr7, $vr6, 16
	vpickve2gr.w	$a6, $vr5, 1
	bstrpick.d	$a6, $a6, 31, 0
	movgr2fr.d	$fa6, $a6
	ffint.d.l	$fa6, $fa6
	vpickve2gr.w	$a6, $vr5, 0
	bstrpick.d	$a6, $a6, 31, 0
	movgr2fr.d	$fa5, $a6
	ffint.d.l	$fa5, $fa5
	vextrins.d	$vr5, $vr6, 16
	vfadd.d	$vr6, $vr7, $vr3
	vfadd.d	$vr8, $vr5, $vr3
	vfmul.d	$vr6, $vr1, $vr6
	vfmul.d	$vr8, $vr1, $vr8
	vfadd.d	$vr7, $vr7, $vr4
	vfadd.d	$vr5, $vr5, $vr4
	vfdiv.d	$vr6, $vr6, $vr7
	vfdiv.d	$vr5, $vr8, $vr5
	vst	$vr6, $a4, -16
	vst	$vr5, $a4, 0
	vaddi.wu	$vr2, $vr2, 4
	addi.d	$a5, $a5, -4
	addi.d	$a4, $a4, 32
	bnez	$a5, .LBB9_146
# %bb.147:                              # %middle.block3542
	beq	$a1, $a2, .LBB9_150
.LBB9_148:                              # %.lr.ph.i221.preheader
	pcalau12i	$a4, %pc_hi20(.LCPI9_1)
	fld.d	$fa1, $a4, %pc_lo12(.LCPI9_1)
	pcalau12i	$a4, %pc_hi20(.LCPI9_2)
	fld.d	$fa2, $a4, %pc_lo12(.LCPI9_2)
	sub.d	$a2, $a2, $a1
	alsl.d	$a3, $a1, $a3, 3
	.p2align	4, , 16
.LBB9_149:                              # %.lr.ph.i221
                                        # =>This Inner Loop Header: Depth=1
	bstrpick.d	$a4, $a1, 31, 0
	movgr2fr.d	$fa3, $a4
	ffint.d.l	$fa3, $fa3
	fadd.d	$fa4, $fa3, $fa1
	fmul.d	$fa4, $fa0, $fa4
	fadd.d	$fa3, $fa3, $fa2
	fdiv.d	$fa3, $fa4, $fa3
	fst.d	$fa3, $a3, 0
	addi.d	$a2, $a2, -1
	addi.d	$a3, $a3, 8
	addi.w	$a1, $a1, 1
	bnez	$a2, .LBB9_149
.LBB9_150:                              # %_ZN12_GLOBAL__N_18initDataERN8LoopData9RealArrayE.exit225
	ld.w	$a2, $s1, 504
	blez	$a2, .LBB9_158
# %bb.151:                              # %.lr.ph.preheader.i227
	ld.bu	$a1, $s1, 488
	andi	$a1, $a1, 1
	sltui	$a1, $a1, 1
	slli.d	$a1, $a1, 3
	fldx.d	$fa0, $a0, $a1
	ld.d	$a3, $s1, 496
	ori	$a1, $zero, 4
	bgeu	$a2, $a1, .LBB9_153
# %bb.152:
	move	$a1, $zero
	b	.LBB9_156
.LBB9_153:                              # %vector.ph3547
	bstrpick.d	$a1, $a2, 30, 2
	slli.d	$a1, $a1, 2
	vreplvei.d	$vr1, $vr0, 0
	addi.d	$a4, $a3, 16
	ori	$a5, $zero, 0
	lu32i.d	$a5, 1
	vreplgr2vr.d	$vr2, $a5
	lu12i.w	$a5, -419431
	ori	$a5, $a5, 2458
	lu32i.d	$a5, 104857
	lu52i.d	$a5, $a5, 1023
	vreplgr2vr.d	$vr3, $a5
	lu12i.w	$a5, -307024
	ori	$a5, $a5, 3880
	lu32i.d	$a5, 129446
	lu52i.d	$a5, $a5, 1023
	vreplgr2vr.d	$vr4, $a5
	move	$a5, $a1
	.p2align	4, , 16
.LBB9_154:                              # %vector.body3552
                                        # =>This Inner Loop Header: Depth=1
	vaddi.wu	$vr5, $vr2, 2
	vpickve2gr.w	$a6, $vr2, 1
	bstrpick.d	$a6, $a6, 31, 0
	movgr2fr.d	$fa6, $a6
	ffint.d.l	$fa6, $fa6
	vpickve2gr.w	$a6, $vr2, 0
	bstrpick.d	$a6, $a6, 31, 0
	movgr2fr.d	$fa7, $a6
	ffint.d.l	$fa7, $fa7
	vextrins.d	$vr7, $vr6, 16
	vpickve2gr.w	$a6, $vr5, 1
	bstrpick.d	$a6, $a6, 31, 0
	movgr2fr.d	$fa6, $a6
	ffint.d.l	$fa6, $fa6
	vpickve2gr.w	$a6, $vr5, 0
	bstrpick.d	$a6, $a6, 31, 0
	movgr2fr.d	$fa5, $a6
	ffint.d.l	$fa5, $fa5
	vextrins.d	$vr5, $vr6, 16
	vfadd.d	$vr6, $vr7, $vr3
	vfadd.d	$vr8, $vr5, $vr3
	vfmul.d	$vr6, $vr1, $vr6
	vfmul.d	$vr8, $vr1, $vr8
	vfadd.d	$vr7, $vr7, $vr4
	vfadd.d	$vr5, $vr5, $vr4
	vfdiv.d	$vr6, $vr6, $vr7
	vfdiv.d	$vr5, $vr8, $vr5
	vst	$vr6, $a4, -16
	vst	$vr5, $a4, 0
	vaddi.wu	$vr2, $vr2, 4
	addi.d	$a5, $a5, -4
	addi.d	$a4, $a4, 32
	bnez	$a5, .LBB9_154
# %bb.155:                              # %middle.block3558
	beq	$a1, $a2, .LBB9_158
.LBB9_156:                              # %.lr.ph.i229.preheader
	pcalau12i	$a4, %pc_hi20(.LCPI9_1)
	fld.d	$fa1, $a4, %pc_lo12(.LCPI9_1)
	pcalau12i	$a4, %pc_hi20(.LCPI9_2)
	fld.d	$fa2, $a4, %pc_lo12(.LCPI9_2)
	sub.d	$a2, $a2, $a1
	alsl.d	$a3, $a1, $a3, 3
	.p2align	4, , 16
.LBB9_157:                              # %.lr.ph.i229
                                        # =>This Inner Loop Header: Depth=1
	bstrpick.d	$a4, $a1, 31, 0
	movgr2fr.d	$fa3, $a4
	ffint.d.l	$fa3, $fa3
	fadd.d	$fa4, $fa3, $fa1
	fmul.d	$fa4, $fa0, $fa4
	fadd.d	$fa3, $fa3, $fa2
	fdiv.d	$fa3, $fa4, $fa3
	fst.d	$fa3, $a3, 0
	addi.d	$a2, $a2, -1
	addi.d	$a3, $a3, 8
	addi.w	$a1, $a1, 1
	bnez	$a2, .LBB9_157
.LBB9_158:                              # %_ZN12_GLOBAL__N_18initDataERN8LoopData9RealArrayE.exit233
	ld.w	$a2, $s1, 528
	blez	$a2, .LBB9_166
# %bb.159:                              # %.lr.ph.preheader.i235
	ld.bu	$a1, $s1, 512
	andi	$a1, $a1, 1
	sltui	$a1, $a1, 1
	slli.d	$a1, $a1, 3
	fldx.d	$fa0, $a0, $a1
	ld.d	$a3, $s1, 520
	ori	$a1, $zero, 4
	bgeu	$a2, $a1, .LBB9_161
# %bb.160:
	move	$a1, $zero
	b	.LBB9_164
.LBB9_161:                              # %vector.ph3563
	bstrpick.d	$a1, $a2, 30, 2
	slli.d	$a1, $a1, 2
	vreplvei.d	$vr1, $vr0, 0
	addi.d	$a4, $a3, 16
	ori	$a5, $zero, 0
	lu32i.d	$a5, 1
	vreplgr2vr.d	$vr2, $a5
	lu12i.w	$a5, -419431
	ori	$a5, $a5, 2458
	lu32i.d	$a5, 104857
	lu52i.d	$a5, $a5, 1023
	vreplgr2vr.d	$vr3, $a5
	lu12i.w	$a5, -307024
	ori	$a5, $a5, 3880
	lu32i.d	$a5, 129446
	lu52i.d	$a5, $a5, 1023
	vreplgr2vr.d	$vr4, $a5
	move	$a5, $a1
	.p2align	4, , 16
.LBB9_162:                              # %vector.body3568
                                        # =>This Inner Loop Header: Depth=1
	vaddi.wu	$vr5, $vr2, 2
	vpickve2gr.w	$a6, $vr2, 1
	bstrpick.d	$a6, $a6, 31, 0
	movgr2fr.d	$fa6, $a6
	ffint.d.l	$fa6, $fa6
	vpickve2gr.w	$a6, $vr2, 0
	bstrpick.d	$a6, $a6, 31, 0
	movgr2fr.d	$fa7, $a6
	ffint.d.l	$fa7, $fa7
	vextrins.d	$vr7, $vr6, 16
	vpickve2gr.w	$a6, $vr5, 1
	bstrpick.d	$a6, $a6, 31, 0
	movgr2fr.d	$fa6, $a6
	ffint.d.l	$fa6, $fa6
	vpickve2gr.w	$a6, $vr5, 0
	bstrpick.d	$a6, $a6, 31, 0
	movgr2fr.d	$fa5, $a6
	ffint.d.l	$fa5, $fa5
	vextrins.d	$vr5, $vr6, 16
	vfadd.d	$vr6, $vr7, $vr3
	vfadd.d	$vr8, $vr5, $vr3
	vfmul.d	$vr6, $vr1, $vr6
	vfmul.d	$vr8, $vr1, $vr8
	vfadd.d	$vr7, $vr7, $vr4
	vfadd.d	$vr5, $vr5, $vr4
	vfdiv.d	$vr6, $vr6, $vr7
	vfdiv.d	$vr5, $vr8, $vr5
	vst	$vr6, $a4, -16
	vst	$vr5, $a4, 0
	vaddi.wu	$vr2, $vr2, 4
	addi.d	$a5, $a5, -4
	addi.d	$a4, $a4, 32
	bnez	$a5, .LBB9_162
# %bb.163:                              # %middle.block3574
	beq	$a1, $a2, .LBB9_166
.LBB9_164:                              # %.lr.ph.i237.preheader
	pcalau12i	$a4, %pc_hi20(.LCPI9_1)
	fld.d	$fa1, $a4, %pc_lo12(.LCPI9_1)
	pcalau12i	$a4, %pc_hi20(.LCPI9_2)
	fld.d	$fa2, $a4, %pc_lo12(.LCPI9_2)
	sub.d	$a2, $a2, $a1
	alsl.d	$a3, $a1, $a3, 3
	.p2align	4, , 16
.LBB9_165:                              # %.lr.ph.i237
                                        # =>This Inner Loop Header: Depth=1
	bstrpick.d	$a4, $a1, 31, 0
	movgr2fr.d	$fa3, $a4
	ffint.d.l	$fa3, $fa3
	fadd.d	$fa4, $fa3, $fa1
	fmul.d	$fa4, $fa0, $fa4
	fadd.d	$fa3, $fa3, $fa2
	fdiv.d	$fa3, $fa4, $fa3
	fst.d	$fa3, $a3, 0
	addi.d	$a2, $a2, -1
	addi.d	$a3, $a3, 8
	addi.w	$a1, $a1, 1
	bnez	$a2, .LBB9_165
.LBB9_166:                              # %_ZN12_GLOBAL__N_18initDataERN8LoopData9RealArrayE.exit241
	ld.w	$a2, $s1, 552
	blez	$a2, .LBB9_174
# %bb.167:                              # %.lr.ph.preheader.i243
	ld.bu	$a1, $s1, 536
	andi	$a1, $a1, 1
	sltui	$a1, $a1, 1
	slli.d	$a1, $a1, 3
	fldx.d	$fa0, $a0, $a1
	ld.d	$a3, $s1, 544
	ori	$a1, $zero, 4
	bgeu	$a2, $a1, .LBB9_169
# %bb.168:
	move	$a1, $zero
	b	.LBB9_172
.LBB9_169:                              # %vector.ph3579
	bstrpick.d	$a1, $a2, 30, 2
	slli.d	$a1, $a1, 2
	vreplvei.d	$vr1, $vr0, 0
	addi.d	$a4, $a3, 16
	ori	$a5, $zero, 0
	lu32i.d	$a5, 1
	vreplgr2vr.d	$vr2, $a5
	lu12i.w	$a5, -419431
	ori	$a5, $a5, 2458
	lu32i.d	$a5, 104857
	lu52i.d	$a5, $a5, 1023
	vreplgr2vr.d	$vr3, $a5
	lu12i.w	$a5, -307024
	ori	$a5, $a5, 3880
	lu32i.d	$a5, 129446
	lu52i.d	$a5, $a5, 1023
	vreplgr2vr.d	$vr4, $a5
	move	$a5, $a1
	.p2align	4, , 16
.LBB9_170:                              # %vector.body3584
                                        # =>This Inner Loop Header: Depth=1
	vaddi.wu	$vr5, $vr2, 2
	vpickve2gr.w	$a6, $vr2, 1
	bstrpick.d	$a6, $a6, 31, 0
	movgr2fr.d	$fa6, $a6
	ffint.d.l	$fa6, $fa6
	vpickve2gr.w	$a6, $vr2, 0
	bstrpick.d	$a6, $a6, 31, 0
	movgr2fr.d	$fa7, $a6
	ffint.d.l	$fa7, $fa7
	vextrins.d	$vr7, $vr6, 16
	vpickve2gr.w	$a6, $vr5, 1
	bstrpick.d	$a6, $a6, 31, 0
	movgr2fr.d	$fa6, $a6
	ffint.d.l	$fa6, $fa6
	vpickve2gr.w	$a6, $vr5, 0
	bstrpick.d	$a6, $a6, 31, 0
	movgr2fr.d	$fa5, $a6
	ffint.d.l	$fa5, $fa5
	vextrins.d	$vr5, $vr6, 16
	vfadd.d	$vr6, $vr7, $vr3
	vfadd.d	$vr8, $vr5, $vr3
	vfmul.d	$vr6, $vr1, $vr6
	vfmul.d	$vr8, $vr1, $vr8
	vfadd.d	$vr7, $vr7, $vr4
	vfadd.d	$vr5, $vr5, $vr4
	vfdiv.d	$vr6, $vr6, $vr7
	vfdiv.d	$vr5, $vr8, $vr5
	vst	$vr6, $a4, -16
	vst	$vr5, $a4, 0
	vaddi.wu	$vr2, $vr2, 4
	addi.d	$a5, $a5, -4
	addi.d	$a4, $a4, 32
	bnez	$a5, .LBB9_170
# %bb.171:                              # %middle.block3590
	beq	$a1, $a2, .LBB9_174
.LBB9_172:                              # %.lr.ph.i245.preheader
	pcalau12i	$a4, %pc_hi20(.LCPI9_1)
	fld.d	$fa1, $a4, %pc_lo12(.LCPI9_1)
	pcalau12i	$a4, %pc_hi20(.LCPI9_2)
	fld.d	$fa2, $a4, %pc_lo12(.LCPI9_2)
	sub.d	$a2, $a2, $a1
	alsl.d	$a3, $a1, $a3, 3
	.p2align	4, , 16
.LBB9_173:                              # %.lr.ph.i245
                                        # =>This Inner Loop Header: Depth=1
	bstrpick.d	$a4, $a1, 31, 0
	movgr2fr.d	$fa3, $a4
	ffint.d.l	$fa3, $fa3
	fadd.d	$fa4, $fa3, $fa1
	fmul.d	$fa4, $fa0, $fa4
	fadd.d	$fa3, $fa3, $fa2
	fdiv.d	$fa3, $fa4, $fa3
	fst.d	$fa3, $a3, 0
	addi.d	$a2, $a2, -1
	addi.d	$a3, $a3, 8
	addi.w	$a1, $a1, 1
	bnez	$a2, .LBB9_173
.LBB9_174:                              # %_ZN12_GLOBAL__N_18initDataERN8LoopData9RealArrayE.exit249
	ld.w	$a2, $s1, 576
	blez	$a2, .LBB9_182
# %bb.175:                              # %.lr.ph.preheader.i251
	ld.bu	$a1, $s1, 560
	andi	$a1, $a1, 1
	sltui	$a1, $a1, 1
	slli.d	$a1, $a1, 3
	fldx.d	$fa0, $a0, $a1
	ld.d	$a3, $s1, 568
	ori	$a1, $zero, 4
	bgeu	$a2, $a1, .LBB9_177
# %bb.176:
	move	$a1, $zero
	b	.LBB9_180
.LBB9_177:                              # %vector.ph3595
	bstrpick.d	$a1, $a2, 30, 2
	slli.d	$a1, $a1, 2
	vreplvei.d	$vr1, $vr0, 0
	addi.d	$a4, $a3, 16
	ori	$a5, $zero, 0
	lu32i.d	$a5, 1
	vreplgr2vr.d	$vr2, $a5
	lu12i.w	$a5, -419431
	ori	$a5, $a5, 2458
	lu32i.d	$a5, 104857
	lu52i.d	$a5, $a5, 1023
	vreplgr2vr.d	$vr3, $a5
	lu12i.w	$a5, -307024
	ori	$a5, $a5, 3880
	lu32i.d	$a5, 129446
	lu52i.d	$a5, $a5, 1023
	vreplgr2vr.d	$vr4, $a5
	move	$a5, $a1
	.p2align	4, , 16
.LBB9_178:                              # %vector.body3600
                                        # =>This Inner Loop Header: Depth=1
	vaddi.wu	$vr5, $vr2, 2
	vpickve2gr.w	$a6, $vr2, 1
	bstrpick.d	$a6, $a6, 31, 0
	movgr2fr.d	$fa6, $a6
	ffint.d.l	$fa6, $fa6
	vpickve2gr.w	$a6, $vr2, 0
	bstrpick.d	$a6, $a6, 31, 0
	movgr2fr.d	$fa7, $a6
	ffint.d.l	$fa7, $fa7
	vextrins.d	$vr7, $vr6, 16
	vpickve2gr.w	$a6, $vr5, 1
	bstrpick.d	$a6, $a6, 31, 0
	movgr2fr.d	$fa6, $a6
	ffint.d.l	$fa6, $fa6
	vpickve2gr.w	$a6, $vr5, 0
	bstrpick.d	$a6, $a6, 31, 0
	movgr2fr.d	$fa5, $a6
	ffint.d.l	$fa5, $fa5
	vextrins.d	$vr5, $vr6, 16
	vfadd.d	$vr6, $vr7, $vr3
	vfadd.d	$vr8, $vr5, $vr3
	vfmul.d	$vr6, $vr1, $vr6
	vfmul.d	$vr8, $vr1, $vr8
	vfadd.d	$vr7, $vr7, $vr4
	vfadd.d	$vr5, $vr5, $vr4
	vfdiv.d	$vr6, $vr6, $vr7
	vfdiv.d	$vr5, $vr8, $vr5
	vst	$vr6, $a4, -16
	vst	$vr5, $a4, 0
	vaddi.wu	$vr2, $vr2, 4
	addi.d	$a5, $a5, -4
	addi.d	$a4, $a4, 32
	bnez	$a5, .LBB9_178
# %bb.179:                              # %middle.block3606
	beq	$a1, $a2, .LBB9_182
.LBB9_180:                              # %.lr.ph.i253.preheader
	pcalau12i	$a4, %pc_hi20(.LCPI9_1)
	fld.d	$fa1, $a4, %pc_lo12(.LCPI9_1)
	pcalau12i	$a4, %pc_hi20(.LCPI9_2)
	fld.d	$fa2, $a4, %pc_lo12(.LCPI9_2)
	sub.d	$a2, $a2, $a1
	alsl.d	$a3, $a1, $a3, 3
	.p2align	4, , 16
.LBB9_181:                              # %.lr.ph.i253
                                        # =>This Inner Loop Header: Depth=1
	bstrpick.d	$a4, $a1, 31, 0
	movgr2fr.d	$fa3, $a4
	ffint.d.l	$fa3, $fa3
	fadd.d	$fa4, $fa3, $fa1
	fmul.d	$fa4, $fa0, $fa4
	fadd.d	$fa3, $fa3, $fa2
	fdiv.d	$fa3, $fa4, $fa3
	fst.d	$fa3, $a3, 0
	addi.d	$a2, $a2, -1
	addi.d	$a3, $a3, 8
	addi.w	$a1, $a1, 1
	bnez	$a2, .LBB9_181
.LBB9_182:                              # %_ZN12_GLOBAL__N_18initDataERN8LoopData9RealArrayE.exit257
	ld.w	$a2, $s1, 600
	blez	$a2, .LBB9_190
# %bb.183:                              # %.lr.ph.preheader.i259
	ld.bu	$a1, $s1, 584
	andi	$a1, $a1, 1
	sltui	$a1, $a1, 1
	slli.d	$a1, $a1, 3
	fldx.d	$fa0, $a0, $a1
	ld.d	$a3, $s1, 592
	ori	$a1, $zero, 4
	bgeu	$a2, $a1, .LBB9_185
# %bb.184:
	move	$a1, $zero
	b	.LBB9_188
.LBB9_185:                              # %vector.ph3611
	bstrpick.d	$a1, $a2, 30, 2
	slli.d	$a1, $a1, 2
	vreplvei.d	$vr1, $vr0, 0
	addi.d	$a4, $a3, 16
	ori	$a5, $zero, 0
	lu32i.d	$a5, 1
	vreplgr2vr.d	$vr2, $a5
	lu12i.w	$a5, -419431
	ori	$a5, $a5, 2458
	lu32i.d	$a5, 104857
	lu52i.d	$a5, $a5, 1023
	vreplgr2vr.d	$vr3, $a5
	lu12i.w	$a5, -307024
	ori	$a5, $a5, 3880
	lu32i.d	$a5, 129446
	lu52i.d	$a5, $a5, 1023
	vreplgr2vr.d	$vr4, $a5
	move	$a5, $a1
	.p2align	4, , 16
.LBB9_186:                              # %vector.body3616
                                        # =>This Inner Loop Header: Depth=1
	vaddi.wu	$vr5, $vr2, 2
	vpickve2gr.w	$a6, $vr2, 1
	bstrpick.d	$a6, $a6, 31, 0
	movgr2fr.d	$fa6, $a6
	ffint.d.l	$fa6, $fa6
	vpickve2gr.w	$a6, $vr2, 0
	bstrpick.d	$a6, $a6, 31, 0
	movgr2fr.d	$fa7, $a6
	ffint.d.l	$fa7, $fa7
	vextrins.d	$vr7, $vr6, 16
	vpickve2gr.w	$a6, $vr5, 1
	bstrpick.d	$a6, $a6, 31, 0
	movgr2fr.d	$fa6, $a6
	ffint.d.l	$fa6, $fa6
	vpickve2gr.w	$a6, $vr5, 0
	bstrpick.d	$a6, $a6, 31, 0
	movgr2fr.d	$fa5, $a6
	ffint.d.l	$fa5, $fa5
	vextrins.d	$vr5, $vr6, 16
	vfadd.d	$vr6, $vr7, $vr3
	vfadd.d	$vr8, $vr5, $vr3
	vfmul.d	$vr6, $vr1, $vr6
	vfmul.d	$vr8, $vr1, $vr8
	vfadd.d	$vr7, $vr7, $vr4
	vfadd.d	$vr5, $vr5, $vr4
	vfdiv.d	$vr6, $vr6, $vr7
	vfdiv.d	$vr5, $vr8, $vr5
	vst	$vr6, $a4, -16
	vst	$vr5, $a4, 0
	vaddi.wu	$vr2, $vr2, 4
	addi.d	$a5, $a5, -4
	addi.d	$a4, $a4, 32
	bnez	$a5, .LBB9_186
# %bb.187:                              # %middle.block3622
	beq	$a1, $a2, .LBB9_190
.LBB9_188:                              # %.lr.ph.i261.preheader
	pcalau12i	$a4, %pc_hi20(.LCPI9_1)
	fld.d	$fa1, $a4, %pc_lo12(.LCPI9_1)
	pcalau12i	$a4, %pc_hi20(.LCPI9_2)
	fld.d	$fa2, $a4, %pc_lo12(.LCPI9_2)
	sub.d	$a2, $a2, $a1
	alsl.d	$a3, $a1, $a3, 3
	.p2align	4, , 16
.LBB9_189:                              # %.lr.ph.i261
                                        # =>This Inner Loop Header: Depth=1
	bstrpick.d	$a4, $a1, 31, 0
	movgr2fr.d	$fa3, $a4
	ffint.d.l	$fa3, $fa3
	fadd.d	$fa4, $fa3, $fa1
	fmul.d	$fa4, $fa0, $fa4
	fadd.d	$fa3, $fa3, $fa2
	fdiv.d	$fa3, $fa4, $fa3
	fst.d	$fa3, $a3, 0
	addi.d	$a2, $a2, -1
	addi.d	$a3, $a3, 8
	addi.w	$a1, $a1, 1
	bnez	$a2, .LBB9_189
.LBB9_190:                              # %_ZN12_GLOBAL__N_18initDataERN8LoopData9RealArrayE.exit265
	ld.w	$a2, $s1, 624
	blez	$a2, .LBB9_198
# %bb.191:                              # %.lr.ph.preheader.i267
	ld.bu	$a1, $s1, 608
	andi	$a1, $a1, 1
	sltui	$a1, $a1, 1
	slli.d	$a1, $a1, 3
	fldx.d	$fa0, $a0, $a1
	ld.d	$a3, $s1, 616
	ori	$a1, $zero, 4
	bgeu	$a2, $a1, .LBB9_193
# %bb.192:
	move	$a1, $zero
	b	.LBB9_196
.LBB9_193:                              # %vector.ph3627
	bstrpick.d	$a1, $a2, 30, 2
	slli.d	$a1, $a1, 2
	vreplvei.d	$vr1, $vr0, 0
	addi.d	$a4, $a3, 16
	ori	$a5, $zero, 0
	lu32i.d	$a5, 1
	vreplgr2vr.d	$vr2, $a5
	lu12i.w	$a5, -419431
	ori	$a5, $a5, 2458
	lu32i.d	$a5, 104857
	lu52i.d	$a5, $a5, 1023
	vreplgr2vr.d	$vr3, $a5
	lu12i.w	$a5, -307024
	ori	$a5, $a5, 3880
	lu32i.d	$a5, 129446
	lu52i.d	$a5, $a5, 1023
	vreplgr2vr.d	$vr4, $a5
	move	$a5, $a1
	.p2align	4, , 16
.LBB9_194:                              # %vector.body3632
                                        # =>This Inner Loop Header: Depth=1
	vaddi.wu	$vr5, $vr2, 2
	vpickve2gr.w	$a6, $vr2, 1
	bstrpick.d	$a6, $a6, 31, 0
	movgr2fr.d	$fa6, $a6
	ffint.d.l	$fa6, $fa6
	vpickve2gr.w	$a6, $vr2, 0
	bstrpick.d	$a6, $a6, 31, 0
	movgr2fr.d	$fa7, $a6
	ffint.d.l	$fa7, $fa7
	vextrins.d	$vr7, $vr6, 16
	vpickve2gr.w	$a6, $vr5, 1
	bstrpick.d	$a6, $a6, 31, 0
	movgr2fr.d	$fa6, $a6
	ffint.d.l	$fa6, $fa6
	vpickve2gr.w	$a6, $vr5, 0
	bstrpick.d	$a6, $a6, 31, 0
	movgr2fr.d	$fa5, $a6
	ffint.d.l	$fa5, $fa5
	vextrins.d	$vr5, $vr6, 16
	vfadd.d	$vr6, $vr7, $vr3
	vfadd.d	$vr8, $vr5, $vr3
	vfmul.d	$vr6, $vr1, $vr6
	vfmul.d	$vr8, $vr1, $vr8
	vfadd.d	$vr7, $vr7, $vr4
	vfadd.d	$vr5, $vr5, $vr4
	vfdiv.d	$vr6, $vr6, $vr7
	vfdiv.d	$vr5, $vr8, $vr5
	vst	$vr6, $a4, -16
	vst	$vr5, $a4, 0
	vaddi.wu	$vr2, $vr2, 4
	addi.d	$a5, $a5, -4
	addi.d	$a4, $a4, 32
	bnez	$a5, .LBB9_194
# %bb.195:                              # %middle.block3638
	beq	$a1, $a2, .LBB9_198
.LBB9_196:                              # %.lr.ph.i269.preheader
	pcalau12i	$a4, %pc_hi20(.LCPI9_1)
	fld.d	$fa1, $a4, %pc_lo12(.LCPI9_1)
	pcalau12i	$a4, %pc_hi20(.LCPI9_2)
	fld.d	$fa2, $a4, %pc_lo12(.LCPI9_2)
	sub.d	$a2, $a2, $a1
	alsl.d	$a3, $a1, $a3, 3
	.p2align	4, , 16
.LBB9_197:                              # %.lr.ph.i269
                                        # =>This Inner Loop Header: Depth=1
	bstrpick.d	$a4, $a1, 31, 0
	movgr2fr.d	$fa3, $a4
	ffint.d.l	$fa3, $fa3
	fadd.d	$fa4, $fa3, $fa1
	fmul.d	$fa4, $fa0, $fa4
	fadd.d	$fa3, $fa3, $fa2
	fdiv.d	$fa3, $fa4, $fa3
	fst.d	$fa3, $a3, 0
	addi.d	$a2, $a2, -1
	addi.d	$a3, $a3, 8
	addi.w	$a1, $a1, 1
	bnez	$a2, .LBB9_197
.LBB9_198:                              # %_ZN12_GLOBAL__N_18initDataERN8LoopData9RealArrayE.exit273
	ld.w	$a2, $s1, 648
	blez	$a2, .LBB9_206
# %bb.199:                              # %.lr.ph.preheader.i275
	ld.bu	$a1, $s1, 632
	andi	$a1, $a1, 1
	sltui	$a1, $a1, 1
	slli.d	$a1, $a1, 3
	fldx.d	$fa0, $a0, $a1
	ld.d	$a3, $s1, 640
	ori	$a1, $zero, 4
	bgeu	$a2, $a1, .LBB9_201
# %bb.200:
	move	$a1, $zero
	b	.LBB9_204
.LBB9_201:                              # %vector.ph3643
	bstrpick.d	$a1, $a2, 30, 2
	slli.d	$a1, $a1, 2
	vreplvei.d	$vr1, $vr0, 0
	addi.d	$a4, $a3, 16
	ori	$a5, $zero, 0
	lu32i.d	$a5, 1
	vreplgr2vr.d	$vr2, $a5
	lu12i.w	$a5, -419431
	ori	$a5, $a5, 2458
	lu32i.d	$a5, 104857
	lu52i.d	$a5, $a5, 1023
	vreplgr2vr.d	$vr3, $a5
	lu12i.w	$a5, -307024
	ori	$a5, $a5, 3880
	lu32i.d	$a5, 129446
	lu52i.d	$a5, $a5, 1023
	vreplgr2vr.d	$vr4, $a5
	move	$a5, $a1
	.p2align	4, , 16
.LBB9_202:                              # %vector.body3648
                                        # =>This Inner Loop Header: Depth=1
	vaddi.wu	$vr5, $vr2, 2
	vpickve2gr.w	$a6, $vr2, 1
	bstrpick.d	$a6, $a6, 31, 0
	movgr2fr.d	$fa6, $a6
	ffint.d.l	$fa6, $fa6
	vpickve2gr.w	$a6, $vr2, 0
	bstrpick.d	$a6, $a6, 31, 0
	movgr2fr.d	$fa7, $a6
	ffint.d.l	$fa7, $fa7
	vextrins.d	$vr7, $vr6, 16
	vpickve2gr.w	$a6, $vr5, 1
	bstrpick.d	$a6, $a6, 31, 0
	movgr2fr.d	$fa6, $a6
	ffint.d.l	$fa6, $fa6
	vpickve2gr.w	$a6, $vr5, 0
	bstrpick.d	$a6, $a6, 31, 0
	movgr2fr.d	$fa5, $a6
	ffint.d.l	$fa5, $fa5
	vextrins.d	$vr5, $vr6, 16
	vfadd.d	$vr6, $vr7, $vr3
	vfadd.d	$vr8, $vr5, $vr3
	vfmul.d	$vr6, $vr1, $vr6
	vfmul.d	$vr8, $vr1, $vr8
	vfadd.d	$vr7, $vr7, $vr4
	vfadd.d	$vr5, $vr5, $vr4
	vfdiv.d	$vr6, $vr6, $vr7
	vfdiv.d	$vr5, $vr8, $vr5
	vst	$vr6, $a4, -16
	vst	$vr5, $a4, 0
	vaddi.wu	$vr2, $vr2, 4
	addi.d	$a5, $a5, -4
	addi.d	$a4, $a4, 32
	bnez	$a5, .LBB9_202
# %bb.203:                              # %middle.block3654
	beq	$a1, $a2, .LBB9_206
.LBB9_204:                              # %.lr.ph.i277.preheader
	pcalau12i	$a4, %pc_hi20(.LCPI9_1)
	fld.d	$fa1, $a4, %pc_lo12(.LCPI9_1)
	pcalau12i	$a4, %pc_hi20(.LCPI9_2)
	fld.d	$fa2, $a4, %pc_lo12(.LCPI9_2)
	sub.d	$a2, $a2, $a1
	alsl.d	$a3, $a1, $a3, 3
	.p2align	4, , 16
.LBB9_205:                              # %.lr.ph.i277
                                        # =>This Inner Loop Header: Depth=1
	bstrpick.d	$a4, $a1, 31, 0
	movgr2fr.d	$fa3, $a4
	ffint.d.l	$fa3, $fa3
	fadd.d	$fa4, $fa3, $fa1
	fmul.d	$fa4, $fa0, $fa4
	fadd.d	$fa3, $fa3, $fa2
	fdiv.d	$fa3, $fa4, $fa3
	fst.d	$fa3, $a3, 0
	addi.d	$a2, $a2, -1
	addi.d	$a3, $a3, 8
	addi.w	$a1, $a1, 1
	bnez	$a2, .LBB9_205
.LBB9_206:                              # %_ZN12_GLOBAL__N_18initDataERN8LoopData9RealArrayE.exit281
	ld.w	$a2, $s1, 672
	blez	$a2, .LBB9_214
# %bb.207:                              # %.lr.ph.preheader.i283
	ld.bu	$a1, $s1, 656
	andi	$a1, $a1, 1
	sltui	$a1, $a1, 1
	slli.d	$a1, $a1, 3
	fldx.d	$fa0, $a0, $a1
	ld.d	$a3, $s1, 664
	ori	$a1, $zero, 4
	bgeu	$a2, $a1, .LBB9_209
# %bb.208:
	move	$a1, $zero
	b	.LBB9_212
.LBB9_209:                              # %vector.ph3659
	bstrpick.d	$a1, $a2, 30, 2
	slli.d	$a1, $a1, 2
	vreplvei.d	$vr1, $vr0, 0
	addi.d	$a4, $a3, 16
	ori	$a5, $zero, 0
	lu32i.d	$a5, 1
	vreplgr2vr.d	$vr2, $a5
	lu12i.w	$a5, -419431
	ori	$a5, $a5, 2458
	lu32i.d	$a5, 104857
	lu52i.d	$a5, $a5, 1023
	vreplgr2vr.d	$vr3, $a5
	lu12i.w	$a5, -307024
	ori	$a5, $a5, 3880
	lu32i.d	$a5, 129446
	lu52i.d	$a5, $a5, 1023
	vreplgr2vr.d	$vr4, $a5
	move	$a5, $a1
	.p2align	4, , 16
.LBB9_210:                              # %vector.body3664
                                        # =>This Inner Loop Header: Depth=1
	vaddi.wu	$vr5, $vr2, 2
	vpickve2gr.w	$a6, $vr2, 1
	bstrpick.d	$a6, $a6, 31, 0
	movgr2fr.d	$fa6, $a6
	ffint.d.l	$fa6, $fa6
	vpickve2gr.w	$a6, $vr2, 0
	bstrpick.d	$a6, $a6, 31, 0
	movgr2fr.d	$fa7, $a6
	ffint.d.l	$fa7, $fa7
	vextrins.d	$vr7, $vr6, 16
	vpickve2gr.w	$a6, $vr5, 1
	bstrpick.d	$a6, $a6, 31, 0
	movgr2fr.d	$fa6, $a6
	ffint.d.l	$fa6, $fa6
	vpickve2gr.w	$a6, $vr5, 0
	bstrpick.d	$a6, $a6, 31, 0
	movgr2fr.d	$fa5, $a6
	ffint.d.l	$fa5, $fa5
	vextrins.d	$vr5, $vr6, 16
	vfadd.d	$vr6, $vr7, $vr3
	vfadd.d	$vr8, $vr5, $vr3
	vfmul.d	$vr6, $vr1, $vr6
	vfmul.d	$vr8, $vr1, $vr8
	vfadd.d	$vr7, $vr7, $vr4
	vfadd.d	$vr5, $vr5, $vr4
	vfdiv.d	$vr6, $vr6, $vr7
	vfdiv.d	$vr5, $vr8, $vr5
	vst	$vr6, $a4, -16
	vst	$vr5, $a4, 0
	vaddi.wu	$vr2, $vr2, 4
	addi.d	$a5, $a5, -4
	addi.d	$a4, $a4, 32
	bnez	$a5, .LBB9_210
# %bb.211:                              # %middle.block3670
	beq	$a1, $a2, .LBB9_214
.LBB9_212:                              # %.lr.ph.i285.preheader
	pcalau12i	$a4, %pc_hi20(.LCPI9_1)
	fld.d	$fa1, $a4, %pc_lo12(.LCPI9_1)
	pcalau12i	$a4, %pc_hi20(.LCPI9_2)
	fld.d	$fa2, $a4, %pc_lo12(.LCPI9_2)
	sub.d	$a2, $a2, $a1
	alsl.d	$a3, $a1, $a3, 3
	.p2align	4, , 16
.LBB9_213:                              # %.lr.ph.i285
                                        # =>This Inner Loop Header: Depth=1
	bstrpick.d	$a4, $a1, 31, 0
	movgr2fr.d	$fa3, $a4
	ffint.d.l	$fa3, $fa3
	fadd.d	$fa4, $fa3, $fa1
	fmul.d	$fa4, $fa0, $fa4
	fadd.d	$fa3, $fa3, $fa2
	fdiv.d	$fa3, $fa4, $fa3
	fst.d	$fa3, $a3, 0
	addi.d	$a2, $a2, -1
	addi.d	$a3, $a3, 8
	addi.w	$a1, $a1, 1
	bnez	$a2, .LBB9_213
.LBB9_214:                              # %_ZN12_GLOBAL__N_18initDataERN8LoopData9RealArrayE.exit289
	ld.w	$a2, $s1, 696
	blez	$a2, .LBB9_222
# %bb.215:                              # %.lr.ph.preheader.i291
	ld.bu	$a1, $s1, 680
	andi	$a1, $a1, 1
	sltui	$a1, $a1, 1
	slli.d	$a1, $a1, 3
	fldx.d	$fa0, $a0, $a1
	ld.d	$a3, $s1, 688
	ori	$a1, $zero, 4
	bgeu	$a2, $a1, .LBB9_217
# %bb.216:
	move	$a1, $zero
	b	.LBB9_220
.LBB9_217:                              # %vector.ph3675
	bstrpick.d	$a1, $a2, 30, 2
	slli.d	$a1, $a1, 2
	vreplvei.d	$vr1, $vr0, 0
	addi.d	$a4, $a3, 16
	ori	$a5, $zero, 0
	lu32i.d	$a5, 1
	vreplgr2vr.d	$vr2, $a5
	lu12i.w	$a5, -419431
	ori	$a5, $a5, 2458
	lu32i.d	$a5, 104857
	lu52i.d	$a5, $a5, 1023
	vreplgr2vr.d	$vr3, $a5
	lu12i.w	$a5, -307024
	ori	$a5, $a5, 3880
	lu32i.d	$a5, 129446
	lu52i.d	$a5, $a5, 1023
	vreplgr2vr.d	$vr4, $a5
	move	$a5, $a1
	.p2align	4, , 16
.LBB9_218:                              # %vector.body3680
                                        # =>This Inner Loop Header: Depth=1
	vaddi.wu	$vr5, $vr2, 2
	vpickve2gr.w	$a6, $vr2, 1
	bstrpick.d	$a6, $a6, 31, 0
	movgr2fr.d	$fa6, $a6
	ffint.d.l	$fa6, $fa6
	vpickve2gr.w	$a6, $vr2, 0
	bstrpick.d	$a6, $a6, 31, 0
	movgr2fr.d	$fa7, $a6
	ffint.d.l	$fa7, $fa7
	vextrins.d	$vr7, $vr6, 16
	vpickve2gr.w	$a6, $vr5, 1
	bstrpick.d	$a6, $a6, 31, 0
	movgr2fr.d	$fa6, $a6
	ffint.d.l	$fa6, $fa6
	vpickve2gr.w	$a6, $vr5, 0
	bstrpick.d	$a6, $a6, 31, 0
	movgr2fr.d	$fa5, $a6
	ffint.d.l	$fa5, $fa5
	vextrins.d	$vr5, $vr6, 16
	vfadd.d	$vr6, $vr7, $vr3
	vfadd.d	$vr8, $vr5, $vr3
	vfmul.d	$vr6, $vr1, $vr6
	vfmul.d	$vr8, $vr1, $vr8
	vfadd.d	$vr7, $vr7, $vr4
	vfadd.d	$vr5, $vr5, $vr4
	vfdiv.d	$vr6, $vr6, $vr7
	vfdiv.d	$vr5, $vr8, $vr5
	vst	$vr6, $a4, -16
	vst	$vr5, $a4, 0
	vaddi.wu	$vr2, $vr2, 4
	addi.d	$a5, $a5, -4
	addi.d	$a4, $a4, 32
	bnez	$a5, .LBB9_218
# %bb.219:                              # %middle.block3686
	beq	$a1, $a2, .LBB9_222
.LBB9_220:                              # %.lr.ph.i293.preheader
	pcalau12i	$a4, %pc_hi20(.LCPI9_1)
	fld.d	$fa1, $a4, %pc_lo12(.LCPI9_1)
	pcalau12i	$a4, %pc_hi20(.LCPI9_2)
	fld.d	$fa2, $a4, %pc_lo12(.LCPI9_2)
	sub.d	$a2, $a2, $a1
	alsl.d	$a3, $a1, $a3, 3
	.p2align	4, , 16
.LBB9_221:                              # %.lr.ph.i293
                                        # =>This Inner Loop Header: Depth=1
	bstrpick.d	$a4, $a1, 31, 0
	movgr2fr.d	$fa3, $a4
	ffint.d.l	$fa3, $fa3
	fadd.d	$fa4, $fa3, $fa1
	fmul.d	$fa4, $fa0, $fa4
	fadd.d	$fa3, $fa3, $fa2
	fdiv.d	$fa3, $fa4, $fa3
	fst.d	$fa3, $a3, 0
	addi.d	$a2, $a2, -1
	addi.d	$a3, $a3, 8
	addi.w	$a1, $a1, 1
	bnez	$a2, .LBB9_221
.LBB9_222:                              # %_ZN12_GLOBAL__N_18initDataERN8LoopData9RealArrayE.exit297
	ld.w	$a2, $s1, 720
	blez	$a2, .LBB9_230
# %bb.223:                              # %.lr.ph.preheader.i299
	ld.bu	$a1, $s1, 704
	andi	$a1, $a1, 1
	sltui	$a1, $a1, 1
	slli.d	$a1, $a1, 3
	fldx.d	$fa0, $a0, $a1
	ld.d	$a3, $s1, 712
	ori	$a1, $zero, 4
	bgeu	$a2, $a1, .LBB9_225
# %bb.224:
	move	$a1, $zero
	b	.LBB9_228
.LBB9_225:                              # %vector.ph3691
	bstrpick.d	$a1, $a2, 30, 2
	slli.d	$a1, $a1, 2
	vreplvei.d	$vr1, $vr0, 0
	addi.d	$a4, $a3, 16
	ori	$a5, $zero, 0
	lu32i.d	$a5, 1
	vreplgr2vr.d	$vr2, $a5
	lu12i.w	$a5, -419431
	ori	$a5, $a5, 2458
	lu32i.d	$a5, 104857
	lu52i.d	$a5, $a5, 1023
	vreplgr2vr.d	$vr3, $a5
	lu12i.w	$a5, -307024
	ori	$a5, $a5, 3880
	lu32i.d	$a5, 129446
	lu52i.d	$a5, $a5, 1023
	vreplgr2vr.d	$vr4, $a5
	move	$a5, $a1
	.p2align	4, , 16
.LBB9_226:                              # %vector.body3696
                                        # =>This Inner Loop Header: Depth=1
	vaddi.wu	$vr5, $vr2, 2
	vpickve2gr.w	$a6, $vr2, 1
	bstrpick.d	$a6, $a6, 31, 0
	movgr2fr.d	$fa6, $a6
	ffint.d.l	$fa6, $fa6
	vpickve2gr.w	$a6, $vr2, 0
	bstrpick.d	$a6, $a6, 31, 0
	movgr2fr.d	$fa7, $a6
	ffint.d.l	$fa7, $fa7
	vextrins.d	$vr7, $vr6, 16
	vpickve2gr.w	$a6, $vr5, 1
	bstrpick.d	$a6, $a6, 31, 0
	movgr2fr.d	$fa6, $a6
	ffint.d.l	$fa6, $fa6
	vpickve2gr.w	$a6, $vr5, 0
	bstrpick.d	$a6, $a6, 31, 0
	movgr2fr.d	$fa5, $a6
	ffint.d.l	$fa5, $fa5
	vextrins.d	$vr5, $vr6, 16
	vfadd.d	$vr6, $vr7, $vr3
	vfadd.d	$vr8, $vr5, $vr3
	vfmul.d	$vr6, $vr1, $vr6
	vfmul.d	$vr8, $vr1, $vr8
	vfadd.d	$vr7, $vr7, $vr4
	vfadd.d	$vr5, $vr5, $vr4
	vfdiv.d	$vr6, $vr6, $vr7
	vfdiv.d	$vr5, $vr8, $vr5
	vst	$vr6, $a4, -16
	vst	$vr5, $a4, 0
	vaddi.wu	$vr2, $vr2, 4
	addi.d	$a5, $a5, -4
	addi.d	$a4, $a4, 32
	bnez	$a5, .LBB9_226
# %bb.227:                              # %middle.block3702
	beq	$a1, $a2, .LBB9_230
.LBB9_228:                              # %.lr.ph.i301.preheader
	pcalau12i	$a4, %pc_hi20(.LCPI9_1)
	fld.d	$fa1, $a4, %pc_lo12(.LCPI9_1)
	pcalau12i	$a4, %pc_hi20(.LCPI9_2)
	fld.d	$fa2, $a4, %pc_lo12(.LCPI9_2)
	sub.d	$a2, $a2, $a1
	alsl.d	$a3, $a1, $a3, 3
	.p2align	4, , 16
.LBB9_229:                              # %.lr.ph.i301
                                        # =>This Inner Loop Header: Depth=1
	bstrpick.d	$a4, $a1, 31, 0
	movgr2fr.d	$fa3, $a4
	ffint.d.l	$fa3, $fa3
	fadd.d	$fa4, $fa3, $fa1
	fmul.d	$fa4, $fa0, $fa4
	fadd.d	$fa3, $fa3, $fa2
	fdiv.d	$fa3, $fa4, $fa3
	fst.d	$fa3, $a3, 0
	addi.d	$a2, $a2, -1
	addi.d	$a3, $a3, 8
	addi.w	$a1, $a1, 1
	bnez	$a2, .LBB9_229
.LBB9_230:                              # %_ZN12_GLOBAL__N_18initDataERN8LoopData9RealArrayE.exit305
	ld.w	$a2, $s1, 744
	blez	$a2, .LBB9_238
# %bb.231:                              # %.lr.ph.preheader.i307
	ld.bu	$a1, $s1, 728
	andi	$a1, $a1, 1
	sltui	$a1, $a1, 1
	slli.d	$a1, $a1, 3
	fldx.d	$fa0, $a0, $a1
	ld.d	$a3, $s1, 736
	ori	$a1, $zero, 4
	bgeu	$a2, $a1, .LBB9_233
# %bb.232:
	move	$a1, $zero
	b	.LBB9_236
.LBB9_233:                              # %vector.ph3707
	bstrpick.d	$a1, $a2, 30, 2
	slli.d	$a1, $a1, 2
	vreplvei.d	$vr1, $vr0, 0
	addi.d	$a4, $a3, 16
	ori	$a5, $zero, 0
	lu32i.d	$a5, 1
	vreplgr2vr.d	$vr2, $a5
	lu12i.w	$a5, -419431
	ori	$a5, $a5, 2458
	lu32i.d	$a5, 104857
	lu52i.d	$a5, $a5, 1023
	vreplgr2vr.d	$vr3, $a5
	lu12i.w	$a5, -307024
	ori	$a5, $a5, 3880
	lu32i.d	$a5, 129446
	lu52i.d	$a5, $a5, 1023
	vreplgr2vr.d	$vr4, $a5
	move	$a5, $a1
	.p2align	4, , 16
.LBB9_234:                              # %vector.body3712
                                        # =>This Inner Loop Header: Depth=1
	vaddi.wu	$vr5, $vr2, 2
	vpickve2gr.w	$a6, $vr2, 1
	bstrpick.d	$a6, $a6, 31, 0
	movgr2fr.d	$fa6, $a6
	ffint.d.l	$fa6, $fa6
	vpickve2gr.w	$a6, $vr2, 0
	bstrpick.d	$a6, $a6, 31, 0
	movgr2fr.d	$fa7, $a6
	ffint.d.l	$fa7, $fa7
	vextrins.d	$vr7, $vr6, 16
	vpickve2gr.w	$a6, $vr5, 1
	bstrpick.d	$a6, $a6, 31, 0
	movgr2fr.d	$fa6, $a6
	ffint.d.l	$fa6, $fa6
	vpickve2gr.w	$a6, $vr5, 0
	bstrpick.d	$a6, $a6, 31, 0
	movgr2fr.d	$fa5, $a6
	ffint.d.l	$fa5, $fa5
	vextrins.d	$vr5, $vr6, 16
	vfadd.d	$vr6, $vr7, $vr3
	vfadd.d	$vr8, $vr5, $vr3
	vfmul.d	$vr6, $vr1, $vr6
	vfmul.d	$vr8, $vr1, $vr8
	vfadd.d	$vr7, $vr7, $vr4
	vfadd.d	$vr5, $vr5, $vr4
	vfdiv.d	$vr6, $vr6, $vr7
	vfdiv.d	$vr5, $vr8, $vr5
	vst	$vr6, $a4, -16
	vst	$vr5, $a4, 0
	vaddi.wu	$vr2, $vr2, 4
	addi.d	$a5, $a5, -4
	addi.d	$a4, $a4, 32
	bnez	$a5, .LBB9_234
# %bb.235:                              # %middle.block3718
	beq	$a1, $a2, .LBB9_238
.LBB9_236:                              # %.lr.ph.i309.preheader
	pcalau12i	$a4, %pc_hi20(.LCPI9_1)
	fld.d	$fa1, $a4, %pc_lo12(.LCPI9_1)
	pcalau12i	$a4, %pc_hi20(.LCPI9_2)
	fld.d	$fa2, $a4, %pc_lo12(.LCPI9_2)
	sub.d	$a2, $a2, $a1
	alsl.d	$a3, $a1, $a3, 3
	.p2align	4, , 16
.LBB9_237:                              # %.lr.ph.i309
                                        # =>This Inner Loop Header: Depth=1
	bstrpick.d	$a4, $a1, 31, 0
	movgr2fr.d	$fa3, $a4
	ffint.d.l	$fa3, $fa3
	fadd.d	$fa4, $fa3, $fa1
	fmul.d	$fa4, $fa0, $fa4
	fadd.d	$fa3, $fa3, $fa2
	fdiv.d	$fa3, $fa4, $fa3
	fst.d	$fa3, $a3, 0
	addi.d	$a2, $a2, -1
	addi.d	$a3, $a3, 8
	addi.w	$a1, $a1, 1
	bnez	$a2, .LBB9_237
.LBB9_238:                              # %_ZN12_GLOBAL__N_18initDataERN8LoopData9RealArrayE.exit313
	ld.w	$a2, $s1, 768
	blez	$a2, .LBB9_246
# %bb.239:                              # %.lr.ph.preheader.i315
	ld.bu	$a1, $s1, 752
	andi	$a1, $a1, 1
	sltui	$a1, $a1, 1
	slli.d	$a1, $a1, 3
	fldx.d	$fa0, $a0, $a1
	ld.d	$a3, $s1, 760
	ori	$a1, $zero, 4
	bgeu	$a2, $a1, .LBB9_241
# %bb.240:
	move	$a1, $zero
	b	.LBB9_244
.LBB9_241:                              # %vector.ph3723
	bstrpick.d	$a1, $a2, 30, 2
	slli.d	$a1, $a1, 2
	vreplvei.d	$vr1, $vr0, 0
	addi.d	$a4, $a3, 16
	ori	$a5, $zero, 0
	lu32i.d	$a5, 1
	vreplgr2vr.d	$vr2, $a5
	lu12i.w	$a5, -419431
	ori	$a5, $a5, 2458
	lu32i.d	$a5, 104857
	lu52i.d	$a5, $a5, 1023
	vreplgr2vr.d	$vr3, $a5
	lu12i.w	$a5, -307024
	ori	$a5, $a5, 3880
	lu32i.d	$a5, 129446
	lu52i.d	$a5, $a5, 1023
	vreplgr2vr.d	$vr4, $a5
	move	$a5, $a1
	.p2align	4, , 16
.LBB9_242:                              # %vector.body3728
                                        # =>This Inner Loop Header: Depth=1
	vaddi.wu	$vr5, $vr2, 2
	vpickve2gr.w	$a6, $vr2, 1
	bstrpick.d	$a6, $a6, 31, 0
	movgr2fr.d	$fa6, $a6
	ffint.d.l	$fa6, $fa6
	vpickve2gr.w	$a6, $vr2, 0
	bstrpick.d	$a6, $a6, 31, 0
	movgr2fr.d	$fa7, $a6
	ffint.d.l	$fa7, $fa7
	vextrins.d	$vr7, $vr6, 16
	vpickve2gr.w	$a6, $vr5, 1
	bstrpick.d	$a6, $a6, 31, 0
	movgr2fr.d	$fa6, $a6
	ffint.d.l	$fa6, $fa6
	vpickve2gr.w	$a6, $vr5, 0
	bstrpick.d	$a6, $a6, 31, 0
	movgr2fr.d	$fa5, $a6
	ffint.d.l	$fa5, $fa5
	vextrins.d	$vr5, $vr6, 16
	vfadd.d	$vr6, $vr7, $vr3
	vfadd.d	$vr8, $vr5, $vr3
	vfmul.d	$vr6, $vr1, $vr6
	vfmul.d	$vr8, $vr1, $vr8
	vfadd.d	$vr7, $vr7, $vr4
	vfadd.d	$vr5, $vr5, $vr4
	vfdiv.d	$vr6, $vr6, $vr7
	vfdiv.d	$vr5, $vr8, $vr5
	vst	$vr6, $a4, -16
	vst	$vr5, $a4, 0
	vaddi.wu	$vr2, $vr2, 4
	addi.d	$a5, $a5, -4
	addi.d	$a4, $a4, 32
	bnez	$a5, .LBB9_242
# %bb.243:                              # %middle.block3734
	beq	$a1, $a2, .LBB9_246
.LBB9_244:                              # %.lr.ph.i317.preheader
	pcalau12i	$a4, %pc_hi20(.LCPI9_1)
	fld.d	$fa1, $a4, %pc_lo12(.LCPI9_1)
	pcalau12i	$a4, %pc_hi20(.LCPI9_2)
	fld.d	$fa2, $a4, %pc_lo12(.LCPI9_2)
	sub.d	$a2, $a2, $a1
	alsl.d	$a3, $a1, $a3, 3
	.p2align	4, , 16
.LBB9_245:                              # %.lr.ph.i317
                                        # =>This Inner Loop Header: Depth=1
	bstrpick.d	$a4, $a1, 31, 0
	movgr2fr.d	$fa3, $a4
	ffint.d.l	$fa3, $fa3
	fadd.d	$fa4, $fa3, $fa1
	fmul.d	$fa4, $fa0, $fa4
	fadd.d	$fa3, $fa3, $fa2
	fdiv.d	$fa3, $fa4, $fa3
	fst.d	$fa3, $a3, 0
	addi.d	$a2, $a2, -1
	addi.d	$a3, $a3, 8
	addi.w	$a1, $a1, 1
	bnez	$a2, .LBB9_245
.LBB9_246:                              # %_ZN12_GLOBAL__N_18initDataERN8LoopData9RealArrayE.exit321
	ld.w	$a2, $s1, 792
	blez	$a2, .LBB9_254
# %bb.247:                              # %.lr.ph.preheader.i323
	ld.bu	$a1, $s1, 776
	andi	$a1, $a1, 1
	sltui	$a1, $a1, 1
	slli.d	$a1, $a1, 3
	fldx.d	$fa0, $a0, $a1
	ld.d	$a3, $s1, 784
	ori	$a1, $zero, 4
	bgeu	$a2, $a1, .LBB9_249
# %bb.248:
	move	$a1, $zero
	b	.LBB9_252
.LBB9_249:                              # %vector.ph3739
	bstrpick.d	$a1, $a2, 30, 2
	slli.d	$a1, $a1, 2
	vreplvei.d	$vr1, $vr0, 0
	addi.d	$a4, $a3, 16
	ori	$a5, $zero, 0
	lu32i.d	$a5, 1
	vreplgr2vr.d	$vr2, $a5
	lu12i.w	$a5, -419431
	ori	$a5, $a5, 2458
	lu32i.d	$a5, 104857
	lu52i.d	$a5, $a5, 1023
	vreplgr2vr.d	$vr3, $a5
	lu12i.w	$a5, -307024
	ori	$a5, $a5, 3880
	lu32i.d	$a5, 129446
	lu52i.d	$a5, $a5, 1023
	vreplgr2vr.d	$vr4, $a5
	move	$a5, $a1
	.p2align	4, , 16
.LBB9_250:                              # %vector.body3744
                                        # =>This Inner Loop Header: Depth=1
	vaddi.wu	$vr5, $vr2, 2
	vpickve2gr.w	$a6, $vr2, 1
	bstrpick.d	$a6, $a6, 31, 0
	movgr2fr.d	$fa6, $a6
	ffint.d.l	$fa6, $fa6
	vpickve2gr.w	$a6, $vr2, 0
	bstrpick.d	$a6, $a6, 31, 0
	movgr2fr.d	$fa7, $a6
	ffint.d.l	$fa7, $fa7
	vextrins.d	$vr7, $vr6, 16
	vpickve2gr.w	$a6, $vr5, 1
	bstrpick.d	$a6, $a6, 31, 0
	movgr2fr.d	$fa6, $a6
	ffint.d.l	$fa6, $fa6
	vpickve2gr.w	$a6, $vr5, 0
	bstrpick.d	$a6, $a6, 31, 0
	movgr2fr.d	$fa5, $a6
	ffint.d.l	$fa5, $fa5
	vextrins.d	$vr5, $vr6, 16
	vfadd.d	$vr6, $vr7, $vr3
	vfadd.d	$vr8, $vr5, $vr3
	vfmul.d	$vr6, $vr1, $vr6
	vfmul.d	$vr8, $vr1, $vr8
	vfadd.d	$vr7, $vr7, $vr4
	vfadd.d	$vr5, $vr5, $vr4
	vfdiv.d	$vr6, $vr6, $vr7
	vfdiv.d	$vr5, $vr8, $vr5
	vst	$vr6, $a4, -16
	vst	$vr5, $a4, 0
	vaddi.wu	$vr2, $vr2, 4
	addi.d	$a5, $a5, -4
	addi.d	$a4, $a4, 32
	bnez	$a5, .LBB9_250
# %bb.251:                              # %middle.block3750
	beq	$a1, $a2, .LBB9_254
.LBB9_252:                              # %.lr.ph.i325.preheader
	pcalau12i	$a4, %pc_hi20(.LCPI9_1)
	fld.d	$fa1, $a4, %pc_lo12(.LCPI9_1)
	pcalau12i	$a4, %pc_hi20(.LCPI9_2)
	fld.d	$fa2, $a4, %pc_lo12(.LCPI9_2)
	sub.d	$a2, $a2, $a1
	alsl.d	$a3, $a1, $a3, 3
	.p2align	4, , 16
.LBB9_253:                              # %.lr.ph.i325
                                        # =>This Inner Loop Header: Depth=1
	bstrpick.d	$a4, $a1, 31, 0
	movgr2fr.d	$fa3, $a4
	ffint.d.l	$fa3, $fa3
	fadd.d	$fa4, $fa3, $fa1
	fmul.d	$fa4, $fa0, $fa4
	fadd.d	$fa3, $fa3, $fa2
	fdiv.d	$fa3, $fa4, $fa3
	fst.d	$fa3, $a3, 0
	addi.d	$a2, $a2, -1
	addi.d	$a3, $a3, 8
	addi.w	$a1, $a1, 1
	bnez	$a2, .LBB9_253
.LBB9_254:                              # %_ZN12_GLOBAL__N_18initDataERN8LoopData9RealArrayE.exit329
	ld.w	$a2, $s1, 816
	blez	$a2, .LBB9_262
# %bb.255:                              # %.lr.ph.preheader.i331
	ld.bu	$a1, $s1, 800
	andi	$a1, $a1, 1
	sltui	$a1, $a1, 1
	slli.d	$a1, $a1, 3
	fldx.d	$fa0, $a0, $a1
	ld.d	$a3, $s1, 808
	ori	$a1, $zero, 4
	bgeu	$a2, $a1, .LBB9_257
# %bb.256:
	move	$a1, $zero
	b	.LBB9_260
.LBB9_257:                              # %vector.ph3755
	bstrpick.d	$a1, $a2, 30, 2
	slli.d	$a1, $a1, 2
	vreplvei.d	$vr1, $vr0, 0
	addi.d	$a4, $a3, 16
	ori	$a5, $zero, 0
	lu32i.d	$a5, 1
	vreplgr2vr.d	$vr2, $a5
	lu12i.w	$a5, -419431
	ori	$a5, $a5, 2458
	lu32i.d	$a5, 104857
	lu52i.d	$a5, $a5, 1023
	vreplgr2vr.d	$vr3, $a5
	lu12i.w	$a5, -307024
	ori	$a5, $a5, 3880
	lu32i.d	$a5, 129446
	lu52i.d	$a5, $a5, 1023
	vreplgr2vr.d	$vr4, $a5
	move	$a5, $a1
	.p2align	4, , 16
.LBB9_258:                              # %vector.body3760
                                        # =>This Inner Loop Header: Depth=1
	vaddi.wu	$vr5, $vr2, 2
	vpickve2gr.w	$a6, $vr2, 1
	bstrpick.d	$a6, $a6, 31, 0
	movgr2fr.d	$fa6, $a6
	ffint.d.l	$fa6, $fa6
	vpickve2gr.w	$a6, $vr2, 0
	bstrpick.d	$a6, $a6, 31, 0
	movgr2fr.d	$fa7, $a6
	ffint.d.l	$fa7, $fa7
	vextrins.d	$vr7, $vr6, 16
	vpickve2gr.w	$a6, $vr5, 1
	bstrpick.d	$a6, $a6, 31, 0
	movgr2fr.d	$fa6, $a6
	ffint.d.l	$fa6, $fa6
	vpickve2gr.w	$a6, $vr5, 0
	bstrpick.d	$a6, $a6, 31, 0
	movgr2fr.d	$fa5, $a6
	ffint.d.l	$fa5, $fa5
	vextrins.d	$vr5, $vr6, 16
	vfadd.d	$vr6, $vr7, $vr3
	vfadd.d	$vr8, $vr5, $vr3
	vfmul.d	$vr6, $vr1, $vr6
	vfmul.d	$vr8, $vr1, $vr8
	vfadd.d	$vr7, $vr7, $vr4
	vfadd.d	$vr5, $vr5, $vr4
	vfdiv.d	$vr6, $vr6, $vr7
	vfdiv.d	$vr5, $vr8, $vr5
	vst	$vr6, $a4, -16
	vst	$vr5, $a4, 0
	vaddi.wu	$vr2, $vr2, 4
	addi.d	$a5, $a5, -4
	addi.d	$a4, $a4, 32
	bnez	$a5, .LBB9_258
# %bb.259:                              # %middle.block3766
	beq	$a1, $a2, .LBB9_262
.LBB9_260:                              # %.lr.ph.i333.preheader
	pcalau12i	$a4, %pc_hi20(.LCPI9_1)
	fld.d	$fa1, $a4, %pc_lo12(.LCPI9_1)
	pcalau12i	$a4, %pc_hi20(.LCPI9_2)
	fld.d	$fa2, $a4, %pc_lo12(.LCPI9_2)
	sub.d	$a2, $a2, $a1
	alsl.d	$a3, $a1, $a3, 3
	.p2align	4, , 16
.LBB9_261:                              # %.lr.ph.i333
                                        # =>This Inner Loop Header: Depth=1
	bstrpick.d	$a4, $a1, 31, 0
	movgr2fr.d	$fa3, $a4
	ffint.d.l	$fa3, $fa3
	fadd.d	$fa4, $fa3, $fa1
	fmul.d	$fa4, $fa0, $fa4
	fadd.d	$fa3, $fa3, $fa2
	fdiv.d	$fa3, $fa4, $fa3
	fst.d	$fa3, $a3, 0
	addi.d	$a2, $a2, -1
	addi.d	$a3, $a3, 8
	addi.w	$a1, $a1, 1
	bnez	$a2, .LBB9_261
.LBB9_262:                              # %_ZN12_GLOBAL__N_18initDataERN8LoopData9RealArrayE.exit337
	ld.w	$a1, $s1, 1608
	blez	$a1, .LBB9_1187
# %bb.263:                              # %.lr.ph.preheader.i339
	ld.bu	$a2, $s1, 1592
	andi	$a2, $a2, 1
	sltui	$a2, $a2, 1
	slli.d	$a2, $a2, 3
	fldx.d	$fa0, $a0, $a2
	ld.d	$a2, $s1, 1600
	ori	$a0, $zero, 4
	bgeu	$a1, $a0, .LBB9_265
# %bb.264:
	move	$a0, $zero
	b	.LBB9_268
.LBB9_265:                              # %vector.ph3771
	bstrpick.d	$a0, $a1, 30, 2
	slli.d	$a0, $a0, 2
	vreplvei.d	$vr1, $vr0, 0
	addi.d	$a3, $a2, 16
	ori	$a4, $zero, 0
	lu32i.d	$a4, 1
	vreplgr2vr.d	$vr2, $a4
	lu12i.w	$a4, -419431
	ori	$a4, $a4, 2458
	lu32i.d	$a4, 104857
	lu52i.d	$a4, $a4, 1023
	vreplgr2vr.d	$vr3, $a4
	lu12i.w	$a4, -307024
	ori	$a4, $a4, 3880
	lu32i.d	$a4, 129446
	lu52i.d	$a4, $a4, 1023
	vreplgr2vr.d	$vr4, $a4
	move	$a4, $a0
	.p2align	4, , 16
.LBB9_266:                              # %vector.body3776
                                        # =>This Inner Loop Header: Depth=1
	vaddi.wu	$vr5, $vr2, 2
	vpickve2gr.w	$a5, $vr2, 1
	bstrpick.d	$a5, $a5, 31, 0
	movgr2fr.d	$fa6, $a5
	ffint.d.l	$fa6, $fa6
	vpickve2gr.w	$a5, $vr2, 0
	bstrpick.d	$a5, $a5, 31, 0
	movgr2fr.d	$fa7, $a5
	ffint.d.l	$fa7, $fa7
	vextrins.d	$vr7, $vr6, 16
	vpickve2gr.w	$a5, $vr5, 1
	bstrpick.d	$a5, $a5, 31, 0
	movgr2fr.d	$fa6, $a5
	ffint.d.l	$fa6, $fa6
	vpickve2gr.w	$a5, $vr5, 0
	bstrpick.d	$a5, $a5, 31, 0
	movgr2fr.d	$fa5, $a5
	ffint.d.l	$fa5, $fa5
	vextrins.d	$vr5, $vr6, 16
	vfadd.d	$vr6, $vr7, $vr3
	vfadd.d	$vr8, $vr5, $vr3
	vfmul.d	$vr6, $vr1, $vr6
	vfmul.d	$vr8, $vr1, $vr8
	vfadd.d	$vr7, $vr7, $vr4
	vfadd.d	$vr5, $vr5, $vr4
	vfdiv.d	$vr6, $vr6, $vr7
	vfdiv.d	$vr5, $vr8, $vr5
	vst	$vr6, $a3, -16
	vst	$vr5, $a3, 0
	vaddi.wu	$vr2, $vr2, 4
	addi.d	$a4, $a4, -4
	addi.d	$a3, $a3, 32
	bnez	$a4, .LBB9_266
# %bb.267:                              # %middle.block3782
	beq	$a0, $a1, .LBB9_1187
.LBB9_268:                              # %.lr.ph.i341.preheader
	pcalau12i	$a3, %pc_hi20(.LCPI9_1)
	fld.d	$fa1, $a3, %pc_lo12(.LCPI9_1)
	pcalau12i	$a3, %pc_hi20(.LCPI9_2)
	fld.d	$fa2, $a3, %pc_lo12(.LCPI9_2)
	sub.d	$a1, $a1, $a0
	alsl.d	$a2, $a0, $a2, 3
	.p2align	4, , 16
.LBB9_269:                              # %.lr.ph.i341
                                        # =>This Inner Loop Header: Depth=1
	bstrpick.d	$a3, $a0, 31, 0
	movgr2fr.d	$fa3, $a3
	ffint.d.l	$fa3, $fa3
	fadd.d	$fa4, $fa3, $fa1
	fmul.d	$fa4, $fa0, $fa4
	fadd.d	$fa3, $fa3, $fa2
	fdiv.d	$fa3, $fa4, $fa3
	fst.d	$fa3, $a2, 0
	addi.d	$a1, $a1, -1
	addi.d	$a2, $a2, 8
	addi.w	$a0, $a0, 1
	bnez	$a1, .LBB9_269
	b	.LBB9_1187
.LBB9_270:
	move	$s0, $a0
	move	$a0, $fp
	pcaddu18i	$ra, %call36(_ZNKSt5ctypeIcE13_M_widen_initEv)
	jirl	$ra, $ra, 0
	ld.d	$a0, $fp, 0
	ld.d	$a2, $a0, 48
	ori	$a1, $zero, 10
	move	$a0, $fp
	jirl	$ra, $a2, 0
	move	$a1, $a0
	move	$a0, $s0
.LBB9_271:                              # %_ZSt4endlIcSt11char_traitsIcEERSt13basic_ostreamIT_T0_ES6_.exit
	ext.w.b	$a1, $a1
	pcaddu18i	$ra, %call36(_ZNSo3putEc)
	jirl	$ra, $ra, 0
	ld.d	$s1, $sp, 0                     # 8-byte Folded Reload
	ld.d	$s0, $sp, 8                     # 8-byte Folded Reload
	ld.d	$fp, $sp, 16                    # 8-byte Folded Reload
	ld.d	$ra, $sp, 24                    # 8-byte Folded Reload
	addi.d	$sp, $sp, 32
	pcaddu18i	$t8, %call36(_ZNSo5flushEv)
	jr	$t8
.LBB9_272:                              # %vector.ph1990
	bstrpick.d	$a1, $a2, 30, 2
	slli.d	$a1, $a1, 2
	vreplvei.d	$vr1, $vr0, 0
	addi.d	$a4, $a3, 16
	ori	$a5, $zero, 0
	lu32i.d	$a5, 1
	vreplgr2vr.d	$vr2, $a5
	lu12i.w	$a5, -419431
	ori	$a5, $a5, 2458
	lu32i.d	$a5, 104857
	lu52i.d	$a5, $a5, 1023
	vreplgr2vr.d	$vr3, $a5
	lu12i.w	$a5, -307024
	ori	$a5, $a5, 3880
	lu32i.d	$a5, 129446
	lu52i.d	$a5, $a5, 1023
	vreplgr2vr.d	$vr4, $a5
	move	$a5, $a1
	.p2align	4, , 16
.LBB9_273:                              # %vector.body1995
                                        # =>This Inner Loop Header: Depth=1
	vaddi.wu	$vr5, $vr2, 2
	vpickve2gr.w	$a6, $vr2, 1
	bstrpick.d	$a6, $a6, 31, 0
	movgr2fr.d	$fa6, $a6
	ffint.d.l	$fa6, $fa6
	vpickve2gr.w	$a6, $vr2, 0
	bstrpick.d	$a6, $a6, 31, 0
	movgr2fr.d	$fa7, $a6
	ffint.d.l	$fa7, $fa7
	vextrins.d	$vr7, $vr6, 16
	vpickve2gr.w	$a6, $vr5, 1
	bstrpick.d	$a6, $a6, 31, 0
	movgr2fr.d	$fa6, $a6
	ffint.d.l	$fa6, $fa6
	vpickve2gr.w	$a6, $vr5, 0
	bstrpick.d	$a6, $a6, 31, 0
	movgr2fr.d	$fa5, $a6
	ffint.d.l	$fa5, $fa5
	vextrins.d	$vr5, $vr6, 16
	vfadd.d	$vr6, $vr7, $vr3
	vfadd.d	$vr8, $vr5, $vr3
	vfmul.d	$vr6, $vr1, $vr6
	vfmul.d	$vr8, $vr1, $vr8
	vfadd.d	$vr7, $vr7, $vr4
	vfadd.d	$vr5, $vr5, $vr4
	vfdiv.d	$vr6, $vr6, $vr7
	vfdiv.d	$vr5, $vr8, $vr5
	vst	$vr6, $a4, -16
	vst	$vr5, $a4, 0
	vaddi.wu	$vr2, $vr2, 4
	addi.d	$a5, $a5, -4
	addi.d	$a4, $a4, 32
	bnez	$a5, .LBB9_273
# %bb.274:                              # %middle.block2001
	beq	$a1, $a2, .LBB9_277
.LBB9_275:                              # %.lr.ph.i1107.preheader
	pcalau12i	$a4, %pc_hi20(.LCPI9_1)
	fld.d	$fa1, $a4, %pc_lo12(.LCPI9_1)
	pcalau12i	$a4, %pc_hi20(.LCPI9_2)
	fld.d	$fa2, $a4, %pc_lo12(.LCPI9_2)
	sub.d	$a2, $a2, $a1
	alsl.d	$a3, $a1, $a3, 3
	.p2align	4, , 16
.LBB9_276:                              # %.lr.ph.i1107
                                        # =>This Inner Loop Header: Depth=1
	bstrpick.d	$a4, $a1, 31, 0
	movgr2fr.d	$fa3, $a4
	ffint.d.l	$fa3, $fa3
	fadd.d	$fa4, $fa3, $fa1
	fmul.d	$fa4, $fa0, $fa4
	fadd.d	$fa3, $fa3, $fa2
	fdiv.d	$fa3, $fa4, $fa3
	fst.d	$fa3, $a3, 0
	addi.d	$a2, $a2, -1
	addi.d	$a3, $a3, 8
	addi.w	$a1, $a1, 1
	bnez	$a2, .LBB9_276
.LBB9_277:                              # %_ZN12_GLOBAL__N_18initDataERN8LoopData9RealArrayE.exit1111
	ld.w	$a2, $s1, 504
	blez	$a2, .LBB9_285
# %bb.278:                              # %.lr.ph.preheader.i1113
	ld.bu	$a1, $s1, 488
	andi	$a1, $a1, 1
	sltui	$a1, $a1, 1
	slli.d	$a1, $a1, 3
	fldx.d	$fa0, $a0, $a1
	ld.d	$a3, $s1, 496
	ori	$a1, $zero, 4
	bgeu	$a2, $a1, .LBB9_280
# %bb.279:
	move	$a1, $zero
	b	.LBB9_283
.LBB9_280:                              # %vector.ph2006
	bstrpick.d	$a1, $a2, 30, 2
	slli.d	$a1, $a1, 2
	vreplvei.d	$vr1, $vr0, 0
	addi.d	$a4, $a3, 16
	ori	$a5, $zero, 0
	lu32i.d	$a5, 1
	vreplgr2vr.d	$vr2, $a5
	lu12i.w	$a5, -419431
	ori	$a5, $a5, 2458
	lu32i.d	$a5, 104857
	lu52i.d	$a5, $a5, 1023
	vreplgr2vr.d	$vr3, $a5
	lu12i.w	$a5, -307024
	ori	$a5, $a5, 3880
	lu32i.d	$a5, 129446
	lu52i.d	$a5, $a5, 1023
	vreplgr2vr.d	$vr4, $a5
	move	$a5, $a1
	.p2align	4, , 16
.LBB9_281:                              # %vector.body2011
                                        # =>This Inner Loop Header: Depth=1
	vaddi.wu	$vr5, $vr2, 2
	vpickve2gr.w	$a6, $vr2, 1
	bstrpick.d	$a6, $a6, 31, 0
	movgr2fr.d	$fa6, $a6
	ffint.d.l	$fa6, $fa6
	vpickve2gr.w	$a6, $vr2, 0
	bstrpick.d	$a6, $a6, 31, 0
	movgr2fr.d	$fa7, $a6
	ffint.d.l	$fa7, $fa7
	vextrins.d	$vr7, $vr6, 16
	vpickve2gr.w	$a6, $vr5, 1
	bstrpick.d	$a6, $a6, 31, 0
	movgr2fr.d	$fa6, $a6
	ffint.d.l	$fa6, $fa6
	vpickve2gr.w	$a6, $vr5, 0
	bstrpick.d	$a6, $a6, 31, 0
	movgr2fr.d	$fa5, $a6
	ffint.d.l	$fa5, $fa5
	vextrins.d	$vr5, $vr6, 16
	vfadd.d	$vr6, $vr7, $vr3
	vfadd.d	$vr8, $vr5, $vr3
	vfmul.d	$vr6, $vr1, $vr6
	vfmul.d	$vr8, $vr1, $vr8
	vfadd.d	$vr7, $vr7, $vr4
	vfadd.d	$vr5, $vr5, $vr4
	vfdiv.d	$vr6, $vr6, $vr7
	vfdiv.d	$vr5, $vr8, $vr5
	vst	$vr6, $a4, -16
	vst	$vr5, $a4, 0
	vaddi.wu	$vr2, $vr2, 4
	addi.d	$a5, $a5, -4
	addi.d	$a4, $a4, 32
	bnez	$a5, .LBB9_281
# %bb.282:                              # %middle.block2017
	beq	$a1, $a2, .LBB9_285
.LBB9_283:                              # %.lr.ph.i1115.preheader
	pcalau12i	$a4, %pc_hi20(.LCPI9_1)
	fld.d	$fa1, $a4, %pc_lo12(.LCPI9_1)
	pcalau12i	$a4, %pc_hi20(.LCPI9_2)
	fld.d	$fa2, $a4, %pc_lo12(.LCPI9_2)
	sub.d	$a2, $a2, $a1
	alsl.d	$a3, $a1, $a3, 3
	.p2align	4, , 16
.LBB9_284:                              # %.lr.ph.i1115
                                        # =>This Inner Loop Header: Depth=1
	bstrpick.d	$a4, $a1, 31, 0
	movgr2fr.d	$fa3, $a4
	ffint.d.l	$fa3, $fa3
	fadd.d	$fa4, $fa3, $fa1
	fmul.d	$fa4, $fa0, $fa4
	fadd.d	$fa3, $fa3, $fa2
	fdiv.d	$fa3, $fa4, $fa3
	fst.d	$fa3, $a3, 0
	addi.d	$a2, $a2, -1
	addi.d	$a3, $a3, 8
	addi.w	$a1, $a1, 1
	bnez	$a2, .LBB9_284
.LBB9_285:                              # %_ZN12_GLOBAL__N_18initDataERN8LoopData9RealArrayE.exit1119
	ld.w	$a2, $s1, 528
	blez	$a2, .LBB9_293
# %bb.286:                              # %.lr.ph.preheader.i1121
	ld.bu	$a1, $s1, 512
	andi	$a1, $a1, 1
	sltui	$a1, $a1, 1
	slli.d	$a1, $a1, 3
	fldx.d	$fa0, $a0, $a1
	ld.d	$a3, $s1, 520
	ori	$a1, $zero, 4
	bgeu	$a2, $a1, .LBB9_288
# %bb.287:
	move	$a1, $zero
	b	.LBB9_291
.LBB9_288:                              # %vector.ph2022
	bstrpick.d	$a1, $a2, 30, 2
	slli.d	$a1, $a1, 2
	vreplvei.d	$vr1, $vr0, 0
	addi.d	$a4, $a3, 16
	ori	$a5, $zero, 0
	lu32i.d	$a5, 1
	vreplgr2vr.d	$vr2, $a5
	lu12i.w	$a5, -419431
	ori	$a5, $a5, 2458
	lu32i.d	$a5, 104857
	lu52i.d	$a5, $a5, 1023
	vreplgr2vr.d	$vr3, $a5
	lu12i.w	$a5, -307024
	ori	$a5, $a5, 3880
	lu32i.d	$a5, 129446
	lu52i.d	$a5, $a5, 1023
	vreplgr2vr.d	$vr4, $a5
	move	$a5, $a1
	.p2align	4, , 16
.LBB9_289:                              # %vector.body2027
                                        # =>This Inner Loop Header: Depth=1
	vaddi.wu	$vr5, $vr2, 2
	vpickve2gr.w	$a6, $vr2, 1
	bstrpick.d	$a6, $a6, 31, 0
	movgr2fr.d	$fa6, $a6
	ffint.d.l	$fa6, $fa6
	vpickve2gr.w	$a6, $vr2, 0
	bstrpick.d	$a6, $a6, 31, 0
	movgr2fr.d	$fa7, $a6
	ffint.d.l	$fa7, $fa7
	vextrins.d	$vr7, $vr6, 16
	vpickve2gr.w	$a6, $vr5, 1
	bstrpick.d	$a6, $a6, 31, 0
	movgr2fr.d	$fa6, $a6
	ffint.d.l	$fa6, $fa6
	vpickve2gr.w	$a6, $vr5, 0
	bstrpick.d	$a6, $a6, 31, 0
	movgr2fr.d	$fa5, $a6
	ffint.d.l	$fa5, $fa5
	vextrins.d	$vr5, $vr6, 16
	vfadd.d	$vr6, $vr7, $vr3
	vfadd.d	$vr8, $vr5, $vr3
	vfmul.d	$vr6, $vr1, $vr6
	vfmul.d	$vr8, $vr1, $vr8
	vfadd.d	$vr7, $vr7, $vr4
	vfadd.d	$vr5, $vr5, $vr4
	vfdiv.d	$vr6, $vr6, $vr7
	vfdiv.d	$vr5, $vr8, $vr5
	vst	$vr6, $a4, -16
	vst	$vr5, $a4, 0
	vaddi.wu	$vr2, $vr2, 4
	addi.d	$a5, $a5, -4
	addi.d	$a4, $a4, 32
	bnez	$a5, .LBB9_289
# %bb.290:                              # %middle.block2033
	beq	$a1, $a2, .LBB9_293
.LBB9_291:                              # %.lr.ph.i1123.preheader
	pcalau12i	$a4, %pc_hi20(.LCPI9_1)
	fld.d	$fa1, $a4, %pc_lo12(.LCPI9_1)
	pcalau12i	$a4, %pc_hi20(.LCPI9_2)
	fld.d	$fa2, $a4, %pc_lo12(.LCPI9_2)
	sub.d	$a2, $a2, $a1
	alsl.d	$a3, $a1, $a3, 3
	.p2align	4, , 16
.LBB9_292:                              # %.lr.ph.i1123
                                        # =>This Inner Loop Header: Depth=1
	bstrpick.d	$a4, $a1, 31, 0
	movgr2fr.d	$fa3, $a4
	ffint.d.l	$fa3, $fa3
	fadd.d	$fa4, $fa3, $fa1
	fmul.d	$fa4, $fa0, $fa4
	fadd.d	$fa3, $fa3, $fa2
	fdiv.d	$fa3, $fa4, $fa3
	fst.d	$fa3, $a3, 0
	addi.d	$a2, $a2, -1
	addi.d	$a3, $a3, 8
	addi.w	$a1, $a1, 1
	bnez	$a2, .LBB9_292
.LBB9_293:                              # %_ZN12_GLOBAL__N_18initDataERN8LoopData9RealArrayE.exit1127
	ld.w	$a1, $s1, 1608
	blez	$a1, .LBB9_1187
# %bb.294:                              # %.lr.ph.preheader.i1129
	ld.bu	$a2, $s1, 1592
	andi	$a2, $a2, 1
	sltui	$a2, $a2, 1
	slli.d	$a2, $a2, 3
	fldx.d	$fa0, $a0, $a2
	ld.d	$a2, $s1, 1600
	ori	$a0, $zero, 4
	bgeu	$a1, $a0, .LBB9_296
# %bb.295:
	move	$a0, $zero
	b	.LBB9_299
.LBB9_296:                              # %vector.ph2038
	bstrpick.d	$a0, $a1, 30, 2
	slli.d	$a0, $a0, 2
	vreplvei.d	$vr1, $vr0, 0
	addi.d	$a3, $a2, 16
	ori	$a4, $zero, 0
	lu32i.d	$a4, 1
	vreplgr2vr.d	$vr2, $a4
	lu12i.w	$a4, -419431
	ori	$a4, $a4, 2458
	lu32i.d	$a4, 104857
	lu52i.d	$a4, $a4, 1023
	vreplgr2vr.d	$vr3, $a4
	lu12i.w	$a4, -307024
	ori	$a4, $a4, 3880
	lu32i.d	$a4, 129446
	lu52i.d	$a4, $a4, 1023
	vreplgr2vr.d	$vr4, $a4
	move	$a4, $a0
	.p2align	4, , 16
.LBB9_297:                              # %vector.body2043
                                        # =>This Inner Loop Header: Depth=1
	vaddi.wu	$vr5, $vr2, 2
	vpickve2gr.w	$a5, $vr2, 1
	bstrpick.d	$a5, $a5, 31, 0
	movgr2fr.d	$fa6, $a5
	ffint.d.l	$fa6, $fa6
	vpickve2gr.w	$a5, $vr2, 0
	bstrpick.d	$a5, $a5, 31, 0
	movgr2fr.d	$fa7, $a5
	ffint.d.l	$fa7, $fa7
	vextrins.d	$vr7, $vr6, 16
	vpickve2gr.w	$a5, $vr5, 1
	bstrpick.d	$a5, $a5, 31, 0
	movgr2fr.d	$fa6, $a5
	ffint.d.l	$fa6, $fa6
	vpickve2gr.w	$a5, $vr5, 0
	bstrpick.d	$a5, $a5, 31, 0
	movgr2fr.d	$fa5, $a5
	ffint.d.l	$fa5, $fa5
	vextrins.d	$vr5, $vr6, 16
	vfadd.d	$vr6, $vr7, $vr3
	vfadd.d	$vr8, $vr5, $vr3
	vfmul.d	$vr6, $vr1, $vr6
	vfmul.d	$vr8, $vr1, $vr8
	vfadd.d	$vr7, $vr7, $vr4
	vfadd.d	$vr5, $vr5, $vr4
	vfdiv.d	$vr6, $vr6, $vr7
	vfdiv.d	$vr5, $vr8, $vr5
	vst	$vr6, $a3, -16
	vst	$vr5, $a3, 0
	vaddi.wu	$vr2, $vr2, 4
	addi.d	$a4, $a4, -4
	addi.d	$a3, $a3, 32
	bnez	$a4, .LBB9_297
# %bb.298:                              # %middle.block2049
	beq	$a0, $a1, .LBB9_1187
.LBB9_299:                              # %.lr.ph.i1131.preheader
	pcalau12i	$a3, %pc_hi20(.LCPI9_1)
	fld.d	$fa1, $a3, %pc_lo12(.LCPI9_1)
	pcalau12i	$a3, %pc_hi20(.LCPI9_2)
	fld.d	$fa2, $a3, %pc_lo12(.LCPI9_2)
	sub.d	$a1, $a1, $a0
	alsl.d	$a2, $a0, $a2, 3
	.p2align	4, , 16
.LBB9_300:                              # %.lr.ph.i1131
                                        # =>This Inner Loop Header: Depth=1
	bstrpick.d	$a3, $a0, 31, 0
	movgr2fr.d	$fa3, $a3
	ffint.d.l	$fa3, $fa3
	fadd.d	$fa4, $fa3, $fa1
	fmul.d	$fa4, $fa0, $fa4
	fadd.d	$fa3, $fa3, $fa2
	fdiv.d	$fa3, $fa4, $fa3
	fst.d	$fa3, $a2, 0
	addi.d	$a1, $a1, -1
	addi.d	$a2, $a2, 8
	addi.w	$a0, $a0, 1
	bnez	$a1, .LBB9_300
	b	.LBB9_1187
.LBB9_301:                              # %vector.ph2854
	bstrpick.d	$a1, $a2, 30, 2
	slli.d	$a1, $a1, 2
	vreplvei.d	$vr1, $vr0, 0
	addi.d	$a4, $a3, 16
	ori	$a5, $zero, 0
	lu32i.d	$a5, 1
	vreplgr2vr.d	$vr2, $a5
	lu12i.w	$a5, -419431
	ori	$a5, $a5, 2458
	lu32i.d	$a5, 104857
	lu52i.d	$a5, $a5, 1023
	vreplgr2vr.d	$vr3, $a5
	lu12i.w	$a5, -307024
	ori	$a5, $a5, 3880
	lu32i.d	$a5, 129446
	lu52i.d	$a5, $a5, 1023
	vreplgr2vr.d	$vr4, $a5
	move	$a5, $a1
	.p2align	4, , 16
.LBB9_302:                              # %vector.body2859
                                        # =>This Inner Loop Header: Depth=1
	vaddi.wu	$vr5, $vr2, 2
	vpickve2gr.w	$a6, $vr2, 1
	bstrpick.d	$a6, $a6, 31, 0
	movgr2fr.d	$fa6, $a6
	ffint.d.l	$fa6, $fa6
	vpickve2gr.w	$a6, $vr2, 0
	bstrpick.d	$a6, $a6, 31, 0
	movgr2fr.d	$fa7, $a6
	ffint.d.l	$fa7, $fa7
	vextrins.d	$vr7, $vr6, 16
	vpickve2gr.w	$a6, $vr5, 1
	bstrpick.d	$a6, $a6, 31, 0
	movgr2fr.d	$fa6, $a6
	ffint.d.l	$fa6, $fa6
	vpickve2gr.w	$a6, $vr5, 0
	bstrpick.d	$a6, $a6, 31, 0
	movgr2fr.d	$fa5, $a6
	ffint.d.l	$fa5, $fa5
	vextrins.d	$vr5, $vr6, 16
	vfadd.d	$vr6, $vr7, $vr3
	vfadd.d	$vr8, $vr5, $vr3
	vfmul.d	$vr6, $vr1, $vr6
	vfmul.d	$vr8, $vr1, $vr8
	vfadd.d	$vr7, $vr7, $vr4
	vfadd.d	$vr5, $vr5, $vr4
	vfdiv.d	$vr6, $vr6, $vr7
	vfdiv.d	$vr5, $vr8, $vr5
	vst	$vr6, $a4, -16
	vst	$vr5, $a4, 0
	vaddi.wu	$vr2, $vr2, 4
	addi.d	$a5, $a5, -4
	addi.d	$a4, $a4, 32
	bnez	$a5, .LBB9_302
# %bb.303:                              # %middle.block2865
	beq	$a1, $a2, .LBB9_306
.LBB9_304:                              # %.lr.ph.i681.preheader
	pcalau12i	$a4, %pc_hi20(.LCPI9_1)
	fld.d	$fa1, $a4, %pc_lo12(.LCPI9_1)
	pcalau12i	$a4, %pc_hi20(.LCPI9_2)
	fld.d	$fa2, $a4, %pc_lo12(.LCPI9_2)
	sub.d	$a2, $a2, $a1
	alsl.d	$a3, $a1, $a3, 3
	.p2align	4, , 16
.LBB9_305:                              # %.lr.ph.i681
                                        # =>This Inner Loop Header: Depth=1
	bstrpick.d	$a4, $a1, 31, 0
	movgr2fr.d	$fa3, $a4
	ffint.d.l	$fa3, $fa3
	fadd.d	$fa4, $fa3, $fa1
	fmul.d	$fa4, $fa0, $fa4
	fadd.d	$fa3, $fa3, $fa2
	fdiv.d	$fa3, $fa4, $fa3
	fst.d	$fa3, $a3, 0
	addi.d	$a2, $a2, -1
	addi.d	$a3, $a3, 8
	addi.w	$a1, $a1, 1
	bnez	$a2, .LBB9_305
.LBB9_306:                              # %_ZN12_GLOBAL__N_18initDataERN8LoopData9RealArrayE.exit685
	ld.w	$a1, $s1, 504
	blez	$a1, .LBB9_1187
# %bb.307:                              # %.lr.ph.preheader.i687
	ld.bu	$a2, $s1, 488
	andi	$a2, $a2, 1
	sltui	$a2, $a2, 1
	slli.d	$a2, $a2, 3
	fldx.d	$fa0, $a0, $a2
	ld.d	$a2, $s1, 496
	ori	$a0, $zero, 4
	bgeu	$a1, $a0, .LBB9_309
# %bb.308:
	move	$a0, $zero
	b	.LBB9_312
.LBB9_309:                              # %vector.ph2870
	bstrpick.d	$a0, $a1, 30, 2
	slli.d	$a0, $a0, 2
	vreplvei.d	$vr1, $vr0, 0
	addi.d	$a3, $a2, 16
	ori	$a4, $zero, 0
	lu32i.d	$a4, 1
	vreplgr2vr.d	$vr2, $a4
	lu12i.w	$a4, -419431
	ori	$a4, $a4, 2458
	lu32i.d	$a4, 104857
	lu52i.d	$a4, $a4, 1023
	vreplgr2vr.d	$vr3, $a4
	lu12i.w	$a4, -307024
	ori	$a4, $a4, 3880
	lu32i.d	$a4, 129446
	lu52i.d	$a4, $a4, 1023
	vreplgr2vr.d	$vr4, $a4
	move	$a4, $a0
	.p2align	4, , 16
.LBB9_310:                              # %vector.body2875
                                        # =>This Inner Loop Header: Depth=1
	vaddi.wu	$vr5, $vr2, 2
	vpickve2gr.w	$a5, $vr2, 1
	bstrpick.d	$a5, $a5, 31, 0
	movgr2fr.d	$fa6, $a5
	ffint.d.l	$fa6, $fa6
	vpickve2gr.w	$a5, $vr2, 0
	bstrpick.d	$a5, $a5, 31, 0
	movgr2fr.d	$fa7, $a5
	ffint.d.l	$fa7, $fa7
	vextrins.d	$vr7, $vr6, 16
	vpickve2gr.w	$a5, $vr5, 1
	bstrpick.d	$a5, $a5, 31, 0
	movgr2fr.d	$fa6, $a5
	ffint.d.l	$fa6, $fa6
	vpickve2gr.w	$a5, $vr5, 0
	bstrpick.d	$a5, $a5, 31, 0
	movgr2fr.d	$fa5, $a5
	ffint.d.l	$fa5, $fa5
	vextrins.d	$vr5, $vr6, 16
	vfadd.d	$vr6, $vr7, $vr3
	vfadd.d	$vr8, $vr5, $vr3
	vfmul.d	$vr6, $vr1, $vr6
	vfmul.d	$vr8, $vr1, $vr8
	vfadd.d	$vr7, $vr7, $vr4
	vfadd.d	$vr5, $vr5, $vr4
	vfdiv.d	$vr6, $vr6, $vr7
	vfdiv.d	$vr5, $vr8, $vr5
	vst	$vr6, $a3, -16
	vst	$vr5, $a3, 0
	vaddi.wu	$vr2, $vr2, 4
	addi.d	$a4, $a4, -4
	addi.d	$a3, $a3, 32
	bnez	$a4, .LBB9_310
# %bb.311:                              # %middle.block2881
	beq	$a0, $a1, .LBB9_1187
.LBB9_312:                              # %.lr.ph.i689.preheader
	pcalau12i	$a3, %pc_hi20(.LCPI9_1)
	fld.d	$fa1, $a3, %pc_lo12(.LCPI9_1)
	pcalau12i	$a3, %pc_hi20(.LCPI9_2)
	fld.d	$fa2, $a3, %pc_lo12(.LCPI9_2)
	sub.d	$a1, $a1, $a0
	alsl.d	$a2, $a0, $a2, 3
	.p2align	4, , 16
.LBB9_313:                              # %.lr.ph.i689
                                        # =>This Inner Loop Header: Depth=1
	bstrpick.d	$a3, $a0, 31, 0
	movgr2fr.d	$fa3, $a3
	ffint.d.l	$fa3, $fa3
	fadd.d	$fa4, $fa3, $fa1
	fmul.d	$fa4, $fa0, $fa4
	fadd.d	$fa3, $fa3, $fa2
	fdiv.d	$fa3, $fa4, $fa3
	fst.d	$fa3, $a2, 0
	addi.d	$a1, $a1, -1
	addi.d	$a2, $a2, 8
	addi.w	$a0, $a0, 1
	bnez	$a1, .LBB9_313
	b	.LBB9_1187
.LBB9_314:                              # %vector.ph2918
	bstrpick.d	$a1, $a2, 30, 2
	slli.d	$a1, $a1, 2
	vreplvei.d	$vr1, $vr0, 0
	addi.d	$a4, $a3, 16
	ori	$a5, $zero, 0
	lu32i.d	$a5, 1
	vreplgr2vr.d	$vr2, $a5
	lu12i.w	$a5, -419431
	ori	$a5, $a5, 2458
	lu32i.d	$a5, 104857
	lu52i.d	$a5, $a5, 1023
	vreplgr2vr.d	$vr3, $a5
	lu12i.w	$a5, -307024
	ori	$a5, $a5, 3880
	lu32i.d	$a5, 129446
	lu52i.d	$a5, $a5, 1023
	vreplgr2vr.d	$vr4, $a5
	move	$a5, $a1
	.p2align	4, , 16
.LBB9_315:                              # %vector.body2923
                                        # =>This Inner Loop Header: Depth=1
	vaddi.wu	$vr5, $vr2, 2
	vpickve2gr.w	$a6, $vr2, 1
	bstrpick.d	$a6, $a6, 31, 0
	movgr2fr.d	$fa6, $a6
	ffint.d.l	$fa6, $fa6
	vpickve2gr.w	$a6, $vr2, 0
	bstrpick.d	$a6, $a6, 31, 0
	movgr2fr.d	$fa7, $a6
	ffint.d.l	$fa7, $fa7
	vextrins.d	$vr7, $vr6, 16
	vpickve2gr.w	$a6, $vr5, 1
	bstrpick.d	$a6, $a6, 31, 0
	movgr2fr.d	$fa6, $a6
	ffint.d.l	$fa6, $fa6
	vpickve2gr.w	$a6, $vr5, 0
	bstrpick.d	$a6, $a6, 31, 0
	movgr2fr.d	$fa5, $a6
	ffint.d.l	$fa5, $fa5
	vextrins.d	$vr5, $vr6, 16
	vfadd.d	$vr6, $vr7, $vr3
	vfadd.d	$vr8, $vr5, $vr3
	vfmul.d	$vr6, $vr1, $vr6
	vfmul.d	$vr8, $vr1, $vr8
	vfadd.d	$vr7, $vr7, $vr4
	vfadd.d	$vr5, $vr5, $vr4
	vfdiv.d	$vr6, $vr6, $vr7
	vfdiv.d	$vr5, $vr8, $vr5
	vst	$vr6, $a4, -16
